
01-RTC.elf:     file format elf32-littlearm

Sections:
Idx Name          Size      VMA       LMA       File off  Algn
  0 .isr_vector   000000b8  08000000  08000000  00010000  2**0
                  CONTENTS, ALLOC, LOAD, READONLY, DATA
  1 .text         00007950  080000b8  080000b8  000100b8  2**2
                  CONTENTS, ALLOC, LOAD, READONLY, CODE
  2 .rodata       00000138  08007a08  08007a08  00017a08  2**2
                  CONTENTS, ALLOC, LOAD, READONLY, DATA
  3 .ARM.extab    00000000  08007b40  08007b40  00020010  2**0
                  CONTENTS
  4 .ARM          00000000  08007b40  08007b40  00020010  2**0
                  CONTENTS
  5 .preinit_array 00000000  08007b40  08007b40  00020010  2**0
                  CONTENTS, ALLOC, LOAD, DATA
  6 .init_array   00000004  08007b40  08007b40  00017b40  2**2
                  CONTENTS, ALLOC, LOAD, DATA
  7 .fini_array   00000004  08007b44  08007b44  00017b44  2**2
                  CONTENTS, ALLOC, LOAD, DATA
  8 .data         00000010  20000000  08007b48  00020000  2**2
                  CONTENTS, ALLOC, LOAD, DATA
  9 .bss          00000440  20000010  08007b58  00020010  2**2
                  ALLOC
 10 ._user_heap_stack 00000600  20000450  08007b58  00020450  2**0
                  ALLOC
 11 .ARM.attributes 00000028  00000000  00000000  00020010  2**0
                  CONTENTS, READONLY
 12 .comment      00000043  00000000  00000000  00020038  2**0
                  CONTENTS, READONLY
 13 .debug_info   000106b7  00000000  00000000  0002007b  2**0
                  CONTENTS, READONLY, DEBUGGING, OCTETS
 14 .debug_abbrev 00002a2f  00000000  00000000  00030732  2**0
                  CONTENTS, READONLY, DEBUGGING, OCTETS
 15 .debug_aranges 00000d30  00000000  00000000  00033168  2**3
                  CONTENTS, READONLY, DEBUGGING, OCTETS
 16 .debug_rnglists 00000a2f  00000000  00000000  00033e98  2**0
                  CONTENTS, READONLY, DEBUGGING, OCTETS
 17 .debug_macro  00015cfb  00000000  00000000  000348c7  2**0
                  CONTENTS, READONLY, DEBUGGING, OCTETS
 18 .debug_line   000108c9  00000000  00000000  0004a5c2  2**0
                  CONTENTS, READONLY, DEBUGGING, OCTETS
 19 .debug_str    00086815  00000000  00000000  0005ae8b  2**0
                  CONTENTS, READONLY, DEBUGGING, OCTETS
 20 .debug_frame  00002ef8  00000000  00000000  000e16a0  2**2
                  CONTENTS, READONLY, DEBUGGING, OCTETS
 21 .debug_line_str 0000008d  00000000  00000000  000e4598  2**0
                  CONTENTS, READONLY, DEBUGGING, OCTETS

Disassembly of section .text:

080000b8 <__do_global_dtors_aux>:
 80000b8:	b510      	push	{r4, lr}
 80000ba:	4c06      	ldr	r4, [pc, #24]	; (80000d4 <__do_global_dtors_aux+0x1c>)
 80000bc:	7823      	ldrb	r3, [r4, #0]
 80000be:	2b00      	cmp	r3, #0
 80000c0:	d107      	bne.n	80000d2 <__do_global_dtors_aux+0x1a>
 80000c2:	4b05      	ldr	r3, [pc, #20]	; (80000d8 <__do_global_dtors_aux+0x20>)
 80000c4:	2b00      	cmp	r3, #0
 80000c6:	d002      	beq.n	80000ce <__do_global_dtors_aux+0x16>
 80000c8:	4804      	ldr	r0, [pc, #16]	; (80000dc <__do_global_dtors_aux+0x24>)
 80000ca:	e000      	b.n	80000ce <__do_global_dtors_aux+0x16>
 80000cc:	bf00      	nop
 80000ce:	2301      	movs	r3, #1
 80000d0:	7023      	strb	r3, [r4, #0]
 80000d2:	bd10      	pop	{r4, pc}
 80000d4:	20000010 	.word	0x20000010
 80000d8:	00000000 	.word	0x00000000
 80000dc:	080079f0 	.word	0x080079f0

080000e0 <frame_dummy>:
 80000e0:	4b04      	ldr	r3, [pc, #16]	; (80000f4 <frame_dummy+0x14>)
 80000e2:	b510      	push	{r4, lr}
 80000e4:	2b00      	cmp	r3, #0
 80000e6:	d003      	beq.n	80000f0 <frame_dummy+0x10>
 80000e8:	4903      	ldr	r1, [pc, #12]	; (80000f8 <frame_dummy+0x18>)
 80000ea:	4804      	ldr	r0, [pc, #16]	; (80000fc <frame_dummy+0x1c>)
 80000ec:	e000      	b.n	80000f0 <frame_dummy+0x10>
 80000ee:	bf00      	nop
 80000f0:	bd10      	pop	{r4, pc}
 80000f2:	46c0      	nop			; (mov r8, r8)
 80000f4:	00000000 	.word	0x00000000
 80000f8:	20000014 	.word	0x20000014
 80000fc:	080079f0 	.word	0x080079f0

08000100 <strlen>:
 8000100:	2300      	movs	r3, #0
 8000102:	5cc2      	ldrb	r2, [r0, r3]
 8000104:	3301      	adds	r3, #1
 8000106:	2a00      	cmp	r2, #0
 8000108:	d1fb      	bne.n	8000102 <strlen+0x2>
 800010a:	1e58      	subs	r0, r3, #1
 800010c:	4770      	bx	lr
	...

08000110 <__udivsi3>:
 8000110:	2200      	movs	r2, #0
 8000112:	0843      	lsrs	r3, r0, #1
 8000114:	428b      	cmp	r3, r1
 8000116:	d374      	bcc.n	8000202 <__udivsi3+0xf2>
 8000118:	0903      	lsrs	r3, r0, #4
 800011a:	428b      	cmp	r3, r1
 800011c:	d35f      	bcc.n	80001de <__udivsi3+0xce>
 800011e:	0a03      	lsrs	r3, r0, #8
 8000120:	428b      	cmp	r3, r1
 8000122:	d344      	bcc.n	80001ae <__udivsi3+0x9e>
 8000124:	0b03      	lsrs	r3, r0, #12
 8000126:	428b      	cmp	r3, r1
 8000128:	d328      	bcc.n	800017c <__udivsi3+0x6c>
 800012a:	0c03      	lsrs	r3, r0, #16
 800012c:	428b      	cmp	r3, r1
 800012e:	d30d      	bcc.n	800014c <__udivsi3+0x3c>
 8000130:	22ff      	movs	r2, #255	; 0xff
 8000132:	0209      	lsls	r1, r1, #8
 8000134:	ba12      	rev	r2, r2
 8000136:	0c03      	lsrs	r3, r0, #16
 8000138:	428b      	cmp	r3, r1
 800013a:	d302      	bcc.n	8000142 <__udivsi3+0x32>
 800013c:	1212      	asrs	r2, r2, #8
 800013e:	0209      	lsls	r1, r1, #8
 8000140:	d065      	beq.n	800020e <__udivsi3+0xfe>
 8000142:	0b03      	lsrs	r3, r0, #12
 8000144:	428b      	cmp	r3, r1
 8000146:	d319      	bcc.n	800017c <__udivsi3+0x6c>
 8000148:	e000      	b.n	800014c <__udivsi3+0x3c>
 800014a:	0a09      	lsrs	r1, r1, #8
 800014c:	0bc3      	lsrs	r3, r0, #15
 800014e:	428b      	cmp	r3, r1
 8000150:	d301      	bcc.n	8000156 <__udivsi3+0x46>
 8000152:	03cb      	lsls	r3, r1, #15
 8000154:	1ac0      	subs	r0, r0, r3
 8000156:	4152      	adcs	r2, r2
 8000158:	0b83      	lsrs	r3, r0, #14
 800015a:	428b      	cmp	r3, r1
 800015c:	d301      	bcc.n	8000162 <__udivsi3+0x52>
 800015e:	038b      	lsls	r3, r1, #14
 8000160:	1ac0      	subs	r0, r0, r3
 8000162:	4152      	adcs	r2, r2
 8000164:	0b43      	lsrs	r3, r0, #13
 8000166:	428b      	cmp	r3, r1
 8000168:	d301      	bcc.n	800016e <__udivsi3+0x5e>
 800016a:	034b      	lsls	r3, r1, #13
 800016c:	1ac0      	subs	r0, r0, r3
 800016e:	4152      	adcs	r2, r2
 8000170:	0b03      	lsrs	r3, r0, #12
 8000172:	428b      	cmp	r3, r1
 8000174:	d301      	bcc.n	800017a <__udivsi3+0x6a>
 8000176:	030b      	lsls	r3, r1, #12
 8000178:	1ac0      	subs	r0, r0, r3
 800017a:	4152      	adcs	r2, r2
 800017c:	0ac3      	lsrs	r3, r0, #11
 800017e:	428b      	cmp	r3, r1
 8000180:	d301      	bcc.n	8000186 <__udivsi3+0x76>
 8000182:	02cb      	lsls	r3, r1, #11
 8000184:	1ac0      	subs	r0, r0, r3
 8000186:	4152      	adcs	r2, r2
 8000188:	0a83      	lsrs	r3, r0, #10
 800018a:	428b      	cmp	r3, r1
 800018c:	d301      	bcc.n	8000192 <__udivsi3+0x82>
 800018e:	028b      	lsls	r3, r1, #10
 8000190:	1ac0      	subs	r0, r0, r3
 8000192:	4152      	adcs	r2, r2
 8000194:	0a43      	lsrs	r3, r0, #9
 8000196:	428b      	cmp	r3, r1
 8000198:	d301      	bcc.n	800019e <__udivsi3+0x8e>
 800019a:	024b      	lsls	r3, r1, #9
 800019c:	1ac0      	subs	r0, r0, r3
 800019e:	4152      	adcs	r2, r2
 80001a0:	0a03      	lsrs	r3, r0, #8
 80001a2:	428b      	cmp	r3, r1
 80001a4:	d301      	bcc.n	80001aa <__udivsi3+0x9a>
 80001a6:	020b      	lsls	r3, r1, #8
 80001a8:	1ac0      	subs	r0, r0, r3
 80001aa:	4152      	adcs	r2, r2
 80001ac:	d2cd      	bcs.n	800014a <__udivsi3+0x3a>
 80001ae:	09c3      	lsrs	r3, r0, #7
 80001b0:	428b      	cmp	r3, r1
 80001b2:	d301      	bcc.n	80001b8 <__udivsi3+0xa8>
 80001b4:	01cb      	lsls	r3, r1, #7
 80001b6:	1ac0      	subs	r0, r0, r3
 80001b8:	4152      	adcs	r2, r2
 80001ba:	0983      	lsrs	r3, r0, #6
 80001bc:	428b      	cmp	r3, r1
 80001be:	d301      	bcc.n	80001c4 <__udivsi3+0xb4>
 80001c0:	018b      	lsls	r3, r1, #6
 80001c2:	1ac0      	subs	r0, r0, r3
 80001c4:	4152      	adcs	r2, r2
 80001c6:	0943      	lsrs	r3, r0, #5
 80001c8:	428b      	cmp	r3, r1
 80001ca:	d301      	bcc.n	80001d0 <__udivsi3+0xc0>
 80001cc:	014b      	lsls	r3, r1, #5
 80001ce:	1ac0      	subs	r0, r0, r3
 80001d0:	4152      	adcs	r2, r2
 80001d2:	0903      	lsrs	r3, r0, #4
 80001d4:	428b      	cmp	r3, r1
 80001d6:	d301      	bcc.n	80001dc <__udivsi3+0xcc>
 80001d8:	010b      	lsls	r3, r1, #4
 80001da:	1ac0      	subs	r0, r0, r3
 80001dc:	4152      	adcs	r2, r2
 80001de:	08c3      	lsrs	r3, r0, #3
 80001e0:	428b      	cmp	r3, r1
 80001e2:	d301      	bcc.n	80001e8 <__udivsi3+0xd8>
 80001e4:	00cb      	lsls	r3, r1, #3
 80001e6:	1ac0      	subs	r0, r0, r3
 80001e8:	4152      	adcs	r2, r2
 80001ea:	0883      	lsrs	r3, r0, #2
 80001ec:	428b      	cmp	r3, r1
 80001ee:	d301      	bcc.n	80001f4 <__udivsi3+0xe4>
 80001f0:	008b      	lsls	r3, r1, #2
 80001f2:	1ac0      	subs	r0, r0, r3
 80001f4:	4152      	adcs	r2, r2
 80001f6:	0843      	lsrs	r3, r0, #1
 80001f8:	428b      	cmp	r3, r1
 80001fa:	d301      	bcc.n	8000200 <__udivsi3+0xf0>
 80001fc:	004b      	lsls	r3, r1, #1
 80001fe:	1ac0      	subs	r0, r0, r3
 8000200:	4152      	adcs	r2, r2
 8000202:	1a41      	subs	r1, r0, r1
 8000204:	d200      	bcs.n	8000208 <__udivsi3+0xf8>
 8000206:	4601      	mov	r1, r0
 8000208:	4152      	adcs	r2, r2
 800020a:	4610      	mov	r0, r2
 800020c:	4770      	bx	lr
 800020e:	e7ff      	b.n	8000210 <__udivsi3+0x100>
 8000210:	b501      	push	{r0, lr}
 8000212:	2000      	movs	r0, #0
 8000214:	f000 f8f0 	bl	80003f8 <__aeabi_idiv0>
 8000218:	bd02      	pop	{r1, pc}
 800021a:	46c0      	nop			; (mov r8, r8)

0800021c <__aeabi_uidivmod>:
 800021c:	2900      	cmp	r1, #0
 800021e:	d0f7      	beq.n	8000210 <__udivsi3+0x100>
 8000220:	e776      	b.n	8000110 <__udivsi3>
 8000222:	4770      	bx	lr

08000224 <__divsi3>:
 8000224:	4603      	mov	r3, r0
 8000226:	430b      	orrs	r3, r1
 8000228:	d47f      	bmi.n	800032a <__divsi3+0x106>
 800022a:	2200      	movs	r2, #0
 800022c:	0843      	lsrs	r3, r0, #1
 800022e:	428b      	cmp	r3, r1
 8000230:	d374      	bcc.n	800031c <__divsi3+0xf8>
 8000232:	0903      	lsrs	r3, r0, #4
 8000234:	428b      	cmp	r3, r1
 8000236:	d35f      	bcc.n	80002f8 <__divsi3+0xd4>
 8000238:	0a03      	lsrs	r3, r0, #8
 800023a:	428b      	cmp	r3, r1
 800023c:	d344      	bcc.n	80002c8 <__divsi3+0xa4>
 800023e:	0b03      	lsrs	r3, r0, #12
 8000240:	428b      	cmp	r3, r1
 8000242:	d328      	bcc.n	8000296 <__divsi3+0x72>
 8000244:	0c03      	lsrs	r3, r0, #16
 8000246:	428b      	cmp	r3, r1
 8000248:	d30d      	bcc.n	8000266 <__divsi3+0x42>
 800024a:	22ff      	movs	r2, #255	; 0xff
 800024c:	0209      	lsls	r1, r1, #8
 800024e:	ba12      	rev	r2, r2
 8000250:	0c03      	lsrs	r3, r0, #16
 8000252:	428b      	cmp	r3, r1
 8000254:	d302      	bcc.n	800025c <__divsi3+0x38>
 8000256:	1212      	asrs	r2, r2, #8
 8000258:	0209      	lsls	r1, r1, #8
 800025a:	d065      	beq.n	8000328 <__divsi3+0x104>
 800025c:	0b03      	lsrs	r3, r0, #12
 800025e:	428b      	cmp	r3, r1
 8000260:	d319      	bcc.n	8000296 <__divsi3+0x72>
 8000262:	e000      	b.n	8000266 <__divsi3+0x42>
 8000264:	0a09      	lsrs	r1, r1, #8
 8000266:	0bc3      	lsrs	r3, r0, #15
 8000268:	428b      	cmp	r3, r1
 800026a:	d301      	bcc.n	8000270 <__divsi3+0x4c>
 800026c:	03cb      	lsls	r3, r1, #15
 800026e:	1ac0      	subs	r0, r0, r3
 8000270:	4152      	adcs	r2, r2
 8000272:	0b83      	lsrs	r3, r0, #14
 8000274:	428b      	cmp	r3, r1
 8000276:	d301      	bcc.n	800027c <__divsi3+0x58>
 8000278:	038b      	lsls	r3, r1, #14
 800027a:	1ac0      	subs	r0, r0, r3
 800027c:	4152      	adcs	r2, r2
 800027e:	0b43      	lsrs	r3, r0, #13
 8000280:	428b      	cmp	r3, r1
 8000282:	d301      	bcc.n	8000288 <__divsi3+0x64>
 8000284:	034b      	lsls	r3, r1, #13
 8000286:	1ac0      	subs	r0, r0, r3
 8000288:	4152      	adcs	r2, r2
 800028a:	0b03      	lsrs	r3, r0, #12
 800028c:	428b      	cmp	r3, r1
 800028e:	d301      	bcc.n	8000294 <__divsi3+0x70>
 8000290:	030b      	lsls	r3, r1, #12
 8000292:	1ac0      	subs	r0, r0, r3
 8000294:	4152      	adcs	r2, r2
 8000296:	0ac3      	lsrs	r3, r0, #11
 8000298:	428b      	cmp	r3, r1
 800029a:	d301      	bcc.n	80002a0 <__divsi3+0x7c>
 800029c:	02cb      	lsls	r3, r1, #11
 800029e:	1ac0      	subs	r0, r0, r3
 80002a0:	4152      	adcs	r2, r2
 80002a2:	0a83      	lsrs	r3, r0, #10
 80002a4:	428b      	cmp	r3, r1
 80002a6:	d301      	bcc.n	80002ac <__divsi3+0x88>
 80002a8:	028b      	lsls	r3, r1, #10
 80002aa:	1ac0      	subs	r0, r0, r3
 80002ac:	4152      	adcs	r2, r2
 80002ae:	0a43      	lsrs	r3, r0, #9
 80002b0:	428b      	cmp	r3, r1
 80002b2:	d301      	bcc.n	80002b8 <__divsi3+0x94>
 80002b4:	024b      	lsls	r3, r1, #9
 80002b6:	1ac0      	subs	r0, r0, r3
 80002b8:	4152      	adcs	r2, r2
 80002ba:	0a03      	lsrs	r3, r0, #8
 80002bc:	428b      	cmp	r3, r1
 80002be:	d301      	bcc.n	80002c4 <__divsi3+0xa0>
 80002c0:	020b      	lsls	r3, r1, #8
 80002c2:	1ac0      	subs	r0, r0, r3
 80002c4:	4152      	adcs	r2, r2
 80002c6:	d2cd      	bcs.n	8000264 <__divsi3+0x40>
 80002c8:	09c3      	lsrs	r3, r0, #7
 80002ca:	428b      	cmp	r3, r1
 80002cc:	d301      	bcc.n	80002d2 <__divsi3+0xae>
 80002ce:	01cb      	lsls	r3, r1, #7
 80002d0:	1ac0      	subs	r0, r0, r3
 80002d2:	4152      	adcs	r2, r2
 80002d4:	0983      	lsrs	r3, r0, #6
 80002d6:	428b      	cmp	r3, r1
 80002d8:	d301      	bcc.n	80002de <__divsi3+0xba>
 80002da:	018b      	lsls	r3, r1, #6
 80002dc:	1ac0      	subs	r0, r0, r3
 80002de:	4152      	adcs	r2, r2
 80002e0:	0943      	lsrs	r3, r0, #5
 80002e2:	428b      	cmp	r3, r1
 80002e4:	d301      	bcc.n	80002ea <__divsi3+0xc6>
 80002e6:	014b      	lsls	r3, r1, #5
 80002e8:	1ac0      	subs	r0, r0, r3
 80002ea:	4152      	adcs	r2, r2
 80002ec:	0903      	lsrs	r3, r0, #4
 80002ee:	428b      	cmp	r3, r1
 80002f0:	d301      	bcc.n	80002f6 <__divsi3+0xd2>
 80002f2:	010b      	lsls	r3, r1, #4
 80002f4:	1ac0      	subs	r0, r0, r3
 80002f6:	4152      	adcs	r2, r2
 80002f8:	08c3      	lsrs	r3, r0, #3
 80002fa:	428b      	cmp	r3, r1
 80002fc:	d301      	bcc.n	8000302 <__divsi3+0xde>
 80002fe:	00cb      	lsls	r3, r1, #3
 8000300:	1ac0      	subs	r0, r0, r3
 8000302:	4152      	adcs	r2, r2
 8000304:	0883      	lsrs	r3, r0, #2
 8000306:	428b      	cmp	r3, r1
 8000308:	d301      	bcc.n	800030e <__divsi3+0xea>
 800030a:	008b      	lsls	r3, r1, #2
 800030c:	1ac0      	subs	r0, r0, r3
 800030e:	4152      	adcs	r2, r2
 8000310:	0843      	lsrs	r3, r0, #1
 8000312:	428b      	cmp	r3, r1
 8000314:	d301      	bcc.n	800031a <__divsi3+0xf6>
 8000316:	004b      	lsls	r3, r1, #1
 8000318:	1ac0      	subs	r0, r0, r3
 800031a:	4152      	adcs	r2, r2
 800031c:	1a41      	subs	r1, r0, r1
 800031e:	d200      	bcs.n	8000322 <__divsi3+0xfe>
 8000320:	4601      	mov	r1, r0
 8000322:	4152      	adcs	r2, r2
 8000324:	4610      	mov	r0, r2
 8000326:	4770      	bx	lr
 8000328:	e05d      	b.n	80003e6 <__divsi3+0x1c2>
 800032a:	0fca      	lsrs	r2, r1, #31
 800032c:	d000      	beq.n	8000330 <__divsi3+0x10c>
 800032e:	4249      	negs	r1, r1
 8000330:	1003      	asrs	r3, r0, #32
 8000332:	d300      	bcc.n	8000336 <__divsi3+0x112>
 8000334:	4240      	negs	r0, r0
 8000336:	4053      	eors	r3, r2
 8000338:	2200      	movs	r2, #0
 800033a:	469c      	mov	ip, r3
 800033c:	0903      	lsrs	r3, r0, #4
 800033e:	428b      	cmp	r3, r1
 8000340:	d32d      	bcc.n	800039e <__divsi3+0x17a>
 8000342:	0a03      	lsrs	r3, r0, #8
 8000344:	428b      	cmp	r3, r1
 8000346:	d312      	bcc.n	800036e <__divsi3+0x14a>
 8000348:	22fc      	movs	r2, #252	; 0xfc
 800034a:	0189      	lsls	r1, r1, #6
 800034c:	ba12      	rev	r2, r2
 800034e:	0a03      	lsrs	r3, r0, #8
 8000350:	428b      	cmp	r3, r1
 8000352:	d30c      	bcc.n	800036e <__divsi3+0x14a>
 8000354:	0189      	lsls	r1, r1, #6
 8000356:	1192      	asrs	r2, r2, #6
 8000358:	428b      	cmp	r3, r1
 800035a:	d308      	bcc.n	800036e <__divsi3+0x14a>
 800035c:	0189      	lsls	r1, r1, #6
 800035e:	1192      	asrs	r2, r2, #6
 8000360:	428b      	cmp	r3, r1
 8000362:	d304      	bcc.n	800036e <__divsi3+0x14a>
 8000364:	0189      	lsls	r1, r1, #6
 8000366:	d03a      	beq.n	80003de <__divsi3+0x1ba>
 8000368:	1192      	asrs	r2, r2, #6
 800036a:	e000      	b.n	800036e <__divsi3+0x14a>
 800036c:	0989      	lsrs	r1, r1, #6
 800036e:	09c3      	lsrs	r3, r0, #7
 8000370:	428b      	cmp	r3, r1
 8000372:	d301      	bcc.n	8000378 <__divsi3+0x154>
 8000374:	01cb      	lsls	r3, r1, #7
 8000376:	1ac0      	subs	r0, r0, r3
 8000378:	4152      	adcs	r2, r2
 800037a:	0983      	lsrs	r3, r0, #6
 800037c:	428b      	cmp	r3, r1
 800037e:	d301      	bcc.n	8000384 <__divsi3+0x160>
 8000380:	018b      	lsls	r3, r1, #6
 8000382:	1ac0      	subs	r0, r0, r3
 8000384:	4152      	adcs	r2, r2
 8000386:	0943      	lsrs	r3, r0, #5
 8000388:	428b      	cmp	r3, r1
 800038a:	d301      	bcc.n	8000390 <__divsi3+0x16c>
 800038c:	014b      	lsls	r3, r1, #5
 800038e:	1ac0      	subs	r0, r0, r3
 8000390:	4152      	adcs	r2, r2
 8000392:	0903      	lsrs	r3, r0, #4
 8000394:	428b      	cmp	r3, r1
 8000396:	d301      	bcc.n	800039c <__divsi3+0x178>
 8000398:	010b      	lsls	r3, r1, #4
 800039a:	1ac0      	subs	r0, r0, r3
 800039c:	4152      	adcs	r2, r2
 800039e:	08c3      	lsrs	r3, r0, #3
 80003a0:	428b      	cmp	r3, r1
 80003a2:	d301      	bcc.n	80003a8 <__divsi3+0x184>
 80003a4:	00cb      	lsls	r3, r1, #3
 80003a6:	1ac0      	subs	r0, r0, r3
 80003a8:	4152      	adcs	r2, r2
 80003aa:	0883      	lsrs	r3, r0, #2
 80003ac:	428b      	cmp	r3, r1
 80003ae:	d301      	bcc.n	80003b4 <__divsi3+0x190>
 80003b0:	008b      	lsls	r3, r1, #2
 80003b2:	1ac0      	subs	r0, r0, r3
 80003b4:	4152      	adcs	r2, r2
 80003b6:	d2d9      	bcs.n	800036c <__divsi3+0x148>
 80003b8:	0843      	lsrs	r3, r0, #1
 80003ba:	428b      	cmp	r3, r1
 80003bc:	d301      	bcc.n	80003c2 <__divsi3+0x19e>
 80003be:	004b      	lsls	r3, r1, #1
 80003c0:	1ac0      	subs	r0, r0, r3
 80003c2:	4152      	adcs	r2, r2
 80003c4:	1a41      	subs	r1, r0, r1
 80003c6:	d200      	bcs.n	80003ca <__divsi3+0x1a6>
 80003c8:	4601      	mov	r1, r0
 80003ca:	4663      	mov	r3, ip
 80003cc:	4152      	adcs	r2, r2
 80003ce:	105b      	asrs	r3, r3, #1
 80003d0:	4610      	mov	r0, r2
 80003d2:	d301      	bcc.n	80003d8 <__divsi3+0x1b4>
 80003d4:	4240      	negs	r0, r0
 80003d6:	2b00      	cmp	r3, #0
 80003d8:	d500      	bpl.n	80003dc <__divsi3+0x1b8>
 80003da:	4249      	negs	r1, r1
 80003dc:	4770      	bx	lr
 80003de:	4663      	mov	r3, ip
 80003e0:	105b      	asrs	r3, r3, #1
 80003e2:	d300      	bcc.n	80003e6 <__divsi3+0x1c2>
 80003e4:	4240      	negs	r0, r0
 80003e6:	b501      	push	{r0, lr}
 80003e8:	2000      	movs	r0, #0
 80003ea:	f000 f805 	bl	80003f8 <__aeabi_idiv0>
 80003ee:	bd02      	pop	{r1, pc}

080003f0 <__aeabi_idivmod>:
 80003f0:	2900      	cmp	r1, #0
 80003f2:	d0f8      	beq.n	80003e6 <__divsi3+0x1c2>
 80003f4:	e716      	b.n	8000224 <__divsi3>
 80003f6:	4770      	bx	lr

080003f8 <__aeabi_idiv0>:
 80003f8:	4770      	bx	lr
 80003fa:	46c0      	nop			; (mov r8, r8)

080003fc <MX_GPIO_Init>:
        * Output
        * EVENT_OUT
        * EXTI
*/
void MX_GPIO_Init(void)
{
 80003fc:	b580      	push	{r7, lr}
 80003fe:	b082      	sub	sp, #8
 8000400:	af00      	add	r7, sp, #0

  /* GPIO Ports Clock Enable */
  __HAL_RCC_GPIOC_CLK_ENABLE();
 8000402:	4b0e      	ldr	r3, [pc, #56]	; (800043c <MX_GPIO_Init+0x40>)
 8000404:	6b5a      	ldr	r2, [r3, #52]	; 0x34
 8000406:	4b0d      	ldr	r3, [pc, #52]	; (800043c <MX_GPIO_Init+0x40>)
 8000408:	2104      	movs	r1, #4
 800040a:	430a      	orrs	r2, r1
 800040c:	635a      	str	r2, [r3, #52]	; 0x34
 800040e:	4b0b      	ldr	r3, [pc, #44]	; (800043c <MX_GPIO_Init+0x40>)
 8000410:	6b5b      	ldr	r3, [r3, #52]	; 0x34
 8000412:	2204      	movs	r2, #4
 8000414:	4013      	ands	r3, r2
 8000416:	607b      	str	r3, [r7, #4]
 8000418:	687b      	ldr	r3, [r7, #4]
  __HAL_RCC_GPIOA_CLK_ENABLE();
 800041a:	4b08      	ldr	r3, [pc, #32]	; (800043c <MX_GPIO_Init+0x40>)
 800041c:	6b5a      	ldr	r2, [r3, #52]	; 0x34
 800041e:	4b07      	ldr	r3, [pc, #28]	; (800043c <MX_GPIO_Init+0x40>)
 8000420:	2101      	movs	r1, #1
 8000422:	430a      	orrs	r2, r1
 8000424:	635a      	str	r2, [r3, #52]	; 0x34
 8000426:	4b05      	ldr	r3, [pc, #20]	; (800043c <MX_GPIO_Init+0x40>)
 8000428:	6b5b      	ldr	r3, [r3, #52]	; 0x34
 800042a:	2201      	movs	r2, #1
 800042c:	4013      	ands	r3, r2
 800042e:	603b      	str	r3, [r7, #0]
 8000430:	683b      	ldr	r3, [r7, #0]

}
 8000432:	46c0      	nop			; (mov r8, r8)
 8000434:	46bd      	mov	sp, r7
 8000436:	b002      	add	sp, #8
 8000438:	bd80      	pop	{r7, pc}
 800043a:	46c0      	nop			; (mov r8, r8)
 800043c:	40021000 	.word	0x40021000

08000440 <main>:
/**
  * @brief  The application entry point.
  * @retval int
  */
int main(void)
{
 8000440:	b580      	push	{r7, lr}
 8000442:	af00      	add	r7, sp, #0
  /* USER CODE END 1 */

  /* MCU Configuration--------------------------------------------------------*/

  /* Reset of all peripherals, Initializes the Flash interface and the Systick. */
  HAL_Init();
 8000444:	f004 fbce 	bl	8004be4 <HAL_Init>
  /* USER CODE BEGIN Init */

  /* USER CODE END Init */

  /* Configure the system clock */
  SystemClock_Config();
 8000448:	f000 f80e 	bl	8000468 <SystemClock_Config>
  /* USER CODE BEGIN SysInit */

  /* USER CODE END SysInit */

  /* Initialize all configured peripherals */
  MX_GPIO_Init();
 800044c:	f7ff ffd6 	bl	80003fc <MX_GPIO_Init>
  MX_RTC_Init();
 8000450:	f004 f978 	bl	8004744 <MX_RTC_Init>
  MX_USART1_UART_Init();
 8000454:	f004 fa76 	bl	8004944 <MX_USART1_UART_Init>
  MX_USART2_UART_Init();
 8000458:	f004 fac2 	bl	80049e0 <MX_USART2_UART_Init>
  /* USER CODE BEGIN 2 */
#ifndef LOOP_TEST_
  Modbus_Init();
 800045c:	f000 f9f8 	bl	8000850 <Modbus_Init>

    /* USER CODE BEGIN 3 */
#ifdef LOOP_TEST_
    RS485_LoopTest();
#else
    Modbus_Process();
 8000460:	f000 fa64 	bl	800092c <Modbus_Process>
 8000464:	e7fc      	b.n	8000460 <main+0x20>
	...

08000468 <SystemClock_Config>:
/**
  * @brief System Clock Configuration
  * @retval None
  */
void SystemClock_Config(void)
{
 8000468:	b590      	push	{r4, r7, lr}
 800046a:	b093      	sub	sp, #76	; 0x4c
 800046c:	af00      	add	r7, sp, #0
  RCC_OscInitTypeDef RCC_OscInitStruct = {0};
 800046e:	2414      	movs	r4, #20
 8000470:	193b      	adds	r3, r7, r4
 8000472:	0018      	movs	r0, r3
 8000474:	2334      	movs	r3, #52	; 0x34
 8000476:	001a      	movs	r2, r3
 8000478:	2100      	movs	r1, #0
 800047a:	f007 fa6f 	bl	800795c <memset>
  RCC_ClkInitTypeDef RCC_ClkInitStruct = {0};
 800047e:	1d3b      	adds	r3, r7, #4
 8000480:	0018      	movs	r0, r3
 8000482:	2310      	movs	r3, #16
 8000484:	001a      	movs	r2, r3
 8000486:	2100      	movs	r1, #0
 8000488:	f007 fa68 	bl	800795c <memset>

  /** Configure the main internal regulator output voltage
  */
  HAL_PWREx_ControlVoltageScaling(PWR_REGULATOR_VOLTAGE_SCALE1);
 800048c:	2380      	movs	r3, #128	; 0x80
 800048e:	009b      	lsls	r3, r3, #2
 8000490:	0018      	movs	r0, r3
 8000492:	f004 ff95 	bl	80053c0 <HAL_PWREx_ControlVoltageScaling>

  /** Configure LSE Drive Capability
  */
  HAL_PWR_EnableBkUpAccess();
 8000496:	f004 ff85 	bl	80053a4 <HAL_PWR_EnableBkUpAccess>
  __HAL_RCC_LSEDRIVE_CONFIG(RCC_LSEDRIVE_LOW);
 800049a:	4b26      	ldr	r3, [pc, #152]	; (8000534 <SystemClock_Config+0xcc>)
 800049c:	6dda      	ldr	r2, [r3, #92]	; 0x5c
 800049e:	4b25      	ldr	r3, [pc, #148]	; (8000534 <SystemClock_Config+0xcc>)
 80004a0:	2118      	movs	r1, #24
 80004a2:	438a      	bics	r2, r1
 80004a4:	65da      	str	r2, [r3, #92]	; 0x5c

  /** Initializes the RCC Oscillators according to the specified parameters
  * in the RCC_OscInitTypeDef structure.
  */
  RCC_OscInitStruct.OscillatorType = RCC_OSCILLATORTYPE_HSI|RCC_OSCILLATORTYPE_LSE;
 80004a6:	193b      	adds	r3, r7, r4
 80004a8:	2206      	movs	r2, #6
 80004aa:	601a      	str	r2, [r3, #0]
  RCC_OscInitStruct.LSEState = RCC_LSE_ON;
 80004ac:	193b      	adds	r3, r7, r4
 80004ae:	2201      	movs	r2, #1
 80004b0:	609a      	str	r2, [r3, #8]
  RCC_OscInitStruct.HSIState = RCC_HSI_ON;
 80004b2:	193b      	adds	r3, r7, r4
 80004b4:	2280      	movs	r2, #128	; 0x80
 80004b6:	0052      	lsls	r2, r2, #1
 80004b8:	60da      	str	r2, [r3, #12]
  RCC_OscInitStruct.HSIDiv = RCC_HSI_DIV1;
 80004ba:	0021      	movs	r1, r4
 80004bc:	187b      	adds	r3, r7, r1
 80004be:	2200      	movs	r2, #0
 80004c0:	611a      	str	r2, [r3, #16]
  RCC_OscInitStruct.HSICalibrationValue = RCC_HSICALIBRATION_DEFAULT;
 80004c2:	187b      	adds	r3, r7, r1
 80004c4:	2240      	movs	r2, #64	; 0x40
 80004c6:	615a      	str	r2, [r3, #20]
  RCC_OscInitStruct.PLL.PLLState = RCC_PLL_ON;
 80004c8:	187b      	adds	r3, r7, r1
 80004ca:	2202      	movs	r2, #2
 80004cc:	61da      	str	r2, [r3, #28]
  RCC_OscInitStruct.PLL.PLLSource = RCC_PLLSOURCE_HSI;
 80004ce:	187b      	adds	r3, r7, r1
 80004d0:	2202      	movs	r2, #2
 80004d2:	621a      	str	r2, [r3, #32]
  RCC_OscInitStruct.PLL.PLLM = RCC_PLLM_DIV1;
 80004d4:	187b      	adds	r3, r7, r1
 80004d6:	2200      	movs	r2, #0
 80004d8:	625a      	str	r2, [r3, #36]	; 0x24
  RCC_OscInitStruct.PLL.PLLN = 8;
 80004da:	187b      	adds	r3, r7, r1
 80004dc:	2208      	movs	r2, #8
 80004de:	629a      	str	r2, [r3, #40]	; 0x28
  RCC_OscInitStruct.PLL.PLLP = RCC_PLLP_DIV2;
 80004e0:	187b      	adds	r3, r7, r1
 80004e2:	2280      	movs	r2, #128	; 0x80
 80004e4:	0292      	lsls	r2, r2, #10
 80004e6:	62da      	str	r2, [r3, #44]	; 0x2c
  RCC_OscInitStruct.PLL.PLLR = RCC_PLLR_DIV2;
 80004e8:	187b      	adds	r3, r7, r1
 80004ea:	2280      	movs	r2, #128	; 0x80
 80004ec:	0592      	lsls	r2, r2, #22
 80004ee:	631a      	str	r2, [r3, #48]	; 0x30
  if (HAL_RCC_OscConfig(&RCC_OscInitStruct) != HAL_OK)
 80004f0:	187b      	adds	r3, r7, r1
 80004f2:	0018      	movs	r0, r3
 80004f4:	f004 ffb0 	bl	8005458 <HAL_RCC_OscConfig>
 80004f8:	1e03      	subs	r3, r0, #0
 80004fa:	d001      	beq.n	8000500 <SystemClock_Config+0x98>
  {
    Error_Handler();
 80004fc:	f000 f81c 	bl	8000538 <Error_Handler>
  }

  /** Initializes the CPU, AHB and APB buses clocks
  */
  RCC_ClkInitStruct.ClockType = RCC_CLOCKTYPE_HCLK|RCC_CLOCKTYPE_SYSCLK
 8000500:	1d3b      	adds	r3, r7, #4
 8000502:	2207      	movs	r2, #7
 8000504:	601a      	str	r2, [r3, #0]
                              |RCC_CLOCKTYPE_PCLK1;
  RCC_ClkInitStruct.SYSCLKSource = RCC_SYSCLKSOURCE_PLLCLK;
 8000506:	1d3b      	adds	r3, r7, #4
 8000508:	2202      	movs	r2, #2
 800050a:	605a      	str	r2, [r3, #4]
  RCC_ClkInitStruct.AHBCLKDivider = RCC_SYSCLK_DIV1;
 800050c:	1d3b      	adds	r3, r7, #4
 800050e:	2200      	movs	r2, #0
 8000510:	609a      	str	r2, [r3, #8]
  RCC_ClkInitStruct.APB1CLKDivider = RCC_HCLK_DIV1;
 8000512:	1d3b      	adds	r3, r7, #4
 8000514:	2200      	movs	r2, #0
 8000516:	60da      	str	r2, [r3, #12]

  if (HAL_RCC_ClockConfig(&RCC_ClkInitStruct, FLASH_LATENCY_2) != HAL_OK)
 8000518:	1d3b      	adds	r3, r7, #4
 800051a:	2102      	movs	r1, #2
 800051c:	0018      	movs	r0, r3
 800051e:	f005 faab 	bl	8005a78 <HAL_RCC_ClockConfig>
 8000522:	1e03      	subs	r3, r0, #0
 8000524:	d001      	beq.n	800052a <SystemClock_Config+0xc2>
  {
    Error_Handler();
 8000526:	f000 f807 	bl	8000538 <Error_Handler>
  }
}
 800052a:	46c0      	nop			; (mov r8, r8)
 800052c:	46bd      	mov	sp, r7
 800052e:	b013      	add	sp, #76	; 0x4c
 8000530:	bd90      	pop	{r4, r7, pc}
 8000532:	46c0      	nop			; (mov r8, r8)
 8000534:	40021000 	.word	0x40021000

08000538 <Error_Handler>:
/**
  * @brief  This function is executed in case of error occurrence.
  * @retval None
  */
void Error_Handler(void)
{
 8000538:	b580      	push	{r7, lr}
 800053a:	af00      	add	r7, sp, #0
  \details Disables IRQ interrupts by setting the I-bit in the CPSR.
           Can only be executed in Privileged modes.
 */
__STATIC_FORCEINLINE void __disable_irq(void)
{
  __ASM volatile ("cpsid i" : : : "memory");
 800053c:	b672      	cpsid	i
}
 800053e:	46c0      	nop			; (mov r8, r8)
  /* USER CODE BEGIN Error_Handler_Debug */
  /* User can add his own implementation to report the HAL error return state */
  __disable_irq();
  while (1)
 8000540:	e7fe      	b.n	8000540 <Error_Handler+0x8>

08000542 <RS485_DE_Enable>:
static nmbs_callbacks callbacks;

static uint32_t uid_32bit = 0;
static uint16_t fw_version = 0x0100; // 1.0.0

static void RS485_DE_Enable(void) {
 8000542:	b580      	push	{r7, lr}
 8000544:	af00      	add	r7, sp, #0
    HAL_GPIO_WritePin(GPIOA, GPIO_PIN_1, GPIO_PIN_SET);
 8000546:	23a0      	movs	r3, #160	; 0xa0
 8000548:	05db      	lsls	r3, r3, #23
 800054a:	2201      	movs	r2, #1
 800054c:	2102      	movs	r1, #2
 800054e:	0018      	movs	r0, r3
 8000550:	f004 ff0a 	bl	8005368 <HAL_GPIO_WritePin>
}
 8000554:	46c0      	nop			; (mov r8, r8)
 8000556:	46bd      	mov	sp, r7
 8000558:	bd80      	pop	{r7, pc}

0800055a <RS485_DE_Disable>:

static void RS485_DE_Disable(void) {
 800055a:	b580      	push	{r7, lr}
 800055c:	af00      	add	r7, sp, #0
    HAL_GPIO_WritePin(GPIOA, GPIO_PIN_1, GPIO_PIN_RESET);
 800055e:	23a0      	movs	r3, #160	; 0xa0
 8000560:	05db      	lsls	r3, r3, #23
 8000562:	2200      	movs	r2, #0
 8000564:	2102      	movs	r1, #2
 8000566:	0018      	movs	r0, r3
 8000568:	f004 fefe 	bl	8005368 <HAL_GPIO_WritePin>
}
 800056c:	46c0      	nop			; (mov r8, r8)
 800056e:	46bd      	mov	sp, r7
 8000570:	bd80      	pop	{r7, pc}
	...

08000574 <platform_read>:

// nanoMODBUS Platform Callbacks
static int32_t platform_read(uint8_t* buf, uint16_t count, int32_t byte_timeout_ms, void* arg) {
 8000574:	b590      	push	{r4, r7, lr}
 8000576:	b087      	sub	sp, #28
 8000578:	af00      	add	r7, sp, #0
 800057a:	60f8      	str	r0, [r7, #12]
 800057c:	607a      	str	r2, [r7, #4]
 800057e:	603b      	str	r3, [r7, #0]
 8000580:	230a      	movs	r3, #10
 8000582:	18fb      	adds	r3, r7, r3
 8000584:	1c0a      	adds	r2, r1, #0
 8000586:	801a      	strh	r2, [r3, #0]
    uint16_t bytes_read = 0;
 8000588:	2316      	movs	r3, #22
 800058a:	18fb      	adds	r3, r7, r3
 800058c:	2200      	movs	r2, #0
 800058e:	801a      	strh	r2, [r3, #0]
    uint32_t start_time = HAL_GetTick();
 8000590:	f004 fba4 	bl	8004cdc <HAL_GetTick>
 8000594:	0003      	movs	r3, r0
 8000596:	613b      	str	r3, [r7, #16]

    while (bytes_read < count) {
 8000598:	e03e      	b.n	8000618 <platform_read+0xa4>
        if (rx_head != rx_tail) {
 800059a:	4b28      	ldr	r3, [pc, #160]	; (800063c <platform_read+0xc8>)
 800059c:	881b      	ldrh	r3, [r3, #0]
 800059e:	b29a      	uxth	r2, r3
 80005a0:	4b27      	ldr	r3, [pc, #156]	; (8000640 <platform_read+0xcc>)
 80005a2:	881b      	ldrh	r3, [r3, #0]
 80005a4:	b29b      	uxth	r3, r3
 80005a6:	429a      	cmp	r2, r3
 80005a8:	d022      	beq.n	80005f0 <platform_read+0x7c>
            buf[bytes_read++] = rx_buffer[rx_tail];
 80005aa:	4b25      	ldr	r3, [pc, #148]	; (8000640 <platform_read+0xcc>)
 80005ac:	881b      	ldrh	r3, [r3, #0]
 80005ae:	b29b      	uxth	r3, r3
 80005b0:	0019      	movs	r1, r3
 80005b2:	2216      	movs	r2, #22
 80005b4:	18bb      	adds	r3, r7, r2
 80005b6:	881b      	ldrh	r3, [r3, #0]
 80005b8:	18ba      	adds	r2, r7, r2
 80005ba:	1c58      	adds	r0, r3, #1
 80005bc:	8010      	strh	r0, [r2, #0]
 80005be:	001a      	movs	r2, r3
 80005c0:	68fb      	ldr	r3, [r7, #12]
 80005c2:	189b      	adds	r3, r3, r2
 80005c4:	4a1f      	ldr	r2, [pc, #124]	; (8000644 <platform_read+0xd0>)
 80005c6:	5c52      	ldrb	r2, [r2, r1]
 80005c8:	701a      	strb	r2, [r3, #0]
            rx_tail = (rx_tail + 1) % RX_BUFFER_SIZE;
 80005ca:	4b1d      	ldr	r3, [pc, #116]	; (8000640 <platform_read+0xcc>)
 80005cc:	881b      	ldrh	r3, [r3, #0]
 80005ce:	b29b      	uxth	r3, r3
 80005d0:	3301      	adds	r3, #1
 80005d2:	4a1d      	ldr	r2, [pc, #116]	; (8000648 <platform_read+0xd4>)
 80005d4:	4013      	ands	r3, r2
 80005d6:	d503      	bpl.n	80005e0 <platform_read+0x6c>
 80005d8:	3b01      	subs	r3, #1
 80005da:	4a1c      	ldr	r2, [pc, #112]	; (800064c <platform_read+0xd8>)
 80005dc:	4313      	orrs	r3, r2
 80005de:	3301      	adds	r3, #1
 80005e0:	b29a      	uxth	r2, r3
 80005e2:	4b17      	ldr	r3, [pc, #92]	; (8000640 <platform_read+0xcc>)
 80005e4:	801a      	strh	r2, [r3, #0]
            start_time = HAL_GetTick(); // Reset timeout on successful byte read
 80005e6:	f004 fb79 	bl	8004cdc <HAL_GetTick>
 80005ea:	0003      	movs	r3, r0
 80005ec:	613b      	str	r3, [r7, #16]
 80005ee:	e013      	b.n	8000618 <platform_read+0xa4>
 80005f0:	2416      	movs	r4, #22
 80005f2:	193b      	adds	r3, r7, r4
 80005f4:	193a      	adds	r2, r7, r4
 80005f6:	8812      	ldrh	r2, [r2, #0]
 80005f8:	801a      	strh	r2, [r3, #0]
        } else {
            if (byte_timeout_ms >= 0 && (HAL_GetTick() - start_time) > (uint32_t)byte_timeout_ms) {
 80005fa:	687b      	ldr	r3, [r7, #4]
 80005fc:	2b00      	cmp	r3, #0
 80005fe:	db0b      	blt.n	8000618 <platform_read+0xa4>
 8000600:	f004 fb6c 	bl	8004cdc <HAL_GetTick>
 8000604:	0002      	movs	r2, r0
 8000606:	693b      	ldr	r3, [r7, #16]
 8000608:	1ad2      	subs	r2, r2, r3
 800060a:	687b      	ldr	r3, [r7, #4]
 800060c:	1939      	adds	r1, r7, r4
 800060e:	1938      	adds	r0, r7, r4
 8000610:	8800      	ldrh	r0, [r0, #0]
 8000612:	8008      	strh	r0, [r1, #0]
 8000614:	429a      	cmp	r2, r3
 8000616:	d808      	bhi.n	800062a <platform_read+0xb6>
    while (bytes_read < count) {
 8000618:	2316      	movs	r3, #22
 800061a:	18fa      	adds	r2, r7, r3
 800061c:	230a      	movs	r3, #10
 800061e:	18fb      	adds	r3, r7, r3
 8000620:	8812      	ldrh	r2, [r2, #0]
 8000622:	881b      	ldrh	r3, [r3, #0]
 8000624:	429a      	cmp	r2, r3
 8000626:	d3b8      	bcc.n	800059a <platform_read+0x26>
 8000628:	e000      	b.n	800062c <platform_read+0xb8>
                break; // Timeout
 800062a:	46c0      	nop			; (mov r8, r8)
            }
        }
    }
    return bytes_read;
 800062c:	2316      	movs	r3, #22
 800062e:	18fb      	adds	r3, r7, r3
 8000630:	881b      	ldrh	r3, [r3, #0]
}
 8000632:	0018      	movs	r0, r3
 8000634:	46bd      	mov	sp, r7
 8000636:	b007      	add	sp, #28
 8000638:	bd90      	pop	{r4, r7, pc}
 800063a:	46c0      	nop			; (mov r8, r8)
 800063c:	2000012c 	.word	0x2000012c
 8000640:	2000012e 	.word	0x2000012e
 8000644:	2000002c 	.word	0x2000002c
 8000648:	800000ff 	.word	0x800000ff
 800064c:	ffffff00 	.word	0xffffff00

08000650 <platform_write>:

static int32_t platform_write(const uint8_t* buf, uint16_t count, int32_t byte_timeout_ms, void* arg) {
 8000650:	b5f0      	push	{r4, r5, r6, r7, lr}
 8000652:	b087      	sub	sp, #28
 8000654:	af00      	add	r7, sp, #0
 8000656:	60f8      	str	r0, [r7, #12]
 8000658:	607a      	str	r2, [r7, #4]
 800065a:	603b      	str	r3, [r7, #0]
 800065c:	240a      	movs	r4, #10
 800065e:	193b      	adds	r3, r7, r4
 8000660:	1c0a      	adds	r2, r1, #0
 8000662:	801a      	strh	r2, [r3, #0]
    RS485_DE_Enable();
 8000664:	f7ff ff6d 	bl	8000542 <RS485_DE_Enable>
    HAL_StatusTypeDef status = HAL_UART_Transmit(&huart2, (uint8_t*)buf, count, byte_timeout_ms > 0 ? byte_timeout_ms * count : HAL_MAX_DELAY);
 8000668:	687b      	ldr	r3, [r7, #4]
 800066a:	2b00      	cmp	r3, #0
 800066c:	dd05      	ble.n	800067a <platform_write+0x2a>
 800066e:	193b      	adds	r3, r7, r4
 8000670:	881b      	ldrh	r3, [r3, #0]
 8000672:	687a      	ldr	r2, [r7, #4]
 8000674:	4353      	muls	r3, r2
 8000676:	001a      	movs	r2, r3
 8000678:	e001      	b.n	800067e <platform_write+0x2e>
 800067a:	2301      	movs	r3, #1
 800067c:	425a      	negs	r2, r3
 800067e:	2617      	movs	r6, #23
 8000680:	19bc      	adds	r4, r7, r6
 8000682:	230a      	movs	r3, #10
 8000684:	18fb      	adds	r3, r7, r3
 8000686:	881d      	ldrh	r5, [r3, #0]
 8000688:	68f9      	ldr	r1, [r7, #12]
 800068a:	480b      	ldr	r0, [pc, #44]	; (80006b8 <platform_write+0x68>)
 800068c:	0013      	movs	r3, r2
 800068e:	002a      	movs	r2, r5
 8000690:	f005 ffc8 	bl	8006624 <HAL_UART_Transmit>
 8000694:	0003      	movs	r3, r0
 8000696:	7023      	strb	r3, [r4, #0]
    RS485_DE_Disable();
 8000698:	f7ff ff5f 	bl	800055a <RS485_DE_Disable>
    return (status == HAL_OK) ? count : -1;
 800069c:	19bb      	adds	r3, r7, r6
 800069e:	781b      	ldrb	r3, [r3, #0]
 80006a0:	2b00      	cmp	r3, #0
 80006a2:	d103      	bne.n	80006ac <platform_write+0x5c>
 80006a4:	230a      	movs	r3, #10
 80006a6:	18fb      	adds	r3, r7, r3
 80006a8:	881b      	ldrh	r3, [r3, #0]
 80006aa:	e001      	b.n	80006b0 <platform_write+0x60>
 80006ac:	2301      	movs	r3, #1
 80006ae:	425b      	negs	r3, r3
}
 80006b0:	0018      	movs	r0, r3
 80006b2:	46bd      	mov	sp, r7
 80006b4:	b007      	add	sp, #28
 80006b6:	bdf0      	pop	{r4, r5, r6, r7, pc}
 80006b8:	200003b8 	.word	0x200003b8

080006bc <read_holding_registers>:

// nanoMODBUS Register Callbacks
static nmbs_error read_holding_registers(uint16_t address, uint16_t quantity, uint16_t* registers_out, uint8_t unit_id, void* arg) {
 80006bc:	b590      	push	{r4, r7, lr}
 80006be:	b087      	sub	sp, #28
 80006c0:	af00      	add	r7, sp, #0
 80006c2:	0004      	movs	r4, r0
 80006c4:	0008      	movs	r0, r1
 80006c6:	60ba      	str	r2, [r7, #8]
 80006c8:	0019      	movs	r1, r3
 80006ca:	230e      	movs	r3, #14
 80006cc:	18fb      	adds	r3, r7, r3
 80006ce:	1c22      	adds	r2, r4, #0
 80006d0:	801a      	strh	r2, [r3, #0]
 80006d2:	230c      	movs	r3, #12
 80006d4:	18fb      	adds	r3, r7, r3
 80006d6:	1c02      	adds	r2, r0, #0
 80006d8:	801a      	strh	r2, [r3, #0]
 80006da:	1dfb      	adds	r3, r7, #7
 80006dc:	1c0a      	adds	r2, r1, #0
 80006de:	701a      	strb	r2, [r3, #0]
    for (uint16_t i = 0; i < quantity; i++) {
 80006e0:	2316      	movs	r3, #22
 80006e2:	18fb      	adds	r3, r7, r3
 80006e4:	2200      	movs	r2, #0
 80006e6:	801a      	strh	r2, [r3, #0]
 80006e8:	e03f      	b.n	800076a <read_holding_registers+0xae>
        uint16_t addr = address + i;
 80006ea:	2014      	movs	r0, #20
 80006ec:	183b      	adds	r3, r7, r0
 80006ee:	220e      	movs	r2, #14
 80006f0:	18b9      	adds	r1, r7, r2
 80006f2:	2416      	movs	r4, #22
 80006f4:	193a      	adds	r2, r7, r4
 80006f6:	8809      	ldrh	r1, [r1, #0]
 80006f8:	8812      	ldrh	r2, [r2, #0]
 80006fa:	188a      	adds	r2, r1, r2
 80006fc:	801a      	strh	r2, [r3, #0]
        
        // Old mapping (from stage 1) + New mapping for Holding Regs
        if (addr == 0x0000) {
 80006fe:	183b      	adds	r3, r7, r0
 8000700:	881b      	ldrh	r3, [r3, #0]
 8000702:	2b00      	cmp	r3, #0
 8000704:	d108      	bne.n	8000718 <read_holding_registers+0x5c>
            registers_out[i] = fw_version; // Temporarily kept here for compatibility
 8000706:	193b      	adds	r3, r7, r4
 8000708:	881b      	ldrh	r3, [r3, #0]
 800070a:	005b      	lsls	r3, r3, #1
 800070c:	68ba      	ldr	r2, [r7, #8]
 800070e:	18d3      	adds	r3, r2, r3
 8000710:	4a1c      	ldr	r2, [pc, #112]	; (8000784 <read_holding_registers+0xc8>)
 8000712:	8812      	ldrh	r2, [r2, #0]
 8000714:	801a      	strh	r2, [r3, #0]
 8000716:	e022      	b.n	800075e <read_holding_registers+0xa2>
        } else if (addr == 0x0001) {
 8000718:	2314      	movs	r3, #20
 800071a:	18fb      	adds	r3, r7, r3
 800071c:	881b      	ldrh	r3, [r3, #0]
 800071e:	2b01      	cmp	r3, #1
 8000720:	d10b      	bne.n	800073a <read_holding_registers+0x7e>
            registers_out[i] = (uid_32bit >> 16) & 0xFFFF; // Serial HI
 8000722:	4b19      	ldr	r3, [pc, #100]	; (8000788 <read_holding_registers+0xcc>)
 8000724:	681b      	ldr	r3, [r3, #0]
 8000726:	0c19      	lsrs	r1, r3, #16
 8000728:	2316      	movs	r3, #22
 800072a:	18fb      	adds	r3, r7, r3
 800072c:	881b      	ldrh	r3, [r3, #0]
 800072e:	005b      	lsls	r3, r3, #1
 8000730:	68ba      	ldr	r2, [r7, #8]
 8000732:	18d3      	adds	r3, r2, r3
 8000734:	b28a      	uxth	r2, r1
 8000736:	801a      	strh	r2, [r3, #0]
 8000738:	e011      	b.n	800075e <read_holding_registers+0xa2>
        } else if (addr == 0x0002) {
 800073a:	2314      	movs	r3, #20
 800073c:	18fb      	adds	r3, r7, r3
 800073e:	881b      	ldrh	r3, [r3, #0]
 8000740:	2b02      	cmp	r3, #2
 8000742:	d10a      	bne.n	800075a <read_holding_registers+0x9e>
            registers_out[i] = uid_32bit & 0xFFFF; // Serial LO
 8000744:	4b10      	ldr	r3, [pc, #64]	; (8000788 <read_holding_registers+0xcc>)
 8000746:	6819      	ldr	r1, [r3, #0]
 8000748:	2316      	movs	r3, #22
 800074a:	18fb      	adds	r3, r7, r3
 800074c:	881b      	ldrh	r3, [r3, #0]
 800074e:	005b      	lsls	r3, r3, #1
 8000750:	68ba      	ldr	r2, [r7, #8]
 8000752:	18d3      	adds	r3, r2, r3
 8000754:	b28a      	uxth	r2, r1
 8000756:	801a      	strh	r2, [r3, #0]
 8000758:	e001      	b.n	800075e <read_holding_registers+0xa2>
        } else {
            return NMBS_EXCEPTION_ILLEGAL_DATA_ADDRESS;
 800075a:	2302      	movs	r3, #2
 800075c:	e00e      	b.n	800077c <read_holding_registers+0xc0>
    for (uint16_t i = 0; i < quantity; i++) {
 800075e:	2116      	movs	r1, #22
 8000760:	187b      	adds	r3, r7, r1
 8000762:	881a      	ldrh	r2, [r3, #0]
 8000764:	187b      	adds	r3, r7, r1
 8000766:	3201      	adds	r2, #1
 8000768:	801a      	strh	r2, [r3, #0]
 800076a:	2316      	movs	r3, #22
 800076c:	18fa      	adds	r2, r7, r3
 800076e:	230c      	movs	r3, #12
 8000770:	18fb      	adds	r3, r7, r3
 8000772:	8812      	ldrh	r2, [r2, #0]
 8000774:	881b      	ldrh	r3, [r3, #0]
 8000776:	429a      	cmp	r2, r3
 8000778:	d3b7      	bcc.n	80006ea <read_holding_registers+0x2e>
        }
    }
    return NMBS_ERROR_NONE;
 800077a:	2300      	movs	r3, #0
}
 800077c:	0018      	movs	r0, r3
 800077e:	46bd      	mov	sp, r7
 8000780:	b007      	add	sp, #28
 8000782:	bd90      	pop	{r4, r7, pc}
 8000784:	20000000 	.word	0x20000000
 8000788:	200002f4 	.word	0x200002f4

0800078c <read_input_registers>:

static nmbs_error read_input_registers(uint16_t address, uint16_t quantity, uint16_t* registers_out, uint8_t unit_id, void* arg) {
 800078c:	b590      	push	{r4, r7, lr}
 800078e:	b087      	sub	sp, #28
 8000790:	af00      	add	r7, sp, #0
 8000792:	0004      	movs	r4, r0
 8000794:	0008      	movs	r0, r1
 8000796:	60ba      	str	r2, [r7, #8]
 8000798:	0019      	movs	r1, r3
 800079a:	230e      	movs	r3, #14
 800079c:	18fb      	adds	r3, r7, r3
 800079e:	1c22      	adds	r2, r4, #0
 80007a0:	801a      	strh	r2, [r3, #0]
 80007a2:	230c      	movs	r3, #12
 80007a4:	18fb      	adds	r3, r7, r3
 80007a6:	1c02      	adds	r2, r0, #0
 80007a8:	801a      	strh	r2, [r3, #0]
 80007aa:	1dfb      	adds	r3, r7, #7
 80007ac:	1c0a      	adds	r2, r1, #0
 80007ae:	701a      	strb	r2, [r3, #0]
    for (uint16_t i = 0; i < quantity; i++) {
 80007b0:	2316      	movs	r3, #22
 80007b2:	18fb      	adds	r3, r7, r3
 80007b4:	2200      	movs	r2, #0
 80007b6:	801a      	strh	r2, [r3, #0]
 80007b8:	e03a      	b.n	8000830 <read_input_registers+0xa4>
        uint16_t addr = address + i;
 80007ba:	2014      	movs	r0, #20
 80007bc:	183b      	adds	r3, r7, r0
 80007be:	220e      	movs	r2, #14
 80007c0:	18b9      	adds	r1, r7, r2
 80007c2:	2216      	movs	r2, #22
 80007c4:	18ba      	adds	r2, r7, r2
 80007c6:	8809      	ldrh	r1, [r1, #0]
 80007c8:	8812      	ldrh	r2, [r2, #0]
 80007ca:	188a      	adds	r2, r1, r2
 80007cc:	801a      	strh	r2, [r3, #0]
        
        // Stub implementations for the future modbus_reg.md map
        switch(addr) {
 80007ce:	183b      	adds	r3, r7, r0
 80007d0:	881b      	ldrh	r3, [r3, #0]
 80007d2:	2b08      	cmp	r3, #8
 80007d4:	d01b      	beq.n	800080e <read_input_registers+0x82>
 80007d6:	dc23      	bgt.n	8000820 <read_input_registers+0x94>
 80007d8:	2b06      	cmp	r3, #6
 80007da:	dc02      	bgt.n	80007e2 <read_input_registers+0x56>
 80007dc:	2b00      	cmp	r3, #0
 80007de:	da03      	bge.n	80007e8 <read_input_registers+0x5c>
 80007e0:	e01e      	b.n	8000820 <read_input_registers+0x94>
 80007e2:	2b07      	cmp	r3, #7
 80007e4:	d009      	beq.n	80007fa <read_input_registers+0x6e>
 80007e6:	e01b      	b.n	8000820 <read_input_registers+0x94>
            case 0x0002: // Instantaneous Power
            case 0x0003: // Accumulated Energy MSW
            case 0x0004: // Accumulated Energy LSW
            case 0x0005: // Device Uptime MSW
            case 0x0006: // Device Uptime LSW
                registers_out[i] = 0; // Stubs for next stage
 80007e8:	2316      	movs	r3, #22
 80007ea:	18fb      	adds	r3, r7, r3
 80007ec:	881b      	ldrh	r3, [r3, #0]
 80007ee:	005b      	lsls	r3, r3, #1
 80007f0:	68ba      	ldr	r2, [r7, #8]
 80007f2:	18d3      	adds	r3, r2, r3
 80007f4:	2200      	movs	r2, #0
 80007f6:	801a      	strh	r2, [r3, #0]
                break;
 80007f8:	e014      	b.n	8000824 <read_input_registers+0x98>
            case 0x0007: // Firmware Version
                registers_out[i] = fw_version;
 80007fa:	2316      	movs	r3, #22
 80007fc:	18fb      	adds	r3, r7, r3
 80007fe:	881b      	ldrh	r3, [r3, #0]
 8000800:	005b      	lsls	r3, r3, #1
 8000802:	68ba      	ldr	r2, [r7, #8]
 8000804:	18d3      	adds	r3, r2, r3
 8000806:	4a11      	ldr	r2, [pc, #68]	; (800084c <read_input_registers+0xc0>)
 8000808:	8812      	ldrh	r2, [r2, #0]
 800080a:	801a      	strh	r2, [r3, #0]
                break;
 800080c:	e00a      	b.n	8000824 <read_input_registers+0x98>
            case 0x0008: // Last Reset Cause
                registers_out[i] = 1; // 1 = POR
 800080e:	2316      	movs	r3, #22
 8000810:	18fb      	adds	r3, r7, r3
 8000812:	881b      	ldrh	r3, [r3, #0]
 8000814:	005b      	lsls	r3, r3, #1
 8000816:	68ba      	ldr	r2, [r7, #8]
 8000818:	18d3      	adds	r3, r2, r3
 800081a:	2201      	movs	r2, #1
 800081c:	801a      	strh	r2, [r3, #0]
                break;
 800081e:	e001      	b.n	8000824 <read_input_registers+0x98>
            default:
                return NMBS_EXCEPTION_ILLEGAL_DATA_ADDRESS;
 8000820:	2302      	movs	r3, #2
 8000822:	e00e      	b.n	8000842 <read_input_registers+0xb6>
    for (uint16_t i = 0; i < quantity; i++) {
 8000824:	2116      	movs	r1, #22
 8000826:	187b      	adds	r3, r7, r1
 8000828:	881a      	ldrh	r2, [r3, #0]
 800082a:	187b      	adds	r3, r7, r1
 800082c:	3201      	adds	r2, #1
 800082e:	801a      	strh	r2, [r3, #0]
 8000830:	2316      	movs	r3, #22
 8000832:	18fa      	adds	r2, r7, r3
 8000834:	230c      	movs	r3, #12
 8000836:	18fb      	adds	r3, r7, r3
 8000838:	8812      	ldrh	r2, [r2, #0]
 800083a:	881b      	ldrh	r3, [r3, #0]
 800083c:	429a      	cmp	r2, r3
 800083e:	d3bc      	bcc.n	80007ba <read_input_registers+0x2e>
        }
    }
    return NMBS_ERROR_NONE;
 8000840:	2300      	movs	r3, #0
}
 8000842:	0018      	movs	r0, r3
 8000844:	46bd      	mov	sp, r7
 8000846:	b007      	add	sp, #28
 8000848:	bd90      	pop	{r4, r7, pc}
 800084a:	46c0      	nop			; (mov r8, r8)
 800084c:	20000000 	.word	0x20000000

08000850 <Modbus_Init>:

void Modbus_Init(void) {
 8000850:	b580      	push	{r7, lr}
 8000852:	b084      	sub	sp, #16
 8000854:	af00      	add	r7, sp, #0
    // Squeeze 96-bit UID into 32-bit (XORing the 3 words)
    uint32_t uid0 = HAL_GetUIDw0();
 8000856:	f004 fa4b 	bl	8004cf0 <HAL_GetUIDw0>
 800085a:	0003      	movs	r3, r0
 800085c:	60fb      	str	r3, [r7, #12]
    uint32_t uid1 = HAL_GetUIDw1();
 800085e:	f004 fa51 	bl	8004d04 <HAL_GetUIDw1>
 8000862:	0003      	movs	r3, r0
 8000864:	60bb      	str	r3, [r7, #8]
    uint32_t uid2 = HAL_GetUIDw2();
 8000866:	f004 fa57 	bl	8004d18 <HAL_GetUIDw2>
 800086a:	0003      	movs	r3, r0
 800086c:	607b      	str	r3, [r7, #4]
    uid_32bit = uid0 ^ uid1 ^ uid2;
 800086e:	68fa      	ldr	r2, [r7, #12]
 8000870:	68bb      	ldr	r3, [r7, #8]
 8000872:	405a      	eors	r2, r3
 8000874:	687b      	ldr	r3, [r7, #4]
 8000876:	405a      	eors	r2, r3
 8000878:	4b21      	ldr	r3, [pc, #132]	; (8000900 <Modbus_Init+0xb0>)
 800087a:	601a      	str	r2, [r3, #0]

    RS485_DE_Disable();
 800087c:	f7ff fe6d 	bl	800055a <RS485_DE_Disable>

    // Disable hardware RTO (Receiver Timeout) as nanoMODBUS handles timing
    __HAL_UART_DISABLE_IT(&huart2, UART_IT_RTO);
 8000880:	4b20      	ldr	r3, [pc, #128]	; (8000904 <Modbus_Init+0xb4>)
 8000882:	681b      	ldr	r3, [r3, #0]
 8000884:	681a      	ldr	r2, [r3, #0]
 8000886:	4b1f      	ldr	r3, [pc, #124]	; (8000904 <Modbus_Init+0xb4>)
 8000888:	681b      	ldr	r3, [r3, #0]
 800088a:	491f      	ldr	r1, [pc, #124]	; (8000908 <Modbus_Init+0xb8>)
 800088c:	400a      	ands	r2, r1
 800088e:	601a      	str	r2, [r3, #0]
    
    // Enable RXNE interrupt
    __HAL_UART_ENABLE_IT(&huart2, UART_IT_RXNE);
 8000890:	4b1c      	ldr	r3, [pc, #112]	; (8000904 <Modbus_Init+0xb4>)
 8000892:	681b      	ldr	r3, [r3, #0]
 8000894:	681a      	ldr	r2, [r3, #0]
 8000896:	4b1b      	ldr	r3, [pc, #108]	; (8000904 <Modbus_Init+0xb4>)
 8000898:	681b      	ldr	r3, [r3, #0]
 800089a:	2120      	movs	r1, #32
 800089c:	430a      	orrs	r2, r1
 800089e:	601a      	str	r2, [r3, #0]

    // Initialize nanoMODBUS platform conf
    nmbs_platform_conf_create(&platform_conf);
 80008a0:	4b1a      	ldr	r3, [pc, #104]	; (800090c <Modbus_Init+0xbc>)
 80008a2:	0018      	movs	r0, r3
 80008a4:	f000 fb74 	bl	8000f90 <nmbs_platform_conf_create>
    platform_conf.transport = NMBS_TRANSPORT_RTU;
 80008a8:	4b18      	ldr	r3, [pc, #96]	; (800090c <Modbus_Init+0xbc>)
 80008aa:	2201      	movs	r2, #1
 80008ac:	701a      	strb	r2, [r3, #0]
    platform_conf.read = platform_read;
 80008ae:	4b17      	ldr	r3, [pc, #92]	; (800090c <Modbus_Init+0xbc>)
 80008b0:	4a17      	ldr	r2, [pc, #92]	; (8000910 <Modbus_Init+0xc0>)
 80008b2:	605a      	str	r2, [r3, #4]
    platform_conf.write = platform_write;
 80008b4:	4b15      	ldr	r3, [pc, #84]	; (800090c <Modbus_Init+0xbc>)
 80008b6:	4a17      	ldr	r2, [pc, #92]	; (8000914 <Modbus_Init+0xc4>)
 80008b8:	609a      	str	r2, [r3, #8]
    platform_conf.arg = NULL;
 80008ba:	4b14      	ldr	r3, [pc, #80]	; (800090c <Modbus_Init+0xbc>)
 80008bc:	2200      	movs	r2, #0
 80008be:	615a      	str	r2, [r3, #20]

    // Initialize nanoMODBUS callbacks
    nmbs_callbacks_create(&callbacks);
 80008c0:	4b15      	ldr	r3, [pc, #84]	; (8000918 <Modbus_Init+0xc8>)
 80008c2:	0018      	movs	r0, r3
 80008c4:	f003 fe8a 	bl	80045dc <nmbs_callbacks_create>
    callbacks.read_holding_registers = read_holding_registers;
 80008c8:	4b13      	ldr	r3, [pc, #76]	; (8000918 <Modbus_Init+0xc8>)
 80008ca:	4a14      	ldr	r2, [pc, #80]	; (800091c <Modbus_Init+0xcc>)
 80008cc:	609a      	str	r2, [r3, #8]
    callbacks.read_input_registers = read_input_registers;
 80008ce:	4b12      	ldr	r3, [pc, #72]	; (8000918 <Modbus_Init+0xc8>)
 80008d0:	4a13      	ldr	r2, [pc, #76]	; (8000920 <Modbus_Init+0xd0>)
 80008d2:	60da      	str	r2, [r3, #12]

    // Create nanoMODBUS instance
    nmbs_server_create(&nmbs, MODBUS_DEFAULT_SLAVE_ID, &platform_conf, &callbacks);
 80008d4:	4b10      	ldr	r3, [pc, #64]	; (8000918 <Modbus_Init+0xc8>)
 80008d6:	4a0d      	ldr	r2, [pc, #52]	; (800090c <Modbus_Init+0xbc>)
 80008d8:	4812      	ldr	r0, [pc, #72]	; (8000924 <Modbus_Init+0xd4>)
 80008da:	2101      	movs	r1, #1
 80008dc:	f003 fe92 	bl	8004604 <nmbs_server_create>
    nmbs_set_read_timeout(&nmbs, 3000); // 100ms timeout
 80008e0:	4a11      	ldr	r2, [pc, #68]	; (8000928 <Modbus_Init+0xd8>)
 80008e2:	4b10      	ldr	r3, [pc, #64]	; (8000924 <Modbus_Init+0xd4>)
 80008e4:	0011      	movs	r1, r2
 80008e6:	0018      	movs	r0, r3
 80008e8:	f000 fb36 	bl	8000f58 <nmbs_set_read_timeout>
    nmbs_set_byte_timeout(&nmbs, 20);  // 20ms byte timeout (modbus inter-character timeout)
 80008ec:	4b0d      	ldr	r3, [pc, #52]	; (8000924 <Modbus_Init+0xd4>)
 80008ee:	2114      	movs	r1, #20
 80008f0:	0018      	movs	r0, r3
 80008f2:	f000 fb3f 	bl	8000f74 <nmbs_set_byte_timeout>
}
 80008f6:	46c0      	nop			; (mov r8, r8)
 80008f8:	46bd      	mov	sp, r7
 80008fa:	b004      	add	sp, #16
 80008fc:	bd80      	pop	{r7, pc}
 80008fe:	46c0      	nop			; (mov r8, r8)
 8000900:	200002f4 	.word	0x200002f4
 8000904:	200003b8 	.word	0x200003b8
 8000908:	fbffffff 	.word	0xfbffffff
 800090c:	200002a0 	.word	0x200002a0
 8000910:	08000575 	.word	0x08000575
 8000914:	08000651 	.word	0x08000651
 8000918:	200002bc 	.word	0x200002bc
 800091c:	080006bd 	.word	0x080006bd
 8000920:	0800078d 	.word	0x0800078d
 8000924:	20000130 	.word	0x20000130
 8000928:	00000bb8 	.word	0x00000bb8

0800092c <Modbus_Process>:

void Modbus_Process(void) {
 800092c:	b580      	push	{r7, lr}
 800092e:	af00      	add	r7, sp, #0
    nmbs_server_poll(&nmbs);
 8000930:	4b03      	ldr	r3, [pc, #12]	; (8000940 <Modbus_Process+0x14>)
 8000932:	0018      	movs	r0, r3
 8000934:	f003 feb0 	bl	8004698 <nmbs_server_poll>
}
 8000938:	46c0      	nop			; (mov r8, r8)
 800093a:	46bd      	mov	sp, r7
 800093c:	bd80      	pop	{r7, pc}
 800093e:	46c0      	nop			; (mov r8, r8)
 8000940:	20000130 	.word	0x20000130

08000944 <Modbus_UART_IRQHandler>:

void Modbus_UART_IRQHandler(void) {
 8000944:	b580      	push	{r7, lr}
 8000946:	b082      	sub	sp, #8
 8000948:	af00      	add	r7, sp, #0
    if (__HAL_UART_GET_FLAG(&huart2, UART_FLAG_RXNE) != RESET) {
 800094a:	4b1e      	ldr	r3, [pc, #120]	; (80009c4 <Modbus_UART_IRQHandler+0x80>)
 800094c:	681b      	ldr	r3, [r3, #0]
 800094e:	69db      	ldr	r3, [r3, #28]
 8000950:	2220      	movs	r2, #32
 8000952:	4013      	ands	r3, r2
 8000954:	2b20      	cmp	r3, #32
 8000956:	d125      	bne.n	80009a4 <Modbus_UART_IRQHandler+0x60>
        uint8_t data = (uint8_t)(huart2.Instance->RDR & 0xFF);
 8000958:	4b1a      	ldr	r3, [pc, #104]	; (80009c4 <Modbus_UART_IRQHandler+0x80>)
 800095a:	681b      	ldr	r3, [r3, #0]
 800095c:	6a5a      	ldr	r2, [r3, #36]	; 0x24
 800095e:	1dfb      	adds	r3, r7, #7
 8000960:	701a      	strb	r2, [r3, #0]
        uint16_t next_head = (rx_head + 1) % RX_BUFFER_SIZE;
 8000962:	4b19      	ldr	r3, [pc, #100]	; (80009c8 <Modbus_UART_IRQHandler+0x84>)
 8000964:	881b      	ldrh	r3, [r3, #0]
 8000966:	b29b      	uxth	r3, r3
 8000968:	3301      	adds	r3, #1
 800096a:	4a18      	ldr	r2, [pc, #96]	; (80009cc <Modbus_UART_IRQHandler+0x88>)
 800096c:	4013      	ands	r3, r2
 800096e:	d503      	bpl.n	8000978 <Modbus_UART_IRQHandler+0x34>
 8000970:	3b01      	subs	r3, #1
 8000972:	4a17      	ldr	r2, [pc, #92]	; (80009d0 <Modbus_UART_IRQHandler+0x8c>)
 8000974:	4313      	orrs	r3, r2
 8000976:	3301      	adds	r3, #1
 8000978:	001a      	movs	r2, r3
 800097a:	1d3b      	adds	r3, r7, #4
 800097c:	801a      	strh	r2, [r3, #0]
        if (next_head != rx_tail) {
 800097e:	4b15      	ldr	r3, [pc, #84]	; (80009d4 <Modbus_UART_IRQHandler+0x90>)
 8000980:	881b      	ldrh	r3, [r3, #0]
 8000982:	b29b      	uxth	r3, r3
 8000984:	1d3a      	adds	r2, r7, #4
 8000986:	8812      	ldrh	r2, [r2, #0]
 8000988:	429a      	cmp	r2, r3
 800098a:	d00b      	beq.n	80009a4 <Modbus_UART_IRQHandler+0x60>
            rx_buffer[rx_head] = data;
 800098c:	4b0e      	ldr	r3, [pc, #56]	; (80009c8 <Modbus_UART_IRQHandler+0x84>)
 800098e:	881b      	ldrh	r3, [r3, #0]
 8000990:	b29b      	uxth	r3, r3
 8000992:	0019      	movs	r1, r3
 8000994:	4b10      	ldr	r3, [pc, #64]	; (80009d8 <Modbus_UART_IRQHandler+0x94>)
 8000996:	1dfa      	adds	r2, r7, #7
 8000998:	7812      	ldrb	r2, [r2, #0]
 800099a:	545a      	strb	r2, [r3, r1]
            rx_head = next_head;
 800099c:	4b0a      	ldr	r3, [pc, #40]	; (80009c8 <Modbus_UART_IRQHandler+0x84>)
 800099e:	1d3a      	adds	r2, r7, #4
 80009a0:	8812      	ldrh	r2, [r2, #0]
 80009a2:	801a      	strh	r2, [r3, #0]
        }
    }
    
    // Clear overrun error if it happens
    if (__HAL_UART_GET_FLAG(&huart2, UART_FLAG_ORE) != RESET) {
 80009a4:	4b07      	ldr	r3, [pc, #28]	; (80009c4 <Modbus_UART_IRQHandler+0x80>)
 80009a6:	681b      	ldr	r3, [r3, #0]
 80009a8:	69db      	ldr	r3, [r3, #28]
 80009aa:	2208      	movs	r2, #8
 80009ac:	4013      	ands	r3, r2
 80009ae:	2b08      	cmp	r3, #8
 80009b0:	d103      	bne.n	80009ba <Modbus_UART_IRQHandler+0x76>
        __HAL_UART_CLEAR_FLAG(&huart2, UART_CLEAR_OREF);
 80009b2:	4b04      	ldr	r3, [pc, #16]	; (80009c4 <Modbus_UART_IRQHandler+0x80>)
 80009b4:	681b      	ldr	r3, [r3, #0]
 80009b6:	2208      	movs	r2, #8
 80009b8:	621a      	str	r2, [r3, #32]
    }
}
 80009ba:	46c0      	nop			; (mov r8, r8)
 80009bc:	46bd      	mov	sp, r7
 80009be:	b002      	add	sp, #8
 80009c0:	bd80      	pop	{r7, pc}
 80009c2:	46c0      	nop			; (mov r8, r8)
 80009c4:	200003b8 	.word	0x200003b8
 80009c8:	2000012c 	.word	0x2000012c
 80009cc:	800000ff 	.word	0x800000ff
 80009d0:	ffffff00 	.word	0xffffff00
 80009d4:	2000012e 	.word	0x2000012e
 80009d8:	2000002c 	.word	0x2000002c

080009dc <get_1>:
#else
#define NMBS_DEBUG_PRINT(...) (void) (0)
#endif


static uint8_t get_1(nmbs_t* nmbs) {
 80009dc:	b580      	push	{r7, lr}
 80009de:	b084      	sub	sp, #16
 80009e0:	af00      	add	r7, sp, #0
 80009e2:	6078      	str	r0, [r7, #4]
    uint8_t result = nmbs->msg.buf[nmbs->msg.buf_idx];
 80009e4:	687a      	ldr	r2, [r7, #4]
 80009e6:	2382      	movs	r3, #130	; 0x82
 80009e8:	005b      	lsls	r3, r3, #1
 80009ea:	5ad3      	ldrh	r3, [r2, r3]
 80009ec:	0019      	movs	r1, r3
 80009ee:	200f      	movs	r0, #15
 80009f0:	183b      	adds	r3, r7, r0
 80009f2:	687a      	ldr	r2, [r7, #4]
 80009f4:	5c52      	ldrb	r2, [r2, r1]
 80009f6:	701a      	strb	r2, [r3, #0]
    nmbs->msg.buf_idx++;
 80009f8:	687a      	ldr	r2, [r7, #4]
 80009fa:	2382      	movs	r3, #130	; 0x82
 80009fc:	005b      	lsls	r3, r3, #1
 80009fe:	5ad3      	ldrh	r3, [r2, r3]
 8000a00:	3301      	adds	r3, #1
 8000a02:	b299      	uxth	r1, r3
 8000a04:	687a      	ldr	r2, [r7, #4]
 8000a06:	2382      	movs	r3, #130	; 0x82
 8000a08:	005b      	lsls	r3, r3, #1
 8000a0a:	52d1      	strh	r1, [r2, r3]
    return result;
 8000a0c:	183b      	adds	r3, r7, r0
 8000a0e:	781b      	ldrb	r3, [r3, #0]
}
 8000a10:	0018      	movs	r0, r3
 8000a12:	46bd      	mov	sp, r7
 8000a14:	b004      	add	sp, #16
 8000a16:	bd80      	pop	{r7, pc}

08000a18 <put_1>:


static void put_1(nmbs_t* nmbs, uint8_t data) {
 8000a18:	b580      	push	{r7, lr}
 8000a1a:	b082      	sub	sp, #8
 8000a1c:	af00      	add	r7, sp, #0
 8000a1e:	6078      	str	r0, [r7, #4]
 8000a20:	000a      	movs	r2, r1
 8000a22:	1cfb      	adds	r3, r7, #3
 8000a24:	701a      	strb	r2, [r3, #0]
    nmbs->msg.buf[nmbs->msg.buf_idx] = data;
 8000a26:	687a      	ldr	r2, [r7, #4]
 8000a28:	2382      	movs	r3, #130	; 0x82
 8000a2a:	005b      	lsls	r3, r3, #1
 8000a2c:	5ad3      	ldrh	r3, [r2, r3]
 8000a2e:	0019      	movs	r1, r3
 8000a30:	687b      	ldr	r3, [r7, #4]
 8000a32:	1cfa      	adds	r2, r7, #3
 8000a34:	7812      	ldrb	r2, [r2, #0]
 8000a36:	545a      	strb	r2, [r3, r1]
    nmbs->msg.buf_idx++;
 8000a38:	687a      	ldr	r2, [r7, #4]
 8000a3a:	2382      	movs	r3, #130	; 0x82
 8000a3c:	005b      	lsls	r3, r3, #1
 8000a3e:	5ad3      	ldrh	r3, [r2, r3]
 8000a40:	3301      	adds	r3, #1
 8000a42:	b299      	uxth	r1, r3
 8000a44:	687a      	ldr	r2, [r7, #4]
 8000a46:	2382      	movs	r3, #130	; 0x82
 8000a48:	005b      	lsls	r3, r3, #1
 8000a4a:	52d1      	strh	r1, [r2, r3]
}
 8000a4c:	46c0      	nop			; (mov r8, r8)
 8000a4e:	46bd      	mov	sp, r7
 8000a50:	b002      	add	sp, #8
 8000a52:	bd80      	pop	{r7, pc}

08000a54 <discard_1>:


static void discard_1(nmbs_t* nmbs) {
 8000a54:	b580      	push	{r7, lr}
 8000a56:	b082      	sub	sp, #8
 8000a58:	af00      	add	r7, sp, #0
 8000a5a:	6078      	str	r0, [r7, #4]
    nmbs->msg.buf_idx++;
 8000a5c:	687a      	ldr	r2, [r7, #4]
 8000a5e:	2382      	movs	r3, #130	; 0x82
 8000a60:	005b      	lsls	r3, r3, #1
 8000a62:	5ad3      	ldrh	r3, [r2, r3]
 8000a64:	3301      	adds	r3, #1
 8000a66:	b299      	uxth	r1, r3
 8000a68:	687a      	ldr	r2, [r7, #4]
 8000a6a:	2382      	movs	r3, #130	; 0x82
 8000a6c:	005b      	lsls	r3, r3, #1
 8000a6e:	52d1      	strh	r1, [r2, r3]
}
 8000a70:	46c0      	nop			; (mov r8, r8)
 8000a72:	46bd      	mov	sp, r7
 8000a74:	b002      	add	sp, #8
 8000a76:	bd80      	pop	{r7, pc}

08000a78 <discard_n>:


#ifndef NMBS_SERVER_DISABLED
#if !defined(NMBS_SERVER_READ_FILE_RECORD_DISABLED) || !defined(NMBS_SERVER_WRITE_FILE_RECORD_DISABLED)
static void discard_n(nmbs_t* nmbs, uint16_t n) {
 8000a78:	b580      	push	{r7, lr}
 8000a7a:	b082      	sub	sp, #8
 8000a7c:	af00      	add	r7, sp, #0
 8000a7e:	6078      	str	r0, [r7, #4]
 8000a80:	000a      	movs	r2, r1
 8000a82:	1cbb      	adds	r3, r7, #2
 8000a84:	801a      	strh	r2, [r3, #0]
    nmbs->msg.buf_idx += n;
 8000a86:	687a      	ldr	r2, [r7, #4]
 8000a88:	2382      	movs	r3, #130	; 0x82
 8000a8a:	005b      	lsls	r3, r3, #1
 8000a8c:	5ad2      	ldrh	r2, [r2, r3]
 8000a8e:	1cbb      	adds	r3, r7, #2
 8000a90:	881b      	ldrh	r3, [r3, #0]
 8000a92:	18d3      	adds	r3, r2, r3
 8000a94:	b299      	uxth	r1, r3
 8000a96:	687a      	ldr	r2, [r7, #4]
 8000a98:	2382      	movs	r3, #130	; 0x82
 8000a9a:	005b      	lsls	r3, r3, #1
 8000a9c:	52d1      	strh	r1, [r2, r3]
}
 8000a9e:	46c0      	nop			; (mov r8, r8)
 8000aa0:	46bd      	mov	sp, r7
 8000aa2:	b002      	add	sp, #8
 8000aa4:	bd80      	pop	{r7, pc}

08000aa6 <get_2>:
#endif
#endif


static uint16_t get_2(nmbs_t* nmbs) {
 8000aa6:	b580      	push	{r7, lr}
 8000aa8:	b084      	sub	sp, #16
 8000aaa:	af00      	add	r7, sp, #0
 8000aac:	6078      	str	r0, [r7, #4]
    const uint16_t result =
            ((uint16_t) nmbs->msg.buf[nmbs->msg.buf_idx]) << 8 | (uint16_t) nmbs->msg.buf[nmbs->msg.buf_idx + 1];
 8000aae:	687a      	ldr	r2, [r7, #4]
 8000ab0:	2382      	movs	r3, #130	; 0x82
 8000ab2:	005b      	lsls	r3, r3, #1
 8000ab4:	5ad3      	ldrh	r3, [r2, r3]
 8000ab6:	001a      	movs	r2, r3
 8000ab8:	687b      	ldr	r3, [r7, #4]
 8000aba:	5c9b      	ldrb	r3, [r3, r2]
 8000abc:	021b      	lsls	r3, r3, #8
 8000abe:	b21a      	sxth	r2, r3
 8000ac0:	6879      	ldr	r1, [r7, #4]
 8000ac2:	2382      	movs	r3, #130	; 0x82
 8000ac4:	005b      	lsls	r3, r3, #1
 8000ac6:	5acb      	ldrh	r3, [r1, r3]
 8000ac8:	3301      	adds	r3, #1
 8000aca:	6879      	ldr	r1, [r7, #4]
 8000acc:	5ccb      	ldrb	r3, [r1, r3]
 8000ace:	b21b      	sxth	r3, r3
 8000ad0:	4313      	orrs	r3, r2
 8000ad2:	b21a      	sxth	r2, r3
    const uint16_t result =
 8000ad4:	200e      	movs	r0, #14
 8000ad6:	183b      	adds	r3, r7, r0
 8000ad8:	801a      	strh	r2, [r3, #0]
    nmbs->msg.buf_idx += 2;
 8000ada:	687a      	ldr	r2, [r7, #4]
 8000adc:	2382      	movs	r3, #130	; 0x82
 8000ade:	005b      	lsls	r3, r3, #1
 8000ae0:	5ad3      	ldrh	r3, [r2, r3]
 8000ae2:	3302      	adds	r3, #2
 8000ae4:	b299      	uxth	r1, r3
 8000ae6:	687a      	ldr	r2, [r7, #4]
 8000ae8:	2382      	movs	r3, #130	; 0x82
 8000aea:	005b      	lsls	r3, r3, #1
 8000aec:	52d1      	strh	r1, [r2, r3]
    return result;
 8000aee:	183b      	adds	r3, r7, r0
 8000af0:	881b      	ldrh	r3, [r3, #0]
}
 8000af2:	0018      	movs	r0, r3
 8000af4:	46bd      	mov	sp, r7
 8000af6:	b004      	add	sp, #16
 8000af8:	bd80      	pop	{r7, pc}

08000afa <put_2>:


static void put_2(nmbs_t* nmbs, uint16_t data) {
 8000afa:	b580      	push	{r7, lr}
 8000afc:	b082      	sub	sp, #8
 8000afe:	af00      	add	r7, sp, #0
 8000b00:	6078      	str	r0, [r7, #4]
 8000b02:	000a      	movs	r2, r1
 8000b04:	1cbb      	adds	r3, r7, #2
 8000b06:	801a      	strh	r2, [r3, #0]
    nmbs->msg.buf[nmbs->msg.buf_idx] = (uint8_t) ((data >> 8) & 0xFFU);
 8000b08:	1cbb      	adds	r3, r7, #2
 8000b0a:	881b      	ldrh	r3, [r3, #0]
 8000b0c:	0a1b      	lsrs	r3, r3, #8
 8000b0e:	b299      	uxth	r1, r3
 8000b10:	687a      	ldr	r2, [r7, #4]
 8000b12:	2382      	movs	r3, #130	; 0x82
 8000b14:	005b      	lsls	r3, r3, #1
 8000b16:	5ad3      	ldrh	r3, [r2, r3]
 8000b18:	001a      	movs	r2, r3
 8000b1a:	b2c9      	uxtb	r1, r1
 8000b1c:	687b      	ldr	r3, [r7, #4]
 8000b1e:	5499      	strb	r1, [r3, r2]
    nmbs->msg.buf[nmbs->msg.buf_idx + 1] = (uint8_t) data;
 8000b20:	687a      	ldr	r2, [r7, #4]
 8000b22:	2382      	movs	r3, #130	; 0x82
 8000b24:	005b      	lsls	r3, r3, #1
 8000b26:	5ad3      	ldrh	r3, [r2, r3]
 8000b28:	3301      	adds	r3, #1
 8000b2a:	1cba      	adds	r2, r7, #2
 8000b2c:	8812      	ldrh	r2, [r2, #0]
 8000b2e:	b2d1      	uxtb	r1, r2
 8000b30:	687a      	ldr	r2, [r7, #4]
 8000b32:	54d1      	strb	r1, [r2, r3]
    nmbs->msg.buf_idx += 2;
 8000b34:	687a      	ldr	r2, [r7, #4]
 8000b36:	2382      	movs	r3, #130	; 0x82
 8000b38:	005b      	lsls	r3, r3, #1
 8000b3a:	5ad3      	ldrh	r3, [r2, r3]
 8000b3c:	3302      	adds	r3, #2
 8000b3e:	b299      	uxth	r1, r3
 8000b40:	687a      	ldr	r2, [r7, #4]
 8000b42:	2382      	movs	r3, #130	; 0x82
 8000b44:	005b      	lsls	r3, r3, #1
 8000b46:	52d1      	strh	r1, [r2, r3]
}
 8000b48:	46c0      	nop			; (mov r8, r8)
 8000b4a:	46bd      	mov	sp, r7
 8000b4c:	b002      	add	sp, #8
 8000b4e:	bd80      	pop	{r7, pc}

08000b50 <set_1>:


#ifndef NMBS_SERVER_DISABLED
#ifndef NMBS_SERVER_READ_DEVICE_IDENTIFICATION_DISABLED
static void set_1(nmbs_t* nmbs, uint8_t data, uint8_t index) {
 8000b50:	b580      	push	{r7, lr}
 8000b52:	b082      	sub	sp, #8
 8000b54:	af00      	add	r7, sp, #0
 8000b56:	6078      	str	r0, [r7, #4]
 8000b58:	0008      	movs	r0, r1
 8000b5a:	0011      	movs	r1, r2
 8000b5c:	1cfb      	adds	r3, r7, #3
 8000b5e:	1c02      	adds	r2, r0, #0
 8000b60:	701a      	strb	r2, [r3, #0]
 8000b62:	1cbb      	adds	r3, r7, #2
 8000b64:	1c0a      	adds	r2, r1, #0
 8000b66:	701a      	strb	r2, [r3, #0]
    nmbs->msg.buf[index] = data;
 8000b68:	1cbb      	adds	r3, r7, #2
 8000b6a:	781b      	ldrb	r3, [r3, #0]
 8000b6c:	687a      	ldr	r2, [r7, #4]
 8000b6e:	1cf9      	adds	r1, r7, #3
 8000b70:	7809      	ldrb	r1, [r1, #0]
 8000b72:	54d1      	strb	r1, [r2, r3]
}
 8000b74:	46c0      	nop			; (mov r8, r8)
 8000b76:	46bd      	mov	sp, r7
 8000b78:	b002      	add	sp, #8
 8000b7a:	bd80      	pop	{r7, pc}

08000b7c <set_2>:


static void set_2(nmbs_t* nmbs, uint16_t data, uint8_t index) {
 8000b7c:	b580      	push	{r7, lr}
 8000b7e:	b082      	sub	sp, #8
 8000b80:	af00      	add	r7, sp, #0
 8000b82:	6078      	str	r0, [r7, #4]
 8000b84:	0008      	movs	r0, r1
 8000b86:	0011      	movs	r1, r2
 8000b88:	1cbb      	adds	r3, r7, #2
 8000b8a:	1c02      	adds	r2, r0, #0
 8000b8c:	801a      	strh	r2, [r3, #0]
 8000b8e:	1c7b      	adds	r3, r7, #1
 8000b90:	1c0a      	adds	r2, r1, #0
 8000b92:	701a      	strb	r2, [r3, #0]
    nmbs->msg.buf[index] = (uint8_t) ((data >> 8) & 0xFFU);
 8000b94:	1cbb      	adds	r3, r7, #2
 8000b96:	881b      	ldrh	r3, [r3, #0]
 8000b98:	0a1b      	lsrs	r3, r3, #8
 8000b9a:	b29a      	uxth	r2, r3
 8000b9c:	1c7b      	adds	r3, r7, #1
 8000b9e:	781b      	ldrb	r3, [r3, #0]
 8000ba0:	b2d1      	uxtb	r1, r2
 8000ba2:	687a      	ldr	r2, [r7, #4]
 8000ba4:	54d1      	strb	r1, [r2, r3]
    nmbs->msg.buf[index + 1] = (uint8_t) data;
 8000ba6:	1c7b      	adds	r3, r7, #1
 8000ba8:	781b      	ldrb	r3, [r3, #0]
 8000baa:	3301      	adds	r3, #1
 8000bac:	1cba      	adds	r2, r7, #2
 8000bae:	8812      	ldrh	r2, [r2, #0]
 8000bb0:	b2d1      	uxtb	r1, r2
 8000bb2:	687a      	ldr	r2, [r7, #4]
 8000bb4:	54d1      	strb	r1, [r2, r3]
}
 8000bb6:	46c0      	nop			; (mov r8, r8)
 8000bb8:	46bd      	mov	sp, r7
 8000bba:	b002      	add	sp, #8
 8000bbc:	bd80      	pop	{r7, pc}

08000bbe <get_n>:
#endif
#endif


static uint8_t* get_n(nmbs_t* nmbs, uint16_t n) {
 8000bbe:	b580      	push	{r7, lr}
 8000bc0:	b084      	sub	sp, #16
 8000bc2:	af00      	add	r7, sp, #0
 8000bc4:	6078      	str	r0, [r7, #4]
 8000bc6:	000a      	movs	r2, r1
 8000bc8:	1cbb      	adds	r3, r7, #2
 8000bca:	801a      	strh	r2, [r3, #0]
    uint8_t* msg_buf_ptr = nmbs->msg.buf + nmbs->msg.buf_idx;
 8000bcc:	687b      	ldr	r3, [r7, #4]
 8000bce:	6879      	ldr	r1, [r7, #4]
 8000bd0:	2282      	movs	r2, #130	; 0x82
 8000bd2:	0052      	lsls	r2, r2, #1
 8000bd4:	5a8a      	ldrh	r2, [r1, r2]
 8000bd6:	189b      	adds	r3, r3, r2
 8000bd8:	60fb      	str	r3, [r7, #12]
    nmbs->msg.buf_idx += n;
 8000bda:	687a      	ldr	r2, [r7, #4]
 8000bdc:	2382      	movs	r3, #130	; 0x82
 8000bde:	005b      	lsls	r3, r3, #1
 8000be0:	5ad2      	ldrh	r2, [r2, r3]
 8000be2:	1cbb      	adds	r3, r7, #2
 8000be4:	881b      	ldrh	r3, [r3, #0]
 8000be6:	18d3      	adds	r3, r2, r3
 8000be8:	b299      	uxth	r1, r3
 8000bea:	687a      	ldr	r2, [r7, #4]
 8000bec:	2382      	movs	r3, #130	; 0x82
 8000bee:	005b      	lsls	r3, r3, #1
 8000bf0:	52d1      	strh	r1, [r2, r3]
    return msg_buf_ptr;
 8000bf2:	68fb      	ldr	r3, [r7, #12]
}
 8000bf4:	0018      	movs	r0, r3
 8000bf6:	46bd      	mov	sp, r7
 8000bf8:	b004      	add	sp, #16
 8000bfa:	bd80      	pop	{r7, pc}

08000bfc <put_n>:


#ifndef NMBS_SERVER_DISABLED
#ifndef NMBS_SERVER_READ_DEVICE_IDENTIFICATION_DISABLED
static void put_n(nmbs_t* nmbs, const uint8_t* data, uint8_t size) {
 8000bfc:	b580      	push	{r7, lr}
 8000bfe:	b084      	sub	sp, #16
 8000c00:	af00      	add	r7, sp, #0
 8000c02:	60f8      	str	r0, [r7, #12]
 8000c04:	60b9      	str	r1, [r7, #8]
 8000c06:	1dfb      	adds	r3, r7, #7
 8000c08:	701a      	strb	r2, [r3, #0]
    memcpy(&nmbs->msg.buf[nmbs->msg.buf_idx], data, size);
 8000c0a:	68fa      	ldr	r2, [r7, #12]
 8000c0c:	2382      	movs	r3, #130	; 0x82
 8000c0e:	005b      	lsls	r3, r3, #1
 8000c10:	5ad3      	ldrh	r3, [r2, r3]
 8000c12:	001a      	movs	r2, r3
 8000c14:	68fb      	ldr	r3, [r7, #12]
 8000c16:	1898      	adds	r0, r3, r2
 8000c18:	1dfb      	adds	r3, r7, #7
 8000c1a:	781a      	ldrb	r2, [r3, #0]
 8000c1c:	68bb      	ldr	r3, [r7, #8]
 8000c1e:	0019      	movs	r1, r3
 8000c20:	f006 fedc 	bl	80079dc <memcpy>
    nmbs->msg.buf_idx += size;
 8000c24:	68fa      	ldr	r2, [r7, #12]
 8000c26:	2382      	movs	r3, #130	; 0x82
 8000c28:	005b      	lsls	r3, r3, #1
 8000c2a:	5ad2      	ldrh	r2, [r2, r3]
 8000c2c:	1dfb      	adds	r3, r7, #7
 8000c2e:	781b      	ldrb	r3, [r3, #0]
 8000c30:	b29b      	uxth	r3, r3
 8000c32:	18d3      	adds	r3, r2, r3
 8000c34:	b299      	uxth	r1, r3
 8000c36:	68fa      	ldr	r2, [r7, #12]
 8000c38:	2382      	movs	r3, #130	; 0x82
 8000c3a:	005b      	lsls	r3, r3, #1
 8000c3c:	52d1      	strh	r1, [r2, r3]
}
 8000c3e:	46c0      	nop			; (mov r8, r8)
 8000c40:	46bd      	mov	sp, r7
 8000c42:	b004      	add	sp, #16
 8000c44:	bd80      	pop	{r7, pc}

08000c46 <get_regs>:
#endif


#ifndef NMBS_SERVER_WRITE_FILE_RECORD_DISABLED
static uint16_t* get_regs(nmbs_t* nmbs, uint16_t n) {
 8000c46:	b580      	push	{r7, lr}
 8000c48:	b084      	sub	sp, #16
 8000c4a:	af00      	add	r7, sp, #0
 8000c4c:	6078      	str	r0, [r7, #4]
 8000c4e:	000a      	movs	r2, r1
 8000c50:	1cbb      	adds	r3, r7, #2
 8000c52:	801a      	strh	r2, [r3, #0]
    uint16_t* msg_buf_ptr = (uint16_t*) (nmbs->msg.buf + nmbs->msg.buf_idx);
 8000c54:	687b      	ldr	r3, [r7, #4]
 8000c56:	6879      	ldr	r1, [r7, #4]
 8000c58:	2282      	movs	r2, #130	; 0x82
 8000c5a:	0052      	lsls	r2, r2, #1
 8000c5c:	5a8a      	ldrh	r2, [r1, r2]
 8000c5e:	189b      	adds	r3, r3, r2
 8000c60:	60fb      	str	r3, [r7, #12]
    nmbs->msg.buf_idx += n * 2;
 8000c62:	687a      	ldr	r2, [r7, #4]
 8000c64:	2382      	movs	r3, #130	; 0x82
 8000c66:	005b      	lsls	r3, r3, #1
 8000c68:	5ad2      	ldrh	r2, [r2, r3]
 8000c6a:	1cbb      	adds	r3, r7, #2
 8000c6c:	881b      	ldrh	r3, [r3, #0]
 8000c6e:	18db      	adds	r3, r3, r3
 8000c70:	b29b      	uxth	r3, r3
 8000c72:	18d3      	adds	r3, r2, r3
 8000c74:	b299      	uxth	r1, r3
 8000c76:	687a      	ldr	r2, [r7, #4]
 8000c78:	2382      	movs	r3, #130	; 0x82
 8000c7a:	005b      	lsls	r3, r3, #1
 8000c7c:	52d1      	strh	r1, [r2, r3]
    while (n--) {
 8000c7e:	e019      	b.n	8000cb4 <get_regs+0x6e>
        msg_buf_ptr[n] = (msg_buf_ptr[n] << 8) | ((msg_buf_ptr[n] >> 8) & 0xFF);
 8000c80:	1cbb      	adds	r3, r7, #2
 8000c82:	881b      	ldrh	r3, [r3, #0]
 8000c84:	005b      	lsls	r3, r3, #1
 8000c86:	68fa      	ldr	r2, [r7, #12]
 8000c88:	18d3      	adds	r3, r2, r3
 8000c8a:	881b      	ldrh	r3, [r3, #0]
 8000c8c:	021b      	lsls	r3, r3, #8
 8000c8e:	b21a      	sxth	r2, r3
 8000c90:	1cbb      	adds	r3, r7, #2
 8000c92:	881b      	ldrh	r3, [r3, #0]
 8000c94:	005b      	lsls	r3, r3, #1
 8000c96:	68f9      	ldr	r1, [r7, #12]
 8000c98:	18cb      	adds	r3, r1, r3
 8000c9a:	881b      	ldrh	r3, [r3, #0]
 8000c9c:	0a1b      	lsrs	r3, r3, #8
 8000c9e:	b29b      	uxth	r3, r3
 8000ca0:	b21b      	sxth	r3, r3
 8000ca2:	4313      	orrs	r3, r2
 8000ca4:	b219      	sxth	r1, r3
 8000ca6:	1cbb      	adds	r3, r7, #2
 8000ca8:	881b      	ldrh	r3, [r3, #0]
 8000caa:	005b      	lsls	r3, r3, #1
 8000cac:	68fa      	ldr	r2, [r7, #12]
 8000cae:	18d3      	adds	r3, r2, r3
 8000cb0:	b28a      	uxth	r2, r1
 8000cb2:	801a      	strh	r2, [r3, #0]
    while (n--) {
 8000cb4:	1cbb      	adds	r3, r7, #2
 8000cb6:	881b      	ldrh	r3, [r3, #0]
 8000cb8:	1cba      	adds	r2, r7, #2
 8000cba:	1e59      	subs	r1, r3, #1
 8000cbc:	8011      	strh	r1, [r2, #0]
 8000cbe:	2b00      	cmp	r3, #0
 8000cc0:	d1de      	bne.n	8000c80 <get_regs+0x3a>
    }
    return msg_buf_ptr;
 8000cc2:	68fb      	ldr	r3, [r7, #12]
}
 8000cc4:	0018      	movs	r0, r3
 8000cc6:	46bd      	mov	sp, r7
 8000cc8:	b004      	add	sp, #16
 8000cca:	bd80      	pop	{r7, pc}

08000ccc <swap_regs>:
    }
}
#endif


static void swap_regs(uint16_t* data, uint16_t n) {
 8000ccc:	b580      	push	{r7, lr}
 8000cce:	b082      	sub	sp, #8
 8000cd0:	af00      	add	r7, sp, #0
 8000cd2:	6078      	str	r0, [r7, #4]
 8000cd4:	000a      	movs	r2, r1
 8000cd6:	1cbb      	adds	r3, r7, #2
 8000cd8:	801a      	strh	r2, [r3, #0]
    while (n--) {
 8000cda:	e019      	b.n	8000d10 <swap_regs+0x44>
        data[n] = (data[n] << 8) | ((data[n] >> 8) & 0xFF);
 8000cdc:	1cbb      	adds	r3, r7, #2
 8000cde:	881b      	ldrh	r3, [r3, #0]
 8000ce0:	005b      	lsls	r3, r3, #1
 8000ce2:	687a      	ldr	r2, [r7, #4]
 8000ce4:	18d3      	adds	r3, r2, r3
 8000ce6:	881b      	ldrh	r3, [r3, #0]
 8000ce8:	021b      	lsls	r3, r3, #8
 8000cea:	b21a      	sxth	r2, r3
 8000cec:	1cbb      	adds	r3, r7, #2
 8000cee:	881b      	ldrh	r3, [r3, #0]
 8000cf0:	005b      	lsls	r3, r3, #1
 8000cf2:	6879      	ldr	r1, [r7, #4]
 8000cf4:	18cb      	adds	r3, r1, r3
 8000cf6:	881b      	ldrh	r3, [r3, #0]
 8000cf8:	0a1b      	lsrs	r3, r3, #8
 8000cfa:	b29b      	uxth	r3, r3
 8000cfc:	b21b      	sxth	r3, r3
 8000cfe:	4313      	orrs	r3, r2
 8000d00:	b219      	sxth	r1, r3
 8000d02:	1cbb      	adds	r3, r7, #2
 8000d04:	881b      	ldrh	r3, [r3, #0]
 8000d06:	005b      	lsls	r3, r3, #1
 8000d08:	687a      	ldr	r2, [r7, #4]
 8000d0a:	18d3      	adds	r3, r2, r3
 8000d0c:	b28a      	uxth	r2, r1
 8000d0e:	801a      	strh	r2, [r3, #0]
    while (n--) {
 8000d10:	1cbb      	adds	r3, r7, #2
 8000d12:	881b      	ldrh	r3, [r3, #0]
 8000d14:	1cba      	adds	r2, r7, #2
 8000d16:	1e59      	subs	r1, r3, #1
 8000d18:	8011      	strh	r1, [r2, #0]
 8000d1a:	2b00      	cmp	r3, #0
 8000d1c:	d1de      	bne.n	8000cdc <swap_regs+0x10>
    }
}
 8000d1e:	46c0      	nop			; (mov r8, r8)
 8000d20:	46c0      	nop			; (mov r8, r8)
 8000d22:	46bd      	mov	sp, r7
 8000d24:	b002      	add	sp, #8
 8000d26:	bd80      	pop	{r7, pc}

08000d28 <recv>:


static nmbs_error recv(nmbs_t* nmbs, uint16_t count) {
 8000d28:	b5b0      	push	{r4, r5, r7, lr}
 8000d2a:	b084      	sub	sp, #16
 8000d2c:	af00      	add	r7, sp, #0
 8000d2e:	6078      	str	r0, [r7, #4]
 8000d30:	000a      	movs	r2, r1
 8000d32:	1cbb      	adds	r3, r7, #2
 8000d34:	801a      	strh	r2, [r3, #0]
    if (nmbs->msg.complete) {
 8000d36:	687a      	ldr	r2, [r7, #4]
 8000d38:	2386      	movs	r3, #134	; 0x86
 8000d3a:	005b      	lsls	r3, r3, #1
 8000d3c:	5cd3      	ldrb	r3, [r2, r3]
 8000d3e:	2b00      	cmp	r3, #0
 8000d40:	d001      	beq.n	8000d46 <recv+0x1e>
        return NMBS_ERROR_NONE;
 8000d42:	2300      	movs	r3, #0
 8000d44:	e02f      	b.n	8000da6 <recv+0x7e>
    }

    const int32_t ret =
            nmbs->platform.read(nmbs->msg.buf + nmbs->msg.buf_idx, count, nmbs->byte_timeout_ms, nmbs->platform.arg);
 8000d46:	687a      	ldr	r2, [r7, #4]
 8000d48:	23aa      	movs	r3, #170	; 0xaa
 8000d4a:	005b      	lsls	r3, r3, #1
 8000d4c:	58d4      	ldr	r4, [r2, r3]
 8000d4e:	687b      	ldr	r3, [r7, #4]
 8000d50:	6879      	ldr	r1, [r7, #4]
 8000d52:	2282      	movs	r2, #130	; 0x82
 8000d54:	0052      	lsls	r2, r2, #1
 8000d56:	5a8a      	ldrh	r2, [r1, r2]
 8000d58:	1898      	adds	r0, r3, r2
 8000d5a:	687a      	ldr	r2, [r7, #4]
 8000d5c:	23a4      	movs	r3, #164	; 0xa4
 8000d5e:	005b      	lsls	r3, r3, #1
 8000d60:	58d5      	ldr	r5, [r2, r3]
 8000d62:	687a      	ldr	r2, [r7, #4]
 8000d64:	23b2      	movs	r3, #178	; 0xb2
 8000d66:	005b      	lsls	r3, r3, #1
 8000d68:	58d2      	ldr	r2, [r2, r3]
 8000d6a:	1cbb      	adds	r3, r7, #2
 8000d6c:	8819      	ldrh	r1, [r3, #0]
 8000d6e:	0013      	movs	r3, r2
 8000d70:	002a      	movs	r2, r5
 8000d72:	47a0      	blx	r4
 8000d74:	0003      	movs	r3, r0
 8000d76:	60fb      	str	r3, [r7, #12]

    if (ret == count)
 8000d78:	1cbb      	adds	r3, r7, #2
 8000d7a:	881b      	ldrh	r3, [r3, #0]
 8000d7c:	68fa      	ldr	r2, [r7, #12]
 8000d7e:	429a      	cmp	r2, r3
 8000d80:	d101      	bne.n	8000d86 <recv+0x5e>
        return NMBS_ERROR_NONE;
 8000d82:	2300      	movs	r3, #0
 8000d84:	e00f      	b.n	8000da6 <recv+0x7e>

    if (ret < count) {
 8000d86:	1cbb      	adds	r3, r7, #2
 8000d88:	881b      	ldrh	r3, [r3, #0]
 8000d8a:	68fa      	ldr	r2, [r7, #12]
 8000d8c:	429a      	cmp	r2, r3
 8000d8e:	da08      	bge.n	8000da2 <recv+0x7a>
        if (ret < 0)
 8000d90:	68fb      	ldr	r3, [r7, #12]
 8000d92:	2b00      	cmp	r3, #0
 8000d94:	da02      	bge.n	8000d9c <recv+0x74>
            return NMBS_ERROR_TRANSPORT;
 8000d96:	2304      	movs	r3, #4
 8000d98:	425b      	negs	r3, r3
 8000d9a:	e004      	b.n	8000da6 <recv+0x7e>

        return NMBS_ERROR_TIMEOUT;
 8000d9c:	2303      	movs	r3, #3
 8000d9e:	425b      	negs	r3, r3
 8000da0:	e001      	b.n	8000da6 <recv+0x7e>
    }

    return NMBS_ERROR_TRANSPORT;
 8000da2:	2304      	movs	r3, #4
 8000da4:	425b      	negs	r3, r3
}
 8000da6:	0018      	movs	r0, r3
 8000da8:	46bd      	mov	sp, r7
 8000daa:	b004      	add	sp, #16
 8000dac:	bdb0      	pop	{r4, r5, r7, pc}

08000dae <send>:


static nmbs_error send(const nmbs_t* nmbs, uint16_t count) {
 8000dae:	b5b0      	push	{r4, r5, r7, lr}
 8000db0:	b084      	sub	sp, #16
 8000db2:	af00      	add	r7, sp, #0
 8000db4:	6078      	str	r0, [r7, #4]
 8000db6:	000a      	movs	r2, r1
 8000db8:	1cbb      	adds	r3, r7, #2
 8000dba:	801a      	strh	r2, [r3, #0]
    const int32_t ret = nmbs->platform.write(nmbs->msg.buf, count, nmbs->byte_timeout_ms, nmbs->platform.arg);
 8000dbc:	687a      	ldr	r2, [r7, #4]
 8000dbe:	23ac      	movs	r3, #172	; 0xac
 8000dc0:	005b      	lsls	r3, r3, #1
 8000dc2:	58d4      	ldr	r4, [r2, r3]
 8000dc4:	6878      	ldr	r0, [r7, #4]
 8000dc6:	687a      	ldr	r2, [r7, #4]
 8000dc8:	23a4      	movs	r3, #164	; 0xa4
 8000dca:	005b      	lsls	r3, r3, #1
 8000dcc:	58d5      	ldr	r5, [r2, r3]
 8000dce:	687a      	ldr	r2, [r7, #4]
 8000dd0:	23b2      	movs	r3, #178	; 0xb2
 8000dd2:	005b      	lsls	r3, r3, #1
 8000dd4:	58d2      	ldr	r2, [r2, r3]
 8000dd6:	1cbb      	adds	r3, r7, #2
 8000dd8:	8819      	ldrh	r1, [r3, #0]
 8000dda:	0013      	movs	r3, r2
 8000ddc:	002a      	movs	r2, r5
 8000dde:	47a0      	blx	r4
 8000de0:	0003      	movs	r3, r0
 8000de2:	60fb      	str	r3, [r7, #12]

    if (ret == count)
 8000de4:	1cbb      	adds	r3, r7, #2
 8000de6:	881b      	ldrh	r3, [r3, #0]
 8000de8:	68fa      	ldr	r2, [r7, #12]
 8000dea:	429a      	cmp	r2, r3
 8000dec:	d101      	bne.n	8000df2 <send+0x44>
        return NMBS_ERROR_NONE;
 8000dee:	2300      	movs	r3, #0
 8000df0:	e00f      	b.n	8000e12 <send+0x64>

    if (ret < count) {
 8000df2:	1cbb      	adds	r3, r7, #2
 8000df4:	881b      	ldrh	r3, [r3, #0]
 8000df6:	68fa      	ldr	r2, [r7, #12]
 8000df8:	429a      	cmp	r2, r3
 8000dfa:	da08      	bge.n	8000e0e <send+0x60>
        if (ret < 0)
 8000dfc:	68fb      	ldr	r3, [r7, #12]
 8000dfe:	2b00      	cmp	r3, #0
 8000e00:	da02      	bge.n	8000e08 <send+0x5a>
            return NMBS_ERROR_TRANSPORT;
 8000e02:	2304      	movs	r3, #4
 8000e04:	425b      	negs	r3, r3
 8000e06:	e004      	b.n	8000e12 <send+0x64>

        return NMBS_ERROR_TIMEOUT;
 8000e08:	2303      	movs	r3, #3
 8000e0a:	425b      	negs	r3, r3
 8000e0c:	e001      	b.n	8000e12 <send+0x64>
    }

    return NMBS_ERROR_TRANSPORT;
 8000e0e:	2304      	movs	r3, #4
 8000e10:	425b      	negs	r3, r3
}
 8000e12:	0018      	movs	r0, r3
 8000e14:	46bd      	mov	sp, r7
 8000e16:	b004      	add	sp, #16
 8000e18:	bdb0      	pop	{r4, r5, r7, pc}

08000e1a <flush>:


static void flush(nmbs_t* nmbs, void* arg) {
 8000e1a:	b590      	push	{r4, r7, lr}
 8000e1c:	b083      	sub	sp, #12
 8000e1e:	af00      	add	r7, sp, #0
 8000e20:	6078      	str	r0, [r7, #4]
 8000e22:	6039      	str	r1, [r7, #0]
    NMBS_UNUSED_PARAM(arg);
    nmbs->platform.read(nmbs->msg.buf, sizeof(nmbs->msg.buf), 0, nmbs->platform.arg);
 8000e24:	687a      	ldr	r2, [r7, #4]
 8000e26:	23aa      	movs	r3, #170	; 0xaa
 8000e28:	005b      	lsls	r3, r3, #1
 8000e2a:	58d4      	ldr	r4, [r2, r3]
 8000e2c:	6878      	ldr	r0, [r7, #4]
 8000e2e:	687a      	ldr	r2, [r7, #4]
 8000e30:	23b2      	movs	r3, #178	; 0xb2
 8000e32:	005b      	lsls	r3, r3, #1
 8000e34:	58d3      	ldr	r3, [r2, r3]
 8000e36:	2282      	movs	r2, #130	; 0x82
 8000e38:	0051      	lsls	r1, r2, #1
 8000e3a:	2200      	movs	r2, #0
 8000e3c:	47a0      	blx	r4
}
 8000e3e:	46c0      	nop			; (mov r8, r8)
 8000e40:	46bd      	mov	sp, r7
 8000e42:	b003      	add	sp, #12
 8000e44:	bd90      	pop	{r4, r7, pc}

08000e46 <msg_buf_reset>:


static void msg_buf_reset(nmbs_t* nmbs) {
 8000e46:	b580      	push	{r7, lr}
 8000e48:	b082      	sub	sp, #8
 8000e4a:	af00      	add	r7, sp, #0
 8000e4c:	6078      	str	r0, [r7, #4]
    nmbs->msg.buf_idx = 0;
 8000e4e:	687a      	ldr	r2, [r7, #4]
 8000e50:	2382      	movs	r3, #130	; 0x82
 8000e52:	005b      	lsls	r3, r3, #1
 8000e54:	2100      	movs	r1, #0
 8000e56:	52d1      	strh	r1, [r2, r3]
}
 8000e58:	46c0      	nop			; (mov r8, r8)
 8000e5a:	46bd      	mov	sp, r7
 8000e5c:	b002      	add	sp, #8
 8000e5e:	bd80      	pop	{r7, pc}

08000e60 <msg_state_reset>:


static void msg_state_reset(nmbs_t* nmbs) {
 8000e60:	b580      	push	{r7, lr}
 8000e62:	b082      	sub	sp, #8
 8000e64:	af00      	add	r7, sp, #0
 8000e66:	6078      	str	r0, [r7, #4]
    msg_buf_reset(nmbs);
 8000e68:	687b      	ldr	r3, [r7, #4]
 8000e6a:	0018      	movs	r0, r3
 8000e6c:	f7ff ffeb 	bl	8000e46 <msg_buf_reset>
    nmbs->msg.unit_id = 0;
 8000e70:	687a      	ldr	r2, [r7, #4]
 8000e72:	2383      	movs	r3, #131	; 0x83
 8000e74:	005b      	lsls	r3, r3, #1
 8000e76:	2100      	movs	r1, #0
 8000e78:	54d1      	strb	r1, [r2, r3]
    nmbs->msg.fc = 0;
 8000e7a:	687a      	ldr	r2, [r7, #4]
 8000e7c:	2308      	movs	r3, #8
 8000e7e:	33ff      	adds	r3, #255	; 0xff
 8000e80:	2100      	movs	r1, #0
 8000e82:	54d1      	strb	r1, [r2, r3]
    nmbs->msg.transaction_id = 0;
 8000e84:	687a      	ldr	r2, [r7, #4]
 8000e86:	2384      	movs	r3, #132	; 0x84
 8000e88:	005b      	lsls	r3, r3, #1
 8000e8a:	2100      	movs	r1, #0
 8000e8c:	52d1      	strh	r1, [r2, r3]
    nmbs->msg.broadcast = false;
 8000e8e:	687a      	ldr	r2, [r7, #4]
 8000e90:	2385      	movs	r3, #133	; 0x85
 8000e92:	005b      	lsls	r3, r3, #1
 8000e94:	2100      	movs	r1, #0
 8000e96:	54d1      	strb	r1, [r2, r3]
    nmbs->msg.ignored = false;
 8000e98:	687a      	ldr	r2, [r7, #4]
 8000e9a:	230c      	movs	r3, #12
 8000e9c:	33ff      	adds	r3, #255	; 0xff
 8000e9e:	2100      	movs	r1, #0
 8000ea0:	54d1      	strb	r1, [r2, r3]
    nmbs->msg.complete = false;
 8000ea2:	687a      	ldr	r2, [r7, #4]
 8000ea4:	2386      	movs	r3, #134	; 0x86
 8000ea6:	005b      	lsls	r3, r3, #1
 8000ea8:	2100      	movs	r1, #0
 8000eaa:	54d1      	strb	r1, [r2, r3]
}
 8000eac:	46c0      	nop			; (mov r8, r8)
 8000eae:	46bd      	mov	sp, r7
 8000eb0:	b002      	add	sp, #8
 8000eb2:	bd80      	pop	{r7, pc}

08000eb4 <nmbs_create>:
        nmbs->msg.broadcast = true;
}
#endif


nmbs_error nmbs_create(nmbs_t* nmbs, const nmbs_platform_conf* platform_conf) {
 8000eb4:	b590      	push	{r4, r7, lr}
 8000eb6:	b083      	sub	sp, #12
 8000eb8:	af00      	add	r7, sp, #0
 8000eba:	6078      	str	r0, [r7, #4]
 8000ebc:	6039      	str	r1, [r7, #0]
    if (!nmbs)
 8000ebe:	687b      	ldr	r3, [r7, #4]
 8000ec0:	2b00      	cmp	r3, #0
 8000ec2:	d102      	bne.n	8000eca <nmbs_create+0x16>
        return NMBS_ERROR_INVALID_ARGUMENT;
 8000ec4:	2301      	movs	r3, #1
 8000ec6:	425b      	negs	r3, r3
 8000ec8:	e040      	b.n	8000f4c <nmbs_create+0x98>

    memset(nmbs, 0, sizeof(nmbs_t));
 8000eca:	23b8      	movs	r3, #184	; 0xb8
 8000ecc:	005a      	lsls	r2, r3, #1
 8000ece:	687b      	ldr	r3, [r7, #4]
 8000ed0:	2100      	movs	r1, #0
 8000ed2:	0018      	movs	r0, r3
 8000ed4:	f006 fd42 	bl	800795c <memset>

    nmbs->byte_timeout_ms = -1;
 8000ed8:	687a      	ldr	r2, [r7, #4]
 8000eda:	23a4      	movs	r3, #164	; 0xa4
 8000edc:	005b      	lsls	r3, r3, #1
 8000ede:	2101      	movs	r1, #1
 8000ee0:	4249      	negs	r1, r1
 8000ee2:	50d1      	str	r1, [r2, r3]
    nmbs->read_timeout_ms = -1;
 8000ee4:	687a      	ldr	r2, [r7, #4]
 8000ee6:	23a6      	movs	r3, #166	; 0xa6
 8000ee8:	005b      	lsls	r3, r3, #1
 8000eea:	2101      	movs	r1, #1
 8000eec:	4249      	negs	r1, r1
 8000eee:	50d1      	str	r1, [r2, r3]

    if (!platform_conf || platform_conf->initialized != 0xFFFFDEBE)
 8000ef0:	683b      	ldr	r3, [r7, #0]
 8000ef2:	2b00      	cmp	r3, #0
 8000ef4:	d004      	beq.n	8000f00 <nmbs_create+0x4c>
 8000ef6:	683b      	ldr	r3, [r7, #0]
 8000ef8:	699b      	ldr	r3, [r3, #24]
 8000efa:	4a16      	ldr	r2, [pc, #88]	; (8000f54 <nmbs_create+0xa0>)
 8000efc:	4293      	cmp	r3, r2
 8000efe:	d002      	beq.n	8000f06 <nmbs_create+0x52>
        return NMBS_ERROR_INVALID_ARGUMENT;
 8000f00:	2301      	movs	r3, #1
 8000f02:	425b      	negs	r3, r3
 8000f04:	e022      	b.n	8000f4c <nmbs_create+0x98>

    if (platform_conf->transport != NMBS_TRANSPORT_RTU && platform_conf->transport != NMBS_TRANSPORT_TCP)
 8000f06:	683b      	ldr	r3, [r7, #0]
 8000f08:	781b      	ldrb	r3, [r3, #0]
 8000f0a:	2b01      	cmp	r3, #1
 8000f0c:	d006      	beq.n	8000f1c <nmbs_create+0x68>
 8000f0e:	683b      	ldr	r3, [r7, #0]
 8000f10:	781b      	ldrb	r3, [r3, #0]
 8000f12:	2b02      	cmp	r3, #2
 8000f14:	d002      	beq.n	8000f1c <nmbs_create+0x68>
        return NMBS_ERROR_INVALID_ARGUMENT;
 8000f16:	2301      	movs	r3, #1
 8000f18:	425b      	negs	r3, r3
 8000f1a:	e017      	b.n	8000f4c <nmbs_create+0x98>

    if (!platform_conf->read || !platform_conf->write)
 8000f1c:	683b      	ldr	r3, [r7, #0]
 8000f1e:	685b      	ldr	r3, [r3, #4]
 8000f20:	2b00      	cmp	r3, #0
 8000f22:	d003      	beq.n	8000f2c <nmbs_create+0x78>
 8000f24:	683b      	ldr	r3, [r7, #0]
 8000f26:	689b      	ldr	r3, [r3, #8]
 8000f28:	2b00      	cmp	r3, #0
 8000f2a:	d102      	bne.n	8000f32 <nmbs_create+0x7e>
        return NMBS_ERROR_INVALID_ARGUMENT;
 8000f2c:	2301      	movs	r3, #1
 8000f2e:	425b      	negs	r3, r3
 8000f30:	e00c      	b.n	8000f4c <nmbs_create+0x98>

    nmbs->platform = *platform_conf;
 8000f32:	687a      	ldr	r2, [r7, #4]
 8000f34:	23a8      	movs	r3, #168	; 0xa8
 8000f36:	005b      	lsls	r3, r3, #1
 8000f38:	6839      	ldr	r1, [r7, #0]
 8000f3a:	18d3      	adds	r3, r2, r3
 8000f3c:	000a      	movs	r2, r1
 8000f3e:	ca13      	ldmia	r2!, {r0, r1, r4}
 8000f40:	c313      	stmia	r3!, {r0, r1, r4}
 8000f42:	ca13      	ldmia	r2!, {r0, r1, r4}
 8000f44:	c313      	stmia	r3!, {r0, r1, r4}
 8000f46:	6812      	ldr	r2, [r2, #0]
 8000f48:	601a      	str	r2, [r3, #0]

    return NMBS_ERROR_NONE;
 8000f4a:	2300      	movs	r3, #0
}
 8000f4c:	0018      	movs	r0, r3
 8000f4e:	46bd      	mov	sp, r7
 8000f50:	b003      	add	sp, #12
 8000f52:	bd90      	pop	{r4, r7, pc}
 8000f54:	ffffdebe 	.word	0xffffdebe

08000f58 <nmbs_set_read_timeout>:


void nmbs_set_read_timeout(nmbs_t* nmbs, int32_t timeout_ms) {
 8000f58:	b580      	push	{r7, lr}
 8000f5a:	b082      	sub	sp, #8
 8000f5c:	af00      	add	r7, sp, #0
 8000f5e:	6078      	str	r0, [r7, #4]
 8000f60:	6039      	str	r1, [r7, #0]
    nmbs->read_timeout_ms = timeout_ms;
 8000f62:	687a      	ldr	r2, [r7, #4]
 8000f64:	23a6      	movs	r3, #166	; 0xa6
 8000f66:	005b      	lsls	r3, r3, #1
 8000f68:	6839      	ldr	r1, [r7, #0]
 8000f6a:	50d1      	str	r1, [r2, r3]
}
 8000f6c:	46c0      	nop			; (mov r8, r8)
 8000f6e:	46bd      	mov	sp, r7
 8000f70:	b002      	add	sp, #8
 8000f72:	bd80      	pop	{r7, pc}

08000f74 <nmbs_set_byte_timeout>:


void nmbs_set_byte_timeout(nmbs_t* nmbs, int32_t timeout_ms) {
 8000f74:	b580      	push	{r7, lr}
 8000f76:	b082      	sub	sp, #8
 8000f78:	af00      	add	r7, sp, #0
 8000f7a:	6078      	str	r0, [r7, #4]
 8000f7c:	6039      	str	r1, [r7, #0]
    nmbs->byte_timeout_ms = timeout_ms;
 8000f7e:	687a      	ldr	r2, [r7, #4]
 8000f80:	23a4      	movs	r3, #164	; 0xa4
 8000f82:	005b      	lsls	r3, r3, #1
 8000f84:	6839      	ldr	r1, [r7, #0]
 8000f86:	50d1      	str	r1, [r2, r3]
}
 8000f88:	46c0      	nop			; (mov r8, r8)
 8000f8a:	46bd      	mov	sp, r7
 8000f8c:	b002      	add	sp, #8
 8000f8e:	bd80      	pop	{r7, pc}

08000f90 <nmbs_platform_conf_create>:


void nmbs_platform_conf_create(nmbs_platform_conf* platform_conf) {
 8000f90:	b580      	push	{r7, lr}
 8000f92:	b082      	sub	sp, #8
 8000f94:	af00      	add	r7, sp, #0
 8000f96:	6078      	str	r0, [r7, #4]
    memset(platform_conf, 0, sizeof(nmbs_platform_conf));
 8000f98:	687b      	ldr	r3, [r7, #4]
 8000f9a:	221c      	movs	r2, #28
 8000f9c:	2100      	movs	r1, #0
 8000f9e:	0018      	movs	r0, r3
 8000fa0:	f006 fcdc 	bl	800795c <memset>
    platform_conf->crc_calc = nmbs_crc_calc;
 8000fa4:	687b      	ldr	r3, [r7, #4]
 8000fa6:	4a06      	ldr	r2, [pc, #24]	; (8000fc0 <nmbs_platform_conf_create+0x30>)
 8000fa8:	60da      	str	r2, [r3, #12]
    platform_conf->flush = flush;
 8000faa:	687b      	ldr	r3, [r7, #4]
 8000fac:	4a05      	ldr	r2, [pc, #20]	; (8000fc4 <nmbs_platform_conf_create+0x34>)
 8000fae:	611a      	str	r2, [r3, #16]
    // Workaround for older user code not calling nmbs_platform_conf_create()
    platform_conf->initialized = 0xFFFFDEBE;
 8000fb0:	687b      	ldr	r3, [r7, #4]
 8000fb2:	4a05      	ldr	r2, [pc, #20]	; (8000fc8 <nmbs_platform_conf_create+0x38>)
 8000fb4:	619a      	str	r2, [r3, #24]
}
 8000fb6:	46c0      	nop			; (mov r8, r8)
 8000fb8:	46bd      	mov	sp, r7
 8000fba:	b002      	add	sp, #8
 8000fbc:	bd80      	pop	{r7, pc}
 8000fbe:	46c0      	nop			; (mov r8, r8)
 8000fc0:	08000fcd 	.word	0x08000fcd
 8000fc4:	08000e1b 	.word	0x08000e1b
 8000fc8:	ffffdebe 	.word	0xffffdebe

08000fcc <nmbs_crc_calc>:
void nmbs_set_platform_arg(nmbs_t* nmbs, void* arg) {
    nmbs->platform.arg = arg;
}


uint16_t nmbs_crc_calc(const uint8_t* data, uint32_t length, void* arg) {
 8000fcc:	b580      	push	{r7, lr}
 8000fce:	b088      	sub	sp, #32
 8000fd0:	af00      	add	r7, sp, #0
 8000fd2:	60f8      	str	r0, [r7, #12]
 8000fd4:	60b9      	str	r1, [r7, #8]
 8000fd6:	607a      	str	r2, [r7, #4]
    NMBS_UNUSED_PARAM(arg);
    uint16_t crc = 0xFFFF;
 8000fd8:	231e      	movs	r3, #30
 8000fda:	18fb      	adds	r3, r7, r3
 8000fdc:	2201      	movs	r2, #1
 8000fde:	4252      	negs	r2, r2
 8000fe0:	801a      	strh	r2, [r3, #0]
    for (uint_fast32_t i = 0; i < length; i++) {
 8000fe2:	2300      	movs	r3, #0
 8000fe4:	61bb      	str	r3, [r7, #24]
 8000fe6:	e02e      	b.n	8001046 <nmbs_crc_calc+0x7a>
        crc ^= (uint16_t) data[i];
 8000fe8:	68fa      	ldr	r2, [r7, #12]
 8000fea:	69bb      	ldr	r3, [r7, #24]
 8000fec:	18d3      	adds	r3, r2, r3
 8000fee:	781b      	ldrb	r3, [r3, #0]
 8000ff0:	b299      	uxth	r1, r3
 8000ff2:	221e      	movs	r2, #30
 8000ff4:	18bb      	adds	r3, r7, r2
 8000ff6:	18ba      	adds	r2, r7, r2
 8000ff8:	8812      	ldrh	r2, [r2, #0]
 8000ffa:	404a      	eors	r2, r1
 8000ffc:	801a      	strh	r2, [r3, #0]
        for (uint_fast8_t j = 8; j != 0; j--) {
 8000ffe:	2308      	movs	r3, #8
 8001000:	617b      	str	r3, [r7, #20]
 8001002:	e01a      	b.n	800103a <nmbs_crc_calc+0x6e>
            if ((crc & 0x0001) != 0) {
 8001004:	211e      	movs	r1, #30
 8001006:	187b      	adds	r3, r7, r1
 8001008:	881b      	ldrh	r3, [r3, #0]
 800100a:	2201      	movs	r2, #1
 800100c:	4013      	ands	r3, r2
 800100e:	d00b      	beq.n	8001028 <nmbs_crc_calc+0x5c>
                crc >>= 1;
 8001010:	187b      	adds	r3, r7, r1
 8001012:	187a      	adds	r2, r7, r1
 8001014:	8812      	ldrh	r2, [r2, #0]
 8001016:	0852      	lsrs	r2, r2, #1
 8001018:	801a      	strh	r2, [r3, #0]
                crc ^= 0xA001;
 800101a:	187b      	adds	r3, r7, r1
 800101c:	187a      	adds	r2, r7, r1
 800101e:	8812      	ldrh	r2, [r2, #0]
 8001020:	490f      	ldr	r1, [pc, #60]	; (8001060 <nmbs_crc_calc+0x94>)
 8001022:	404a      	eors	r2, r1
 8001024:	801a      	strh	r2, [r3, #0]
 8001026:	e005      	b.n	8001034 <nmbs_crc_calc+0x68>
            }
            else
                crc >>= 1;
 8001028:	221e      	movs	r2, #30
 800102a:	18bb      	adds	r3, r7, r2
 800102c:	18ba      	adds	r2, r7, r2
 800102e:	8812      	ldrh	r2, [r2, #0]
 8001030:	0852      	lsrs	r2, r2, #1
 8001032:	801a      	strh	r2, [r3, #0]
        for (uint_fast8_t j = 8; j != 0; j--) {
 8001034:	697b      	ldr	r3, [r7, #20]
 8001036:	3b01      	subs	r3, #1
 8001038:	617b      	str	r3, [r7, #20]
 800103a:	697b      	ldr	r3, [r7, #20]
 800103c:	2b00      	cmp	r3, #0
 800103e:	d1e1      	bne.n	8001004 <nmbs_crc_calc+0x38>
    for (uint_fast32_t i = 0; i < length; i++) {
 8001040:	69bb      	ldr	r3, [r7, #24]
 8001042:	3301      	adds	r3, #1
 8001044:	61bb      	str	r3, [r7, #24]
 8001046:	69ba      	ldr	r2, [r7, #24]
 8001048:	68bb      	ldr	r3, [r7, #8]
 800104a:	429a      	cmp	r2, r3
 800104c:	d3cc      	bcc.n	8000fe8 <nmbs_crc_calc+0x1c>
        }
    }

    return (uint16_t) (crc << 8) | (uint16_t) (crc >> 8);
 800104e:	231e      	movs	r3, #30
 8001050:	18fb      	adds	r3, r7, r3
 8001052:	881b      	ldrh	r3, [r3, #0]
 8001054:	ba5b      	rev16	r3, r3
 8001056:	b29b      	uxth	r3, r3
}
 8001058:	0018      	movs	r0, r3
 800105a:	46bd      	mov	sp, r7
 800105c:	b008      	add	sp, #32
 800105e:	bd80      	pop	{r7, pc}
 8001060:	ffffa001 	.word	0xffffa001

08001064 <recv_msg_footer>:

static nmbs_error recv_msg_footer(nmbs_t* nmbs) {
 8001064:	b5b0      	push	{r4, r5, r7, lr}
 8001066:	b084      	sub	sp, #16
 8001068:	af00      	add	r7, sp, #0
 800106a:	6078      	str	r0, [r7, #4]
    NMBS_DEBUG_PRINT("\n");

    if (nmbs->platform.transport == NMBS_TRANSPORT_RTU) {
 800106c:	687a      	ldr	r2, [r7, #4]
 800106e:	23a8      	movs	r3, #168	; 0xa8
 8001070:	005b      	lsls	r3, r3, #1
 8001072:	5cd3      	ldrb	r3, [r2, r3]
 8001074:	2b01      	cmp	r3, #1
 8001076:	d137      	bne.n	80010e8 <recv_msg_footer+0x84>
        const uint16_t crc = nmbs->platform.crc_calc(nmbs->msg.buf, nmbs->msg.buf_idx, nmbs->platform.arg);
 8001078:	687a      	ldr	r2, [r7, #4]
 800107a:	23ae      	movs	r3, #174	; 0xae
 800107c:	005b      	lsls	r3, r3, #1
 800107e:	58d3      	ldr	r3, [r2, r3]
 8001080:	6878      	ldr	r0, [r7, #4]
 8001082:	6879      	ldr	r1, [r7, #4]
 8001084:	2282      	movs	r2, #130	; 0x82
 8001086:	0052      	lsls	r2, r2, #1
 8001088:	5a8a      	ldrh	r2, [r1, r2]
 800108a:	0015      	movs	r5, r2
 800108c:	6879      	ldr	r1, [r7, #4]
 800108e:	22b2      	movs	r2, #178	; 0xb2
 8001090:	0052      	lsls	r2, r2, #1
 8001092:	588a      	ldr	r2, [r1, r2]
 8001094:	210e      	movs	r1, #14
 8001096:	187c      	adds	r4, r7, r1
 8001098:	0029      	movs	r1, r5
 800109a:	4798      	blx	r3
 800109c:	0003      	movs	r3, r0
 800109e:	8023      	strh	r3, [r4, #0]

        const nmbs_error err = recv(nmbs, 2);
 80010a0:	250d      	movs	r5, #13
 80010a2:	197c      	adds	r4, r7, r5
 80010a4:	687b      	ldr	r3, [r7, #4]
 80010a6:	2102      	movs	r1, #2
 80010a8:	0018      	movs	r0, r3
 80010aa:	f7ff fe3d 	bl	8000d28 <recv>
 80010ae:	0003      	movs	r3, r0
 80010b0:	7023      	strb	r3, [r4, #0]
        if (err != NMBS_ERROR_NONE)
 80010b2:	197b      	adds	r3, r7, r5
 80010b4:	781b      	ldrb	r3, [r3, #0]
 80010b6:	b25b      	sxtb	r3, r3
 80010b8:	2b00      	cmp	r3, #0
 80010ba:	d003      	beq.n	80010c4 <recv_msg_footer+0x60>
            return err;
 80010bc:	197b      	adds	r3, r7, r5
 80010be:	781b      	ldrb	r3, [r3, #0]
 80010c0:	b25b      	sxtb	r3, r3
 80010c2:	e012      	b.n	80010ea <recv_msg_footer+0x86>

        const uint16_t recv_crc = get_2(nmbs);
 80010c4:	250a      	movs	r5, #10
 80010c6:	197c      	adds	r4, r7, r5
 80010c8:	687b      	ldr	r3, [r7, #4]
 80010ca:	0018      	movs	r0, r3
 80010cc:	f7ff fceb 	bl	8000aa6 <get_2>
 80010d0:	0003      	movs	r3, r0
 80010d2:	8023      	strh	r3, [r4, #0]
        if (recv_crc != crc)
 80010d4:	197a      	adds	r2, r7, r5
 80010d6:	230e      	movs	r3, #14
 80010d8:	18fb      	adds	r3, r7, r3
 80010da:	8812      	ldrh	r2, [r2, #0]
 80010dc:	881b      	ldrh	r3, [r3, #0]
 80010de:	429a      	cmp	r2, r3
 80010e0:	d002      	beq.n	80010e8 <recv_msg_footer+0x84>
            return NMBS_ERROR_CRC;
 80010e2:	2305      	movs	r3, #5
 80010e4:	425b      	negs	r3, r3
 80010e6:	e000      	b.n	80010ea <recv_msg_footer+0x86>
    }

    return NMBS_ERROR_NONE;
 80010e8:	2300      	movs	r3, #0
}
 80010ea:	0018      	movs	r0, r3
 80010ec:	46bd      	mov	sp, r7
 80010ee:	b004      	add	sp, #16
 80010f0:	bdb0      	pop	{r4, r5, r7, pc}

080010f2 <recv_msg_header>:


static nmbs_error recv_msg_header(nmbs_t* nmbs, bool* first_byte_received) {
 80010f2:	b5b0      	push	{r4, r5, r7, lr}
 80010f4:	b086      	sub	sp, #24
 80010f6:	af00      	add	r7, sp, #0
 80010f8:	6078      	str	r0, [r7, #4]
 80010fa:	6039      	str	r1, [r7, #0]
    // We wait for the read timeout here, just for the first message byte
    int32_t old_byte_timeout = nmbs->byte_timeout_ms;
 80010fc:	687a      	ldr	r2, [r7, #4]
 80010fe:	23a4      	movs	r3, #164	; 0xa4
 8001100:	005b      	lsls	r3, r3, #1
 8001102:	58d3      	ldr	r3, [r2, r3]
 8001104:	617b      	str	r3, [r7, #20]
    nmbs->byte_timeout_ms = nmbs->read_timeout_ms;
 8001106:	687a      	ldr	r2, [r7, #4]
 8001108:	23a6      	movs	r3, #166	; 0xa6
 800110a:	005b      	lsls	r3, r3, #1
 800110c:	58d1      	ldr	r1, [r2, r3]
 800110e:	687a      	ldr	r2, [r7, #4]
 8001110:	23a4      	movs	r3, #164	; 0xa4
 8001112:	005b      	lsls	r3, r3, #1
 8001114:	50d1      	str	r1, [r2, r3]

    msg_state_reset(nmbs);
 8001116:	687b      	ldr	r3, [r7, #4]
 8001118:	0018      	movs	r0, r3
 800111a:	f7ff fea1 	bl	8000e60 <msg_state_reset>

    *first_byte_received = false;
 800111e:	683b      	ldr	r3, [r7, #0]
 8001120:	2200      	movs	r2, #0
 8001122:	701a      	strb	r2, [r3, #0]

    if (nmbs->platform.transport == NMBS_TRANSPORT_RTU) {
 8001124:	687a      	ldr	r2, [r7, #4]
 8001126:	23a8      	movs	r3, #168	; 0xa8
 8001128:	005b      	lsls	r3, r3, #1
 800112a:	5cd3      	ldrb	r3, [r2, r3]
 800112c:	2b01      	cmp	r3, #1
 800112e:	d140      	bne.n	80011b2 <recv_msg_header+0xc0>
        nmbs_error err = recv(nmbs, 1);
 8001130:	250d      	movs	r5, #13
 8001132:	197c      	adds	r4, r7, r5
 8001134:	687b      	ldr	r3, [r7, #4]
 8001136:	2101      	movs	r1, #1
 8001138:	0018      	movs	r0, r3
 800113a:	f7ff fdf5 	bl	8000d28 <recv>
 800113e:	0003      	movs	r3, r0
 8001140:	7023      	strb	r3, [r4, #0]

        nmbs->byte_timeout_ms = old_byte_timeout;
 8001142:	687a      	ldr	r2, [r7, #4]
 8001144:	23a4      	movs	r3, #164	; 0xa4
 8001146:	005b      	lsls	r3, r3, #1
 8001148:	6979      	ldr	r1, [r7, #20]
 800114a:	50d1      	str	r1, [r2, r3]

        if (err != NMBS_ERROR_NONE)
 800114c:	197b      	adds	r3, r7, r5
 800114e:	781b      	ldrb	r3, [r3, #0]
 8001150:	b25b      	sxtb	r3, r3
 8001152:	2b00      	cmp	r3, #0
 8001154:	d003      	beq.n	800115e <recv_msg_header+0x6c>
            return err;
 8001156:	197b      	adds	r3, r7, r5
 8001158:	781b      	ldrb	r3, [r3, #0]
 800115a:	b25b      	sxtb	r3, r3
 800115c:	e0c2      	b.n	80012e4 <recv_msg_header+0x1f2>

        *first_byte_received = true;
 800115e:	683b      	ldr	r3, [r7, #0]
 8001160:	2201      	movs	r2, #1
 8001162:	701a      	strb	r2, [r3, #0]

        nmbs->msg.unit_id = get_1(nmbs);
 8001164:	687b      	ldr	r3, [r7, #4]
 8001166:	0018      	movs	r0, r3
 8001168:	f7ff fc38 	bl	80009dc <get_1>
 800116c:	0003      	movs	r3, r0
 800116e:	0019      	movs	r1, r3
 8001170:	687a      	ldr	r2, [r7, #4]
 8001172:	2383      	movs	r3, #131	; 0x83
 8001174:	005b      	lsls	r3, r3, #1
 8001176:	54d1      	strb	r1, [r2, r3]

        err = recv(nmbs, 1);
 8001178:	250d      	movs	r5, #13
 800117a:	197c      	adds	r4, r7, r5
 800117c:	687b      	ldr	r3, [r7, #4]
 800117e:	2101      	movs	r1, #1
 8001180:	0018      	movs	r0, r3
 8001182:	f7ff fdd1 	bl	8000d28 <recv>
 8001186:	0003      	movs	r3, r0
 8001188:	7023      	strb	r3, [r4, #0]
        if (err != NMBS_ERROR_NONE)
 800118a:	197b      	adds	r3, r7, r5
 800118c:	781b      	ldrb	r3, [r3, #0]
 800118e:	b25b      	sxtb	r3, r3
 8001190:	2b00      	cmp	r3, #0
 8001192:	d003      	beq.n	800119c <recv_msg_header+0xaa>
            return err;
 8001194:	197b      	adds	r3, r7, r5
 8001196:	781b      	ldrb	r3, [r3, #0]
 8001198:	b25b      	sxtb	r3, r3
 800119a:	e0a3      	b.n	80012e4 <recv_msg_header+0x1f2>

        nmbs->msg.fc = get_1(nmbs);
 800119c:	687b      	ldr	r3, [r7, #4]
 800119e:	0018      	movs	r0, r3
 80011a0:	f7ff fc1c 	bl	80009dc <get_1>
 80011a4:	0003      	movs	r3, r0
 80011a6:	0019      	movs	r1, r3
 80011a8:	687a      	ldr	r2, [r7, #4]
 80011aa:	2308      	movs	r3, #8
 80011ac:	33ff      	adds	r3, #255	; 0xff
 80011ae:	54d1      	strb	r1, [r2, r3]
 80011b0:	e097      	b.n	80012e2 <recv_msg_header+0x1f0>
    }
    else if (nmbs->platform.transport == NMBS_TRANSPORT_TCP) {
 80011b2:	687a      	ldr	r2, [r7, #4]
 80011b4:	23a8      	movs	r3, #168	; 0xa8
 80011b6:	005b      	lsls	r3, r3, #1
 80011b8:	5cd3      	ldrb	r3, [r2, r3]
 80011ba:	2b02      	cmp	r3, #2
 80011bc:	d000      	beq.n	80011c0 <recv_msg_header+0xce>
 80011be:	e090      	b.n	80012e2 <recv_msg_header+0x1f0>
        nmbs_error err = recv(nmbs, 1);
 80011c0:	2513      	movs	r5, #19
 80011c2:	197c      	adds	r4, r7, r5
 80011c4:	687b      	ldr	r3, [r7, #4]
 80011c6:	2101      	movs	r1, #1
 80011c8:	0018      	movs	r0, r3
 80011ca:	f7ff fdad 	bl	8000d28 <recv>
 80011ce:	0003      	movs	r3, r0
 80011d0:	7023      	strb	r3, [r4, #0]

        nmbs->byte_timeout_ms = old_byte_timeout;
 80011d2:	687a      	ldr	r2, [r7, #4]
 80011d4:	23a4      	movs	r3, #164	; 0xa4
 80011d6:	005b      	lsls	r3, r3, #1
 80011d8:	6979      	ldr	r1, [r7, #20]
 80011da:	50d1      	str	r1, [r2, r3]

        if (err != NMBS_ERROR_NONE)
 80011dc:	197b      	adds	r3, r7, r5
 80011de:	781b      	ldrb	r3, [r3, #0]
 80011e0:	b25b      	sxtb	r3, r3
 80011e2:	2b00      	cmp	r3, #0
 80011e4:	d003      	beq.n	80011ee <recv_msg_header+0xfc>
            return err;
 80011e6:	197b      	adds	r3, r7, r5
 80011e8:	781b      	ldrb	r3, [r3, #0]
 80011ea:	b25b      	sxtb	r3, r3
 80011ec:	e07a      	b.n	80012e4 <recv_msg_header+0x1f2>

        *first_byte_received = true;
 80011ee:	683b      	ldr	r3, [r7, #0]
 80011f0:	2201      	movs	r2, #1
 80011f2:	701a      	strb	r2, [r3, #0]

        // Advance buf_idx
        discard_1(nmbs);
 80011f4:	687b      	ldr	r3, [r7, #4]
 80011f6:	0018      	movs	r0, r3
 80011f8:	f7ff fc2c 	bl	8000a54 <discard_1>

        err = recv(nmbs, 7);
 80011fc:	2513      	movs	r5, #19
 80011fe:	197c      	adds	r4, r7, r5
 8001200:	687b      	ldr	r3, [r7, #4]
 8001202:	2107      	movs	r1, #7
 8001204:	0018      	movs	r0, r3
 8001206:	f7ff fd8f 	bl	8000d28 <recv>
 800120a:	0003      	movs	r3, r0
 800120c:	7023      	strb	r3, [r4, #0]
        if (err != NMBS_ERROR_NONE)
 800120e:	197b      	adds	r3, r7, r5
 8001210:	781b      	ldrb	r3, [r3, #0]
 8001212:	b25b      	sxtb	r3, r3
 8001214:	2b00      	cmp	r3, #0
 8001216:	d003      	beq.n	8001220 <recv_msg_header+0x12e>
            return err;
 8001218:	197b      	adds	r3, r7, r5
 800121a:	781b      	ldrb	r3, [r3, #0]
 800121c:	b25b      	sxtb	r3, r3
 800121e:	e061      	b.n	80012e4 <recv_msg_header+0x1f2>

        // Starting over
        msg_buf_reset(nmbs);
 8001220:	687b      	ldr	r3, [r7, #4]
 8001222:	0018      	movs	r0, r3
 8001224:	f7ff fe0f 	bl	8000e46 <msg_buf_reset>

        nmbs->msg.transaction_id = get_2(nmbs);
 8001228:	687b      	ldr	r3, [r7, #4]
 800122a:	0018      	movs	r0, r3
 800122c:	f7ff fc3b 	bl	8000aa6 <get_2>
 8001230:	0003      	movs	r3, r0
 8001232:	0019      	movs	r1, r3
 8001234:	687a      	ldr	r2, [r7, #4]
 8001236:	2384      	movs	r3, #132	; 0x84
 8001238:	005b      	lsls	r3, r3, #1
 800123a:	52d1      	strh	r1, [r2, r3]
        const uint16_t protocol_id = get_2(nmbs);
 800123c:	2310      	movs	r3, #16
 800123e:	18fc      	adds	r4, r7, r3
 8001240:	687b      	ldr	r3, [r7, #4]
 8001242:	0018      	movs	r0, r3
 8001244:	f7ff fc2f 	bl	8000aa6 <get_2>
 8001248:	0003      	movs	r3, r0
 800124a:	8023      	strh	r3, [r4, #0]
        const uint16_t length = get_2(nmbs);
 800124c:	250e      	movs	r5, #14
 800124e:	197c      	adds	r4, r7, r5
 8001250:	687b      	ldr	r3, [r7, #4]
 8001252:	0018      	movs	r0, r3
 8001254:	f7ff fc27 	bl	8000aa6 <get_2>
 8001258:	0003      	movs	r3, r0
 800125a:	8023      	strh	r3, [r4, #0]
        nmbs->msg.unit_id = get_1(nmbs);
 800125c:	687b      	ldr	r3, [r7, #4]
 800125e:	0018      	movs	r0, r3
 8001260:	f7ff fbbc 	bl	80009dc <get_1>
 8001264:	0003      	movs	r3, r0
 8001266:	0019      	movs	r1, r3
 8001268:	687a      	ldr	r2, [r7, #4]
 800126a:	2383      	movs	r3, #131	; 0x83
 800126c:	005b      	lsls	r3, r3, #1
 800126e:	54d1      	strb	r1, [r2, r3]
        nmbs->msg.fc = get_1(nmbs);
 8001270:	687b      	ldr	r3, [r7, #4]
 8001272:	0018      	movs	r0, r3
 8001274:	f7ff fbb2 	bl	80009dc <get_1>
 8001278:	0003      	movs	r3, r0
 800127a:	0019      	movs	r1, r3
 800127c:	687a      	ldr	r2, [r7, #4]
 800127e:	2308      	movs	r3, #8
 8001280:	33ff      	adds	r3, #255	; 0xff
 8001282:	54d1      	strb	r1, [r2, r3]

        if (length < 2 || length > 255)
 8001284:	197b      	adds	r3, r7, r5
 8001286:	881b      	ldrh	r3, [r3, #0]
 8001288:	2b01      	cmp	r3, #1
 800128a:	d903      	bls.n	8001294 <recv_msg_header+0x1a2>
 800128c:	197b      	adds	r3, r7, r5
 800128e:	881b      	ldrh	r3, [r3, #0]
 8001290:	2bff      	cmp	r3, #255	; 0xff
 8001292:	d902      	bls.n	800129a <recv_msg_header+0x1a8>
            return NMBS_ERROR_INVALID_TCP_MBAP;
 8001294:	2306      	movs	r3, #6
 8001296:	425b      	negs	r3, r3
 8001298:	e024      	b.n	80012e4 <recv_msg_header+0x1f2>

        // Receive the rest of the message
        err = recv(nmbs, length - 2);
 800129a:	230e      	movs	r3, #14
 800129c:	18fb      	adds	r3, r7, r3
 800129e:	881b      	ldrh	r3, [r3, #0]
 80012a0:	3b02      	subs	r3, #2
 80012a2:	b29a      	uxth	r2, r3
 80012a4:	2513      	movs	r5, #19
 80012a6:	197c      	adds	r4, r7, r5
 80012a8:	687b      	ldr	r3, [r7, #4]
 80012aa:	0011      	movs	r1, r2
 80012ac:	0018      	movs	r0, r3
 80012ae:	f7ff fd3b 	bl	8000d28 <recv>
 80012b2:	0003      	movs	r3, r0
 80012b4:	7023      	strb	r3, [r4, #0]
        if (err != NMBS_ERROR_NONE)
 80012b6:	197b      	adds	r3, r7, r5
 80012b8:	781b      	ldrb	r3, [r3, #0]
 80012ba:	b25b      	sxtb	r3, r3
 80012bc:	2b00      	cmp	r3, #0
 80012be:	d003      	beq.n	80012c8 <recv_msg_header+0x1d6>
            return err;
 80012c0:	197b      	adds	r3, r7, r5
 80012c2:	781b      	ldrb	r3, [r3, #0]
 80012c4:	b25b      	sxtb	r3, r3
 80012c6:	e00d      	b.n	80012e4 <recv_msg_header+0x1f2>

        if (protocol_id != 0)
 80012c8:	2310      	movs	r3, #16
 80012ca:	18fb      	adds	r3, r7, r3
 80012cc:	881b      	ldrh	r3, [r3, #0]
 80012ce:	2b00      	cmp	r3, #0
 80012d0:	d002      	beq.n	80012d8 <recv_msg_header+0x1e6>
            return NMBS_ERROR_INVALID_TCP_MBAP;
 80012d2:	2306      	movs	r3, #6
 80012d4:	425b      	negs	r3, r3
 80012d6:	e005      	b.n	80012e4 <recv_msg_header+0x1f2>

        nmbs->msg.complete = true;
 80012d8:	687a      	ldr	r2, [r7, #4]
 80012da:	2386      	movs	r3, #134	; 0x86
 80012dc:	005b      	lsls	r3, r3, #1
 80012de:	2101      	movs	r1, #1
 80012e0:	54d1      	strb	r1, [r2, r3]
    }

    return NMBS_ERROR_NONE;
 80012e2:	2300      	movs	r3, #0
}
 80012e4:	0018      	movs	r0, r3
 80012e6:	46bd      	mov	sp, r7
 80012e8:	b006      	add	sp, #24
 80012ea:	bdb0      	pop	{r4, r5, r7, pc}

080012ec <put_msg_header>:


static void put_msg_header(nmbs_t* nmbs, uint16_t data_length) {
 80012ec:	b580      	push	{r7, lr}
 80012ee:	b082      	sub	sp, #8
 80012f0:	af00      	add	r7, sp, #0
 80012f2:	6078      	str	r0, [r7, #4]
 80012f4:	000a      	movs	r2, r1
 80012f6:	1cbb      	adds	r3, r7, #2
 80012f8:	801a      	strh	r2, [r3, #0]
    msg_buf_reset(nmbs);
 80012fa:	687b      	ldr	r3, [r7, #4]
 80012fc:	0018      	movs	r0, r3
 80012fe:	f7ff fda2 	bl	8000e46 <msg_buf_reset>

    if (nmbs->platform.transport == NMBS_TRANSPORT_RTU) {
 8001302:	687a      	ldr	r2, [r7, #4]
 8001304:	23a8      	movs	r3, #168	; 0xa8
 8001306:	005b      	lsls	r3, r3, #1
 8001308:	5cd3      	ldrb	r3, [r2, r3]
 800130a:	2b01      	cmp	r3, #1
 800130c:	d109      	bne.n	8001322 <put_msg_header+0x36>
        put_1(nmbs, nmbs->msg.unit_id);
 800130e:	687a      	ldr	r2, [r7, #4]
 8001310:	2383      	movs	r3, #131	; 0x83
 8001312:	005b      	lsls	r3, r3, #1
 8001314:	5cd2      	ldrb	r2, [r2, r3]
 8001316:	687b      	ldr	r3, [r7, #4]
 8001318:	0011      	movs	r1, r2
 800131a:	0018      	movs	r0, r3
 800131c:	f7ff fb7c 	bl	8000a18 <put_1>
 8001320:	e025      	b.n	800136e <put_msg_header+0x82>
    }
    else if (nmbs->platform.transport == NMBS_TRANSPORT_TCP) {
 8001322:	687a      	ldr	r2, [r7, #4]
 8001324:	23a8      	movs	r3, #168	; 0xa8
 8001326:	005b      	lsls	r3, r3, #1
 8001328:	5cd3      	ldrb	r3, [r2, r3]
 800132a:	2b02      	cmp	r3, #2
 800132c:	d11f      	bne.n	800136e <put_msg_header+0x82>
        put_2(nmbs, nmbs->msg.transaction_id);
 800132e:	687a      	ldr	r2, [r7, #4]
 8001330:	2384      	movs	r3, #132	; 0x84
 8001332:	005b      	lsls	r3, r3, #1
 8001334:	5ad2      	ldrh	r2, [r2, r3]
 8001336:	687b      	ldr	r3, [r7, #4]
 8001338:	0011      	movs	r1, r2
 800133a:	0018      	movs	r0, r3
 800133c:	f7ff fbdd 	bl	8000afa <put_2>
        put_2(nmbs, 0);
 8001340:	687b      	ldr	r3, [r7, #4]
 8001342:	2100      	movs	r1, #0
 8001344:	0018      	movs	r0, r3
 8001346:	f7ff fbd8 	bl	8000afa <put_2>
        put_2(nmbs, (uint16_t) (1 + 1 + data_length));
 800134a:	1cbb      	adds	r3, r7, #2
 800134c:	881b      	ldrh	r3, [r3, #0]
 800134e:	3302      	adds	r3, #2
 8001350:	b29a      	uxth	r2, r3
 8001352:	687b      	ldr	r3, [r7, #4]
 8001354:	0011      	movs	r1, r2
 8001356:	0018      	movs	r0, r3
 8001358:	f7ff fbcf 	bl	8000afa <put_2>
        put_1(nmbs, nmbs->msg.unit_id);
 800135c:	687a      	ldr	r2, [r7, #4]
 800135e:	2383      	movs	r3, #131	; 0x83
 8001360:	005b      	lsls	r3, r3, #1
 8001362:	5cd2      	ldrb	r2, [r2, r3]
 8001364:	687b      	ldr	r3, [r7, #4]
 8001366:	0011      	movs	r1, r2
 8001368:	0018      	movs	r0, r3
 800136a:	f7ff fb55 	bl	8000a18 <put_1>
    }

    put_1(nmbs, nmbs->msg.fc);
 800136e:	687a      	ldr	r2, [r7, #4]
 8001370:	2308      	movs	r3, #8
 8001372:	33ff      	adds	r3, #255	; 0xff
 8001374:	5cd2      	ldrb	r2, [r2, r3]
 8001376:	687b      	ldr	r3, [r7, #4]
 8001378:	0011      	movs	r1, r2
 800137a:	0018      	movs	r0, r3
 800137c:	f7ff fb4c 	bl	8000a18 <put_1>
}
 8001380:	46c0      	nop			; (mov r8, r8)
 8001382:	46bd      	mov	sp, r7
 8001384:	b002      	add	sp, #8
 8001386:	bd80      	pop	{r7, pc}

08001388 <set_msg_header_size>:


#ifndef NMBS_SERVER_DISABLED
#ifndef NMBS_SERVER_READ_DEVICE_IDENTIFICATION_DISABLED
static void set_msg_header_size(nmbs_t* nmbs, uint16_t data_length) {
 8001388:	b580      	push	{r7, lr}
 800138a:	b082      	sub	sp, #8
 800138c:	af00      	add	r7, sp, #0
 800138e:	6078      	str	r0, [r7, #4]
 8001390:	000a      	movs	r2, r1
 8001392:	1cbb      	adds	r3, r7, #2
 8001394:	801a      	strh	r2, [r3, #0]
    if (nmbs->platform.transport == NMBS_TRANSPORT_TCP) {
 8001396:	687a      	ldr	r2, [r7, #4]
 8001398:	23a8      	movs	r3, #168	; 0xa8
 800139a:	005b      	lsls	r3, r3, #1
 800139c:	5cd3      	ldrb	r3, [r2, r3]
 800139e:	2b02      	cmp	r3, #2
 80013a0:	d10b      	bne.n	80013ba <set_msg_header_size+0x32>
        data_length += 2;
 80013a2:	1cbb      	adds	r3, r7, #2
 80013a4:	1cba      	adds	r2, r7, #2
 80013a6:	8812      	ldrh	r2, [r2, #0]
 80013a8:	3202      	adds	r2, #2
 80013aa:	801a      	strh	r2, [r3, #0]
        set_2(nmbs, data_length, 4);
 80013ac:	1cbb      	adds	r3, r7, #2
 80013ae:	8819      	ldrh	r1, [r3, #0]
 80013b0:	687b      	ldr	r3, [r7, #4]
 80013b2:	2204      	movs	r2, #4
 80013b4:	0018      	movs	r0, r3
 80013b6:	f7ff fbe1 	bl	8000b7c <set_2>
    }
}
 80013ba:	46c0      	nop			; (mov r8, r8)
 80013bc:	46bd      	mov	sp, r7
 80013be:	b002      	add	sp, #8
 80013c0:	bd80      	pop	{r7, pc}

080013c2 <send_msg>:
#endif
#endif


static nmbs_error send_msg(nmbs_t* nmbs) {
 80013c2:	b5f0      	push	{r4, r5, r6, r7, lr}
 80013c4:	b085      	sub	sp, #20
 80013c6:	af00      	add	r7, sp, #0
 80013c8:	6078      	str	r0, [r7, #4]
    NMBS_DEBUG_PRINT("\n");

    if (nmbs->platform.transport == NMBS_TRANSPORT_RTU) {
 80013ca:	687a      	ldr	r2, [r7, #4]
 80013cc:	23a8      	movs	r3, #168	; 0xa8
 80013ce:	005b      	lsls	r3, r3, #1
 80013d0:	5cd3      	ldrb	r3, [r2, r3]
 80013d2:	2b01      	cmp	r3, #1
 80013d4:	d11a      	bne.n	800140c <send_msg+0x4a>
        const uint16_t crc = nmbs->platform.crc_calc(nmbs->msg.buf, nmbs->msg.buf_idx, nmbs->platform.arg);
 80013d6:	687a      	ldr	r2, [r7, #4]
 80013d8:	23ae      	movs	r3, #174	; 0xae
 80013da:	005b      	lsls	r3, r3, #1
 80013dc:	58d3      	ldr	r3, [r2, r3]
 80013de:	6878      	ldr	r0, [r7, #4]
 80013e0:	6879      	ldr	r1, [r7, #4]
 80013e2:	2282      	movs	r2, #130	; 0x82
 80013e4:	0052      	lsls	r2, r2, #1
 80013e6:	5a8a      	ldrh	r2, [r1, r2]
 80013e8:	0015      	movs	r5, r2
 80013ea:	6879      	ldr	r1, [r7, #4]
 80013ec:	22b2      	movs	r2, #178	; 0xb2
 80013ee:	0052      	lsls	r2, r2, #1
 80013f0:	588a      	ldr	r2, [r1, r2]
 80013f2:	260e      	movs	r6, #14
 80013f4:	19bc      	adds	r4, r7, r6
 80013f6:	0029      	movs	r1, r5
 80013f8:	4798      	blx	r3
 80013fa:	0003      	movs	r3, r0
 80013fc:	8023      	strh	r3, [r4, #0]
        put_2(nmbs, crc);
 80013fe:	19bb      	adds	r3, r7, r6
 8001400:	881a      	ldrh	r2, [r3, #0]
 8001402:	687b      	ldr	r3, [r7, #4]
 8001404:	0011      	movs	r1, r2
 8001406:	0018      	movs	r0, r3
 8001408:	f7ff fb77 	bl	8000afa <put_2>
    }

    const nmbs_error err = send(nmbs, nmbs->msg.buf_idx);
 800140c:	687a      	ldr	r2, [r7, #4]
 800140e:	2382      	movs	r3, #130	; 0x82
 8001410:	005b      	lsls	r3, r3, #1
 8001412:	5ad2      	ldrh	r2, [r2, r3]
 8001414:	250d      	movs	r5, #13
 8001416:	197c      	adds	r4, r7, r5
 8001418:	687b      	ldr	r3, [r7, #4]
 800141a:	0011      	movs	r1, r2
 800141c:	0018      	movs	r0, r3
 800141e:	f7ff fcc6 	bl	8000dae <send>
 8001422:	0003      	movs	r3, r0
 8001424:	7023      	strb	r3, [r4, #0]

    return err;
 8001426:	197b      	adds	r3, r7, r5
 8001428:	781b      	ldrb	r3, [r3, #0]
 800142a:	b25b      	sxtb	r3, r3
}
 800142c:	0018      	movs	r0, r3
 800142e:	46bd      	mov	sp, r7
 8001430:	b005      	add	sp, #20
 8001432:	bdf0      	pop	{r4, r5, r6, r7, pc}

08001434 <recv_req_header>:


#ifndef NMBS_SERVER_DISABLED
static nmbs_error recv_req_header(nmbs_t* nmbs, bool* first_byte_received) {
 8001434:	b5b0      	push	{r4, r5, r7, lr}
 8001436:	b084      	sub	sp, #16
 8001438:	af00      	add	r7, sp, #0
 800143a:	6078      	str	r0, [r7, #4]
 800143c:	6039      	str	r1, [r7, #0]
    const nmbs_error err = recv_msg_header(nmbs, first_byte_received);
 800143e:	250f      	movs	r5, #15
 8001440:	197c      	adds	r4, r7, r5
 8001442:	683a      	ldr	r2, [r7, #0]
 8001444:	687b      	ldr	r3, [r7, #4]
 8001446:	0011      	movs	r1, r2
 8001448:	0018      	movs	r0, r3
 800144a:	f7ff fe52 	bl	80010f2 <recv_msg_header>
 800144e:	0003      	movs	r3, r0
 8001450:	7023      	strb	r3, [r4, #0]
    if (err != NMBS_ERROR_NONE)
 8001452:	197b      	adds	r3, r7, r5
 8001454:	781b      	ldrb	r3, [r3, #0]
 8001456:	b25b      	sxtb	r3, r3
 8001458:	2b00      	cmp	r3, #0
 800145a:	d003      	beq.n	8001464 <recv_req_header+0x30>
        return err;
 800145c:	197b      	adds	r3, r7, r5
 800145e:	781b      	ldrb	r3, [r3, #0]
 8001460:	b25b      	sxtb	r3, r3
 8001462:	e028      	b.n	80014b6 <recv_req_header+0x82>

    if (nmbs->platform.transport == NMBS_TRANSPORT_RTU) {
 8001464:	687a      	ldr	r2, [r7, #4]
 8001466:	23a8      	movs	r3, #168	; 0xa8
 8001468:	005b      	lsls	r3, r3, #1
 800146a:	5cd3      	ldrb	r3, [r2, r3]
 800146c:	2b01      	cmp	r3, #1
 800146e:	d121      	bne.n	80014b4 <recv_req_header+0x80>
        // Check if the request is for us
        if (nmbs->msg.unit_id == NMBS_BROADCAST_ADDRESS)
 8001470:	687a      	ldr	r2, [r7, #4]
 8001472:	2383      	movs	r3, #131	; 0x83
 8001474:	005b      	lsls	r3, r3, #1
 8001476:	5cd3      	ldrb	r3, [r2, r3]
 8001478:	2200      	movs	r2, #0
 800147a:	4293      	cmp	r3, r2
 800147c:	d105      	bne.n	800148a <recv_req_header+0x56>
            nmbs->msg.broadcast = true;
 800147e:	687a      	ldr	r2, [r7, #4]
 8001480:	2385      	movs	r3, #133	; 0x85
 8001482:	005b      	lsls	r3, r3, #1
 8001484:	2101      	movs	r1, #1
 8001486:	54d1      	strb	r1, [r2, r3]
 8001488:	e014      	b.n	80014b4 <recv_req_header+0x80>
        else if (nmbs->msg.unit_id != nmbs->address_rtu)
 800148a:	687a      	ldr	r2, [r7, #4]
 800148c:	2383      	movs	r3, #131	; 0x83
 800148e:	005b      	lsls	r3, r3, #1
 8001490:	5cd2      	ldrb	r2, [r2, r3]
 8001492:	6879      	ldr	r1, [r7, #4]
 8001494:	23b6      	movs	r3, #182	; 0xb6
 8001496:	005b      	lsls	r3, r3, #1
 8001498:	5ccb      	ldrb	r3, [r1, r3]
 800149a:	429a      	cmp	r2, r3
 800149c:	d005      	beq.n	80014aa <recv_req_header+0x76>
            nmbs->msg.ignored = true;
 800149e:	687a      	ldr	r2, [r7, #4]
 80014a0:	230c      	movs	r3, #12
 80014a2:	33ff      	adds	r3, #255	; 0xff
 80014a4:	2101      	movs	r1, #1
 80014a6:	54d1      	strb	r1, [r2, r3]
 80014a8:	e004      	b.n	80014b4 <recv_req_header+0x80>
        else
            nmbs->msg.ignored = false;
 80014aa:	687a      	ldr	r2, [r7, #4]
 80014ac:	230c      	movs	r3, #12
 80014ae:	33ff      	adds	r3, #255	; 0xff
 80014b0:	2100      	movs	r1, #0
 80014b2:	54d1      	strb	r1, [r2, r3]
    }

    return NMBS_ERROR_NONE;
 80014b4:	2300      	movs	r3, #0
}
 80014b6:	0018      	movs	r0, r3
 80014b8:	46bd      	mov	sp, r7
 80014ba:	b004      	add	sp, #16
 80014bc:	bdb0      	pop	{r4, r5, r7, pc}

080014be <put_res_header>:


static void put_res_header(nmbs_t* nmbs, uint16_t data_length) {
 80014be:	b580      	push	{r7, lr}
 80014c0:	b082      	sub	sp, #8
 80014c2:	af00      	add	r7, sp, #0
 80014c4:	6078      	str	r0, [r7, #4]
 80014c6:	000a      	movs	r2, r1
 80014c8:	1cbb      	adds	r3, r7, #2
 80014ca:	801a      	strh	r2, [r3, #0]
    put_msg_header(nmbs, data_length);
 80014cc:	1cbb      	adds	r3, r7, #2
 80014ce:	881a      	ldrh	r2, [r3, #0]
 80014d0:	687b      	ldr	r3, [r7, #4]
 80014d2:	0011      	movs	r1, r2
 80014d4:	0018      	movs	r0, r3
 80014d6:	f7ff ff09 	bl	80012ec <put_msg_header>
    NMBS_DEBUG_PRINT("%d NMBS res -> address_rtu %d\tfc %d\t", nmbs->address_rtu, nmbs->address_rtu, nmbs->msg.fc);
}
 80014da:	46c0      	nop			; (mov r8, r8)
 80014dc:	46bd      	mov	sp, r7
 80014de:	b002      	add	sp, #8
 80014e0:	bd80      	pop	{r7, pc}

080014e2 <send_exception_msg>:


static nmbs_error send_exception_msg(nmbs_t* nmbs, uint8_t exception) {
 80014e2:	b580      	push	{r7, lr}
 80014e4:	b082      	sub	sp, #8
 80014e6:	af00      	add	r7, sp, #0
 80014e8:	6078      	str	r0, [r7, #4]
 80014ea:	000a      	movs	r2, r1
 80014ec:	1cfb      	adds	r3, r7, #3
 80014ee:	701a      	strb	r2, [r3, #0]
    if (nmbs->msg.broadcast) {
 80014f0:	687a      	ldr	r2, [r7, #4]
 80014f2:	2385      	movs	r3, #133	; 0x85
 80014f4:	005b      	lsls	r3, r3, #1
 80014f6:	5cd3      	ldrb	r3, [r2, r3]
 80014f8:	2b00      	cmp	r3, #0
 80014fa:	d001      	beq.n	8001500 <send_exception_msg+0x1e>
        return NMBS_ERROR_NONE;
 80014fc:	2300      	movs	r3, #0
 80014fe:	e01a      	b.n	8001536 <send_exception_msg+0x54>
    }

    nmbs->msg.fc += 0x80;
 8001500:	687a      	ldr	r2, [r7, #4]
 8001502:	2308      	movs	r3, #8
 8001504:	33ff      	adds	r3, #255	; 0xff
 8001506:	5cd3      	ldrb	r3, [r2, r3]
 8001508:	3b80      	subs	r3, #128	; 0x80
 800150a:	b2d9      	uxtb	r1, r3
 800150c:	687a      	ldr	r2, [r7, #4]
 800150e:	2308      	movs	r3, #8
 8001510:	33ff      	adds	r3, #255	; 0xff
 8001512:	54d1      	strb	r1, [r2, r3]
    put_msg_header(nmbs, 1);
 8001514:	687b      	ldr	r3, [r7, #4]
 8001516:	2101      	movs	r1, #1
 8001518:	0018      	movs	r0, r3
 800151a:	f7ff fee7 	bl	80012ec <put_msg_header>
    put_1(nmbs, exception);
 800151e:	1cfb      	adds	r3, r7, #3
 8001520:	781a      	ldrb	r2, [r3, #0]
 8001522:	687b      	ldr	r3, [r7, #4]
 8001524:	0011      	movs	r1, r2
 8001526:	0018      	movs	r0, r3
 8001528:	f7ff fa76 	bl	8000a18 <put_1>

    NMBS_DEBUG_PRINT("%d NMBS res -> address_rtu %d\texception %d", nmbs->address_rtu, nmbs->address_rtu, exception);

    return send_msg(nmbs);
 800152c:	687b      	ldr	r3, [r7, #4]
 800152e:	0018      	movs	r0, r3
 8001530:	f7ff ff47 	bl	80013c2 <send_msg>
 8001534:	0003      	movs	r3, r0
}
 8001536:	0018      	movs	r0, r3
 8001538:	46bd      	mov	sp, r7
 800153a:	b002      	add	sp, #8
 800153c:	bd80      	pop	{r7, pc}

0800153e <recv_res_header>:
#endif


static nmbs_error recv_res_header(nmbs_t* nmbs) {
 800153e:	b5b0      	push	{r4, r5, r7, lr}
 8001540:	b084      	sub	sp, #16
 8001542:	af00      	add	r7, sp, #0
 8001544:	6078      	str	r0, [r7, #4]
    const uint16_t req_transaction_id = nmbs->msg.transaction_id;
 8001546:	230e      	movs	r3, #14
 8001548:	18fb      	adds	r3, r7, r3
 800154a:	6879      	ldr	r1, [r7, #4]
 800154c:	2284      	movs	r2, #132	; 0x84
 800154e:	0052      	lsls	r2, r2, #1
 8001550:	5a8a      	ldrh	r2, [r1, r2]
 8001552:	801a      	strh	r2, [r3, #0]
    const uint8_t req_unit_id = nmbs->msg.unit_id;
 8001554:	230d      	movs	r3, #13
 8001556:	18fb      	adds	r3, r7, r3
 8001558:	6879      	ldr	r1, [r7, #4]
 800155a:	2283      	movs	r2, #131	; 0x83
 800155c:	0052      	lsls	r2, r2, #1
 800155e:	5c8a      	ldrb	r2, [r1, r2]
 8001560:	701a      	strb	r2, [r3, #0]
    const uint8_t req_fc = nmbs->msg.fc;
 8001562:	230c      	movs	r3, #12
 8001564:	18fb      	adds	r3, r7, r3
 8001566:	6879      	ldr	r1, [r7, #4]
 8001568:	2208      	movs	r2, #8
 800156a:	32ff      	adds	r2, #255	; 0xff
 800156c:	5c8a      	ldrb	r2, [r1, r2]
 800156e:	701a      	strb	r2, [r3, #0]

    bool first_byte_received = false;
 8001570:	2109      	movs	r1, #9
 8001572:	187b      	adds	r3, r7, r1
 8001574:	2200      	movs	r2, #0
 8001576:	701a      	strb	r2, [r3, #0]
    nmbs_error err = recv_msg_header(nmbs, &first_byte_received);
 8001578:	250b      	movs	r5, #11
 800157a:	197c      	adds	r4, r7, r5
 800157c:	187a      	adds	r2, r7, r1
 800157e:	687b      	ldr	r3, [r7, #4]
 8001580:	0011      	movs	r1, r2
 8001582:	0018      	movs	r0, r3
 8001584:	f7ff fdb5 	bl	80010f2 <recv_msg_header>
 8001588:	0003      	movs	r3, r0
 800158a:	7023      	strb	r3, [r4, #0]
    if (err != NMBS_ERROR_NONE)
 800158c:	197b      	adds	r3, r7, r5
 800158e:	781b      	ldrb	r3, [r3, #0]
 8001590:	b25b      	sxtb	r3, r3
 8001592:	2b00      	cmp	r3, #0
 8001594:	d003      	beq.n	800159e <recv_res_header+0x60>
        return err;
 8001596:	197b      	adds	r3, r7, r5
 8001598:	781b      	ldrb	r3, [r3, #0]
 800159a:	b25b      	sxtb	r3, r3
 800159c:	e076      	b.n	800168c <recv_res_header+0x14e>

    if (nmbs->platform.transport == NMBS_TRANSPORT_TCP) {
 800159e:	687a      	ldr	r2, [r7, #4]
 80015a0:	23a8      	movs	r3, #168	; 0xa8
 80015a2:	005b      	lsls	r3, r3, #1
 80015a4:	5cd3      	ldrb	r3, [r2, r3]
 80015a6:	2b02      	cmp	r3, #2
 80015a8:	d10b      	bne.n	80015c2 <recv_res_header+0x84>
        if (nmbs->msg.transaction_id != req_transaction_id)
 80015aa:	687a      	ldr	r2, [r7, #4]
 80015ac:	2384      	movs	r3, #132	; 0x84
 80015ae:	005b      	lsls	r3, r3, #1
 80015b0:	5ad3      	ldrh	r3, [r2, r3]
 80015b2:	220e      	movs	r2, #14
 80015b4:	18ba      	adds	r2, r7, r2
 80015b6:	8812      	ldrh	r2, [r2, #0]
 80015b8:	429a      	cmp	r2, r3
 80015ba:	d002      	beq.n	80015c2 <recv_res_header+0x84>
            return NMBS_ERROR_INVALID_TCP_MBAP;
 80015bc:	2306      	movs	r3, #6
 80015be:	425b      	negs	r3, r3
 80015c0:	e064      	b.n	800168c <recv_res_header+0x14e>
    }

    if (nmbs->platform.transport == NMBS_TRANSPORT_RTU && nmbs->msg.unit_id != req_unit_id)
 80015c2:	687a      	ldr	r2, [r7, #4]
 80015c4:	23a8      	movs	r3, #168	; 0xa8
 80015c6:	005b      	lsls	r3, r3, #1
 80015c8:	5cd3      	ldrb	r3, [r2, r3]
 80015ca:	2b01      	cmp	r3, #1
 80015cc:	d10b      	bne.n	80015e6 <recv_res_header+0xa8>
 80015ce:	687a      	ldr	r2, [r7, #4]
 80015d0:	2383      	movs	r3, #131	; 0x83
 80015d2:	005b      	lsls	r3, r3, #1
 80015d4:	5cd3      	ldrb	r3, [r2, r3]
 80015d6:	220d      	movs	r2, #13
 80015d8:	18ba      	adds	r2, r7, r2
 80015da:	7812      	ldrb	r2, [r2, #0]
 80015dc:	429a      	cmp	r2, r3
 80015de:	d002      	beq.n	80015e6 <recv_res_header+0xa8>
        return NMBS_ERROR_INVALID_UNIT_ID;
 80015e0:	2307      	movs	r3, #7
 80015e2:	425b      	negs	r3, r3
 80015e4:	e052      	b.n	800168c <recv_res_header+0x14e>

    if (nmbs->msg.fc != req_fc) {
 80015e6:	687a      	ldr	r2, [r7, #4]
 80015e8:	2308      	movs	r3, #8
 80015ea:	33ff      	adds	r3, #255	; 0xff
 80015ec:	5cd3      	ldrb	r3, [r2, r3]
 80015ee:	210c      	movs	r1, #12
 80015f0:	187a      	adds	r2, r7, r1
 80015f2:	7812      	ldrb	r2, [r2, #0]
 80015f4:	429a      	cmp	r2, r3
 80015f6:	d048      	beq.n	800168a <recv_res_header+0x14c>
        if (nmbs->msg.fc - 0x80 == req_fc) {
 80015f8:	687a      	ldr	r2, [r7, #4]
 80015fa:	2308      	movs	r3, #8
 80015fc:	33ff      	adds	r3, #255	; 0xff
 80015fe:	5cd3      	ldrb	r3, [r2, r3]
 8001600:	3b80      	subs	r3, #128	; 0x80
 8001602:	001a      	movs	r2, r3
 8001604:	187b      	adds	r3, r7, r1
 8001606:	781b      	ldrb	r3, [r3, #0]
 8001608:	429a      	cmp	r2, r3
 800160a:	d13b      	bne.n	8001684 <recv_res_header+0x146>
            err = recv(nmbs, 1);
 800160c:	250b      	movs	r5, #11
 800160e:	197c      	adds	r4, r7, r5
 8001610:	687b      	ldr	r3, [r7, #4]
 8001612:	2101      	movs	r1, #1
 8001614:	0018      	movs	r0, r3
 8001616:	f7ff fb87 	bl	8000d28 <recv>
 800161a:	0003      	movs	r3, r0
 800161c:	7023      	strb	r3, [r4, #0]
            if (err != NMBS_ERROR_NONE)
 800161e:	197b      	adds	r3, r7, r5
 8001620:	781b      	ldrb	r3, [r3, #0]
 8001622:	b25b      	sxtb	r3, r3
 8001624:	2b00      	cmp	r3, #0
 8001626:	d003      	beq.n	8001630 <recv_res_header+0xf2>
                return err;
 8001628:	197b      	adds	r3, r7, r5
 800162a:	781b      	ldrb	r3, [r3, #0]
 800162c:	b25b      	sxtb	r3, r3
 800162e:	e02d      	b.n	800168c <recv_res_header+0x14e>

            const uint8_t exception = get_1(nmbs);
 8001630:	230a      	movs	r3, #10
 8001632:	18fc      	adds	r4, r7, r3
 8001634:	687b      	ldr	r3, [r7, #4]
 8001636:	0018      	movs	r0, r3
 8001638:	f7ff f9d0 	bl	80009dc <get_1>
 800163c:	0003      	movs	r3, r0
 800163e:	7023      	strb	r3, [r4, #0]
            err = recv_msg_footer(nmbs);
 8001640:	250b      	movs	r5, #11
 8001642:	197c      	adds	r4, r7, r5
 8001644:	687b      	ldr	r3, [r7, #4]
 8001646:	0018      	movs	r0, r3
 8001648:	f7ff fd0c 	bl	8001064 <recv_msg_footer>
 800164c:	0003      	movs	r3, r0
 800164e:	7023      	strb	r3, [r4, #0]
            if (err != NMBS_ERROR_NONE)
 8001650:	197b      	adds	r3, r7, r5
 8001652:	781b      	ldrb	r3, [r3, #0]
 8001654:	b25b      	sxtb	r3, r3
 8001656:	2b00      	cmp	r3, #0
 8001658:	d003      	beq.n	8001662 <recv_res_header+0x124>
                return err;
 800165a:	197b      	adds	r3, r7, r5
 800165c:	781b      	ldrb	r3, [r3, #0]
 800165e:	b25b      	sxtb	r3, r3
 8001660:	e014      	b.n	800168c <recv_res_header+0x14e>

            if (exception < 1 || exception > 4)
 8001662:	220a      	movs	r2, #10
 8001664:	18bb      	adds	r3, r7, r2
 8001666:	781b      	ldrb	r3, [r3, #0]
 8001668:	2b00      	cmp	r3, #0
 800166a:	d003      	beq.n	8001674 <recv_res_header+0x136>
 800166c:	18bb      	adds	r3, r7, r2
 800166e:	781b      	ldrb	r3, [r3, #0]
 8001670:	2b04      	cmp	r3, #4
 8001672:	d902      	bls.n	800167a <recv_res_header+0x13c>
                return NMBS_ERROR_INVALID_RESPONSE;
 8001674:	2302      	movs	r3, #2
 8001676:	425b      	negs	r3, r3
 8001678:	e008      	b.n	800168c <recv_res_header+0x14e>

            NMBS_DEBUG_PRINT("%d NMBS res <- address_rtu %d\texception %d\n", nmbs->address_rtu, nmbs->msg.unit_id,
                             exception);
            return (nmbs_error) exception;
 800167a:	230a      	movs	r3, #10
 800167c:	18fb      	adds	r3, r7, r3
 800167e:	781b      	ldrb	r3, [r3, #0]
 8001680:	b25b      	sxtb	r3, r3
 8001682:	e003      	b.n	800168c <recv_res_header+0x14e>
        }

        return NMBS_ERROR_INVALID_RESPONSE;
 8001684:	2302      	movs	r3, #2
 8001686:	425b      	negs	r3, r3
 8001688:	e000      	b.n	800168c <recv_res_header+0x14e>
    }

    NMBS_DEBUG_PRINT("%d NMBS res <- address_rtu %d\tfc %d\t", nmbs->address_rtu, nmbs->msg.unit_id, nmbs->msg.fc);

    return NMBS_ERROR_NONE;
 800168a:	2300      	movs	r3, #0
}
 800168c:	0018      	movs	r0, r3
 800168e:	46bd      	mov	sp, r7
 8001690:	b004      	add	sp, #16
 8001692:	bdb0      	pop	{r4, r5, r7, pc}

08001694 <recv_read_discrete_res>:


#if !defined(NMBS_CLIENT_DISABLED) ||                                                                                  \
        (!defined(NMBS_SERVER_DISABLED) &&                                                                             \
         (!defined(NMBS_SERVER_READ_COILS_DISABLED) || !defined(NMBS_SERVER_READ_DISCRETE_INPUTS_DISABLED)))
static nmbs_error recv_read_discrete_res(nmbs_t* nmbs, nmbs_bitfield values) {
 8001694:	b5b0      	push	{r4, r5, r7, lr}
 8001696:	b084      	sub	sp, #16
 8001698:	af00      	add	r7, sp, #0
 800169a:	6078      	str	r0, [r7, #4]
 800169c:	6039      	str	r1, [r7, #0]
    nmbs_error err = recv_res_header(nmbs);
 800169e:	250b      	movs	r5, #11
 80016a0:	197c      	adds	r4, r7, r5
 80016a2:	687b      	ldr	r3, [r7, #4]
 80016a4:	0018      	movs	r0, r3
 80016a6:	f7ff ff4a 	bl	800153e <recv_res_header>
 80016aa:	0003      	movs	r3, r0
 80016ac:	7023      	strb	r3, [r4, #0]
    if (err != NMBS_ERROR_NONE)
 80016ae:	197b      	adds	r3, r7, r5
 80016b0:	781b      	ldrb	r3, [r3, #0]
 80016b2:	b25b      	sxtb	r3, r3
 80016b4:	2b00      	cmp	r3, #0
 80016b6:	d003      	beq.n	80016c0 <recv_read_discrete_res+0x2c>
        return err;
 80016b8:	197b      	adds	r3, r7, r5
 80016ba:	781b      	ldrb	r3, [r3, #0]
 80016bc:	b25b      	sxtb	r3, r3
 80016be:	e065      	b.n	800178c <recv_read_discrete_res+0xf8>

    err = recv(nmbs, 1);
 80016c0:	250b      	movs	r5, #11
 80016c2:	197c      	adds	r4, r7, r5
 80016c4:	687b      	ldr	r3, [r7, #4]
 80016c6:	2101      	movs	r1, #1
 80016c8:	0018      	movs	r0, r3
 80016ca:	f7ff fb2d 	bl	8000d28 <recv>
 80016ce:	0003      	movs	r3, r0
 80016d0:	7023      	strb	r3, [r4, #0]
    if (err != NMBS_ERROR_NONE)
 80016d2:	197b      	adds	r3, r7, r5
 80016d4:	781b      	ldrb	r3, [r3, #0]
 80016d6:	b25b      	sxtb	r3, r3
 80016d8:	2b00      	cmp	r3, #0
 80016da:	d003      	beq.n	80016e4 <recv_read_discrete_res+0x50>
        return err;
 80016dc:	197b      	adds	r3, r7, r5
 80016de:	781b      	ldrb	r3, [r3, #0]
 80016e0:	b25b      	sxtb	r3, r3
 80016e2:	e053      	b.n	800178c <recv_read_discrete_res+0xf8>

    const uint8_t coils_bytes = get_1(nmbs);
 80016e4:	250a      	movs	r5, #10
 80016e6:	197c      	adds	r4, r7, r5
 80016e8:	687b      	ldr	r3, [r7, #4]
 80016ea:	0018      	movs	r0, r3
 80016ec:	f7ff f976 	bl	80009dc <get_1>
 80016f0:	0003      	movs	r3, r0
 80016f2:	7023      	strb	r3, [r4, #0]
    NMBS_DEBUG_PRINT("b %d\t", coils_bytes);

    if (coils_bytes > NMBS_BITFIELD_BYTES_MAX) {
 80016f4:	197b      	adds	r3, r7, r5
 80016f6:	781b      	ldrb	r3, [r3, #0]
 80016f8:	2bfa      	cmp	r3, #250	; 0xfa
 80016fa:	d902      	bls.n	8001702 <recv_read_discrete_res+0x6e>
        return NMBS_ERROR_INVALID_RESPONSE;
 80016fc:	2302      	movs	r3, #2
 80016fe:	425b      	negs	r3, r3
 8001700:	e044      	b.n	800178c <recv_read_discrete_res+0xf8>
    }

    err = recv(nmbs, coils_bytes);
 8001702:	230a      	movs	r3, #10
 8001704:	18fb      	adds	r3, r7, r3
 8001706:	781b      	ldrb	r3, [r3, #0]
 8001708:	b29a      	uxth	r2, r3
 800170a:	250b      	movs	r5, #11
 800170c:	197c      	adds	r4, r7, r5
 800170e:	687b      	ldr	r3, [r7, #4]
 8001710:	0011      	movs	r1, r2
 8001712:	0018      	movs	r0, r3
 8001714:	f7ff fb08 	bl	8000d28 <recv>
 8001718:	0003      	movs	r3, r0
 800171a:	7023      	strb	r3, [r4, #0]
    if (err != NMBS_ERROR_NONE)
 800171c:	197b      	adds	r3, r7, r5
 800171e:	781b      	ldrb	r3, [r3, #0]
 8001720:	b25b      	sxtb	r3, r3
 8001722:	2b00      	cmp	r3, #0
 8001724:	d003      	beq.n	800172e <recv_read_discrete_res+0x9a>
        return err;
 8001726:	197b      	adds	r3, r7, r5
 8001728:	781b      	ldrb	r3, [r3, #0]
 800172a:	b25b      	sxtb	r3, r3
 800172c:	e02e      	b.n	800178c <recv_read_discrete_res+0xf8>

    NMBS_DEBUG_PRINT("coils ");
    for (uint_fast8_t i = 0; i < coils_bytes; i++) {
 800172e:	2300      	movs	r3, #0
 8001730:	60fb      	str	r3, [r7, #12]
 8001732:	e013      	b.n	800175c <recv_read_discrete_res+0xc8>
        const uint8_t coil = get_1(nmbs);
 8001734:	2509      	movs	r5, #9
 8001736:	197c      	adds	r4, r7, r5
 8001738:	687b      	ldr	r3, [r7, #4]
 800173a:	0018      	movs	r0, r3
 800173c:	f7ff f94e 	bl	80009dc <get_1>
 8001740:	0003      	movs	r3, r0
 8001742:	7023      	strb	r3, [r4, #0]
        if (values)
 8001744:	683b      	ldr	r3, [r7, #0]
 8001746:	2b00      	cmp	r3, #0
 8001748:	d005      	beq.n	8001756 <recv_read_discrete_res+0xc2>
            values[i] = coil;
 800174a:	683a      	ldr	r2, [r7, #0]
 800174c:	68fb      	ldr	r3, [r7, #12]
 800174e:	18d3      	adds	r3, r2, r3
 8001750:	197a      	adds	r2, r7, r5
 8001752:	7812      	ldrb	r2, [r2, #0]
 8001754:	701a      	strb	r2, [r3, #0]
    for (uint_fast8_t i = 0; i < coils_bytes; i++) {
 8001756:	68fb      	ldr	r3, [r7, #12]
 8001758:	3301      	adds	r3, #1
 800175a:	60fb      	str	r3, [r7, #12]
 800175c:	230a      	movs	r3, #10
 800175e:	18fb      	adds	r3, r7, r3
 8001760:	781b      	ldrb	r3, [r3, #0]
 8001762:	68fa      	ldr	r2, [r7, #12]
 8001764:	429a      	cmp	r2, r3
 8001766:	d3e5      	bcc.n	8001734 <recv_read_discrete_res+0xa0>
        NMBS_DEBUG_PRINT("%d ", coil);
    }

    err = recv_msg_footer(nmbs);
 8001768:	250b      	movs	r5, #11
 800176a:	197c      	adds	r4, r7, r5
 800176c:	687b      	ldr	r3, [r7, #4]
 800176e:	0018      	movs	r0, r3
 8001770:	f7ff fc78 	bl	8001064 <recv_msg_footer>
 8001774:	0003      	movs	r3, r0
 8001776:	7023      	strb	r3, [r4, #0]
    if (err != NMBS_ERROR_NONE)
 8001778:	197b      	adds	r3, r7, r5
 800177a:	781b      	ldrb	r3, [r3, #0]
 800177c:	b25b      	sxtb	r3, r3
 800177e:	2b00      	cmp	r3, #0
 8001780:	d003      	beq.n	800178a <recv_read_discrete_res+0xf6>
        return err;
 8001782:	197b      	adds	r3, r7, r5
 8001784:	781b      	ldrb	r3, [r3, #0]
 8001786:	b25b      	sxtb	r3, r3
 8001788:	e000      	b.n	800178c <recv_read_discrete_res+0xf8>

    return NMBS_ERROR_NONE;
 800178a:	2300      	movs	r3, #0
}
 800178c:	0018      	movs	r0, r3
 800178e:	46bd      	mov	sp, r7
 8001790:	b004      	add	sp, #16
 8001792:	bdb0      	pop	{r4, r5, r7, pc}

08001794 <recv_read_registers_res>:


#if !defined(NMBS_CLIENT_DISABLED) ||                                                                                  \
        (!defined(NMBS_SERVER_DISABLED) && (!defined(NMBS_SERVER_READ_HOLDING_REGISTERS_DISABLED) ||                   \
                                            !defined(NMBS_SERVER_READ_INPUT_REGISTERS_DISABLED)))
static nmbs_error recv_read_registers_res(nmbs_t* nmbs, uint16_t quantity, uint16_t* registers) {
 8001794:	b5b0      	push	{r4, r5, r7, lr}
 8001796:	b086      	sub	sp, #24
 8001798:	af00      	add	r7, sp, #0
 800179a:	60f8      	str	r0, [r7, #12]
 800179c:	607a      	str	r2, [r7, #4]
 800179e:	230a      	movs	r3, #10
 80017a0:	18fb      	adds	r3, r7, r3
 80017a2:	1c0a      	adds	r2, r1, #0
 80017a4:	801a      	strh	r2, [r3, #0]
    nmbs_error err = recv_res_header(nmbs);
 80017a6:	2513      	movs	r5, #19
 80017a8:	197c      	adds	r4, r7, r5
 80017aa:	68fb      	ldr	r3, [r7, #12]
 80017ac:	0018      	movs	r0, r3
 80017ae:	f7ff fec6 	bl	800153e <recv_res_header>
 80017b2:	0003      	movs	r3, r0
 80017b4:	7023      	strb	r3, [r4, #0]
    if (err != NMBS_ERROR_NONE)
 80017b6:	197b      	adds	r3, r7, r5
 80017b8:	781b      	ldrb	r3, [r3, #0]
 80017ba:	b25b      	sxtb	r3, r3
 80017bc:	2b00      	cmp	r3, #0
 80017be:	d003      	beq.n	80017c8 <recv_read_registers_res+0x34>
        return err;
 80017c0:	197b      	adds	r3, r7, r5
 80017c2:	781b      	ldrb	r3, [r3, #0]
 80017c4:	b25b      	sxtb	r3, r3
 80017c6:	e071      	b.n	80018ac <recv_read_registers_res+0x118>

    err = recv(nmbs, 1);
 80017c8:	2513      	movs	r5, #19
 80017ca:	197c      	adds	r4, r7, r5
 80017cc:	68fb      	ldr	r3, [r7, #12]
 80017ce:	2101      	movs	r1, #1
 80017d0:	0018      	movs	r0, r3
 80017d2:	f7ff faa9 	bl	8000d28 <recv>
 80017d6:	0003      	movs	r3, r0
 80017d8:	7023      	strb	r3, [r4, #0]
    if (err != NMBS_ERROR_NONE)
 80017da:	197b      	adds	r3, r7, r5
 80017dc:	781b      	ldrb	r3, [r3, #0]
 80017de:	b25b      	sxtb	r3, r3
 80017e0:	2b00      	cmp	r3, #0
 80017e2:	d003      	beq.n	80017ec <recv_read_registers_res+0x58>
        return err;
 80017e4:	197b      	adds	r3, r7, r5
 80017e6:	781b      	ldrb	r3, [r3, #0]
 80017e8:	b25b      	sxtb	r3, r3
 80017ea:	e05f      	b.n	80018ac <recv_read_registers_res+0x118>

    const uint8_t registers_bytes = get_1(nmbs);
 80017ec:	2512      	movs	r5, #18
 80017ee:	197c      	adds	r4, r7, r5
 80017f0:	68fb      	ldr	r3, [r7, #12]
 80017f2:	0018      	movs	r0, r3
 80017f4:	f7ff f8f2 	bl	80009dc <get_1>
 80017f8:	0003      	movs	r3, r0
 80017fa:	7023      	strb	r3, [r4, #0]
    NMBS_DEBUG_PRINT("b %d\t", registers_bytes);

    if (registers_bytes > 250 || registers_bytes != quantity * 2)
 80017fc:	197b      	adds	r3, r7, r5
 80017fe:	781b      	ldrb	r3, [r3, #0]
 8001800:	2bfa      	cmp	r3, #250	; 0xfa
 8001802:	d807      	bhi.n	8001814 <recv_read_registers_res+0x80>
 8001804:	197b      	adds	r3, r7, r5
 8001806:	781a      	ldrb	r2, [r3, #0]
 8001808:	230a      	movs	r3, #10
 800180a:	18fb      	adds	r3, r7, r3
 800180c:	881b      	ldrh	r3, [r3, #0]
 800180e:	005b      	lsls	r3, r3, #1
 8001810:	429a      	cmp	r2, r3
 8001812:	d002      	beq.n	800181a <recv_read_registers_res+0x86>
        return NMBS_ERROR_INVALID_RESPONSE;
 8001814:	2302      	movs	r3, #2
 8001816:	425b      	negs	r3, r3
 8001818:	e048      	b.n	80018ac <recv_read_registers_res+0x118>

    err = recv(nmbs, registers_bytes);
 800181a:	2312      	movs	r3, #18
 800181c:	18fb      	adds	r3, r7, r3
 800181e:	781b      	ldrb	r3, [r3, #0]
 8001820:	b29a      	uxth	r2, r3
 8001822:	2513      	movs	r5, #19
 8001824:	197c      	adds	r4, r7, r5
 8001826:	68fb      	ldr	r3, [r7, #12]
 8001828:	0011      	movs	r1, r2
 800182a:	0018      	movs	r0, r3
 800182c:	f7ff fa7c 	bl	8000d28 <recv>
 8001830:	0003      	movs	r3, r0
 8001832:	7023      	strb	r3, [r4, #0]
    if (err != NMBS_ERROR_NONE)
 8001834:	197b      	adds	r3, r7, r5
 8001836:	781b      	ldrb	r3, [r3, #0]
 8001838:	b25b      	sxtb	r3, r3
 800183a:	2b00      	cmp	r3, #0
 800183c:	d003      	beq.n	8001846 <recv_read_registers_res+0xb2>
        return err;
 800183e:	197b      	adds	r3, r7, r5
 8001840:	781b      	ldrb	r3, [r3, #0]
 8001842:	b25b      	sxtb	r3, r3
 8001844:	e032      	b.n	80018ac <recv_read_registers_res+0x118>

    NMBS_DEBUG_PRINT("regs ");
    for (uint_fast8_t i = 0; i < registers_bytes / 2; i++) {
 8001846:	2300      	movs	r3, #0
 8001848:	617b      	str	r3, [r7, #20]
 800184a:	e014      	b.n	8001876 <recv_read_registers_res+0xe2>
        const uint16_t reg = get_2(nmbs);
 800184c:	2510      	movs	r5, #16
 800184e:	197c      	adds	r4, r7, r5
 8001850:	68fb      	ldr	r3, [r7, #12]
 8001852:	0018      	movs	r0, r3
 8001854:	f7ff f927 	bl	8000aa6 <get_2>
 8001858:	0003      	movs	r3, r0
 800185a:	8023      	strh	r3, [r4, #0]
        if (registers)
 800185c:	687b      	ldr	r3, [r7, #4]
 800185e:	2b00      	cmp	r3, #0
 8001860:	d006      	beq.n	8001870 <recv_read_registers_res+0xdc>
            registers[i] = reg;
 8001862:	697b      	ldr	r3, [r7, #20]
 8001864:	005b      	lsls	r3, r3, #1
 8001866:	687a      	ldr	r2, [r7, #4]
 8001868:	18d3      	adds	r3, r2, r3
 800186a:	197a      	adds	r2, r7, r5
 800186c:	8812      	ldrh	r2, [r2, #0]
 800186e:	801a      	strh	r2, [r3, #0]
    for (uint_fast8_t i = 0; i < registers_bytes / 2; i++) {
 8001870:	697b      	ldr	r3, [r7, #20]
 8001872:	3301      	adds	r3, #1
 8001874:	617b      	str	r3, [r7, #20]
 8001876:	2312      	movs	r3, #18
 8001878:	18fb      	adds	r3, r7, r3
 800187a:	781b      	ldrb	r3, [r3, #0]
 800187c:	085b      	lsrs	r3, r3, #1
 800187e:	b2db      	uxtb	r3, r3
 8001880:	001a      	movs	r2, r3
 8001882:	697b      	ldr	r3, [r7, #20]
 8001884:	4293      	cmp	r3, r2
 8001886:	d3e1      	bcc.n	800184c <recv_read_registers_res+0xb8>
        NMBS_DEBUG_PRINT("%d ", reg);
    }

    err = recv_msg_footer(nmbs);
 8001888:	2513      	movs	r5, #19
 800188a:	197c      	adds	r4, r7, r5
 800188c:	68fb      	ldr	r3, [r7, #12]
 800188e:	0018      	movs	r0, r3
 8001890:	f7ff fbe8 	bl	8001064 <recv_msg_footer>
 8001894:	0003      	movs	r3, r0
 8001896:	7023      	strb	r3, [r4, #0]
    if (err != NMBS_ERROR_NONE)
 8001898:	197b      	adds	r3, r7, r5
 800189a:	781b      	ldrb	r3, [r3, #0]
 800189c:	b25b      	sxtb	r3, r3
 800189e:	2b00      	cmp	r3, #0
 80018a0:	d003      	beq.n	80018aa <recv_read_registers_res+0x116>
        return err;
 80018a2:	197b      	adds	r3, r7, r5
 80018a4:	781b      	ldrb	r3, [r3, #0]
 80018a6:	b25b      	sxtb	r3, r3
 80018a8:	e000      	b.n	80018ac <recv_read_registers_res+0x118>

    return NMBS_ERROR_NONE;
 80018aa:	2300      	movs	r3, #0
}
 80018ac:	0018      	movs	r0, r3
 80018ae:	46bd      	mov	sp, r7
 80018b0:	b006      	add	sp, #24
 80018b2:	bdb0      	pop	{r4, r5, r7, pc}

080018b4 <recv_write_single_coil_res>:
#endif


nmbs_error recv_write_single_coil_res(nmbs_t* nmbs, uint16_t address, uint16_t value_req) {
 80018b4:	b5b0      	push	{r4, r5, r7, lr}
 80018b6:	b084      	sub	sp, #16
 80018b8:	af00      	add	r7, sp, #0
 80018ba:	6078      	str	r0, [r7, #4]
 80018bc:	0008      	movs	r0, r1
 80018be:	0011      	movs	r1, r2
 80018c0:	1cbb      	adds	r3, r7, #2
 80018c2:	1c02      	adds	r2, r0, #0
 80018c4:	801a      	strh	r2, [r3, #0]
 80018c6:	003b      	movs	r3, r7
 80018c8:	1c0a      	adds	r2, r1, #0
 80018ca:	801a      	strh	r2, [r3, #0]
    nmbs_error err = recv_res_header(nmbs);
 80018cc:	250f      	movs	r5, #15
 80018ce:	197c      	adds	r4, r7, r5
 80018d0:	687b      	ldr	r3, [r7, #4]
 80018d2:	0018      	movs	r0, r3
 80018d4:	f7ff fe33 	bl	800153e <recv_res_header>
 80018d8:	0003      	movs	r3, r0
 80018da:	7023      	strb	r3, [r4, #0]
    if (err != NMBS_ERROR_NONE)
 80018dc:	197b      	adds	r3, r7, r5
 80018de:	781b      	ldrb	r3, [r3, #0]
 80018e0:	b25b      	sxtb	r3, r3
 80018e2:	2b00      	cmp	r3, #0
 80018e4:	d003      	beq.n	80018ee <recv_write_single_coil_res+0x3a>
        return err;
 80018e6:	197b      	adds	r3, r7, r5
 80018e8:	781b      	ldrb	r3, [r3, #0]
 80018ea:	b25b      	sxtb	r3, r3
 80018ec:	e047      	b.n	800197e <recv_write_single_coil_res+0xca>

    err = recv(nmbs, 4);
 80018ee:	250f      	movs	r5, #15
 80018f0:	197c      	adds	r4, r7, r5
 80018f2:	687b      	ldr	r3, [r7, #4]
 80018f4:	2104      	movs	r1, #4
 80018f6:	0018      	movs	r0, r3
 80018f8:	f7ff fa16 	bl	8000d28 <recv>
 80018fc:	0003      	movs	r3, r0
 80018fe:	7023      	strb	r3, [r4, #0]
    if (err != NMBS_ERROR_NONE)
 8001900:	197b      	adds	r3, r7, r5
 8001902:	781b      	ldrb	r3, [r3, #0]
 8001904:	b25b      	sxtb	r3, r3
 8001906:	2b00      	cmp	r3, #0
 8001908:	d003      	beq.n	8001912 <recv_write_single_coil_res+0x5e>
        return err;
 800190a:	197b      	adds	r3, r7, r5
 800190c:	781b      	ldrb	r3, [r3, #0]
 800190e:	b25b      	sxtb	r3, r3
 8001910:	e035      	b.n	800197e <recv_write_single_coil_res+0xca>

    const uint16_t address_res = get_2(nmbs);
 8001912:	230c      	movs	r3, #12
 8001914:	18fc      	adds	r4, r7, r3
 8001916:	687b      	ldr	r3, [r7, #4]
 8001918:	0018      	movs	r0, r3
 800191a:	f7ff f8c4 	bl	8000aa6 <get_2>
 800191e:	0003      	movs	r3, r0
 8001920:	8023      	strh	r3, [r4, #0]
    const uint16_t value_res = get_2(nmbs);
 8001922:	230a      	movs	r3, #10
 8001924:	18fc      	adds	r4, r7, r3
 8001926:	687b      	ldr	r3, [r7, #4]
 8001928:	0018      	movs	r0, r3
 800192a:	f7ff f8bc 	bl	8000aa6 <get_2>
 800192e:	0003      	movs	r3, r0
 8001930:	8023      	strh	r3, [r4, #0]

    NMBS_DEBUG_PRINT("a %d\tvalue %d", address, value_res);

    err = recv_msg_footer(nmbs);
 8001932:	250f      	movs	r5, #15
 8001934:	197c      	adds	r4, r7, r5
 8001936:	687b      	ldr	r3, [r7, #4]
 8001938:	0018      	movs	r0, r3
 800193a:	f7ff fb93 	bl	8001064 <recv_msg_footer>
 800193e:	0003      	movs	r3, r0
 8001940:	7023      	strb	r3, [r4, #0]
    if (err != NMBS_ERROR_NONE)
 8001942:	197b      	adds	r3, r7, r5
 8001944:	781b      	ldrb	r3, [r3, #0]
 8001946:	b25b      	sxtb	r3, r3
 8001948:	2b00      	cmp	r3, #0
 800194a:	d003      	beq.n	8001954 <recv_write_single_coil_res+0xa0>
        return err;
 800194c:	197b      	adds	r3, r7, r5
 800194e:	781b      	ldrb	r3, [r3, #0]
 8001950:	b25b      	sxtb	r3, r3
 8001952:	e014      	b.n	800197e <recv_write_single_coil_res+0xca>

    if (address_res != address)
 8001954:	230c      	movs	r3, #12
 8001956:	18fa      	adds	r2, r7, r3
 8001958:	1cbb      	adds	r3, r7, #2
 800195a:	8812      	ldrh	r2, [r2, #0]
 800195c:	881b      	ldrh	r3, [r3, #0]
 800195e:	429a      	cmp	r2, r3
 8001960:	d002      	beq.n	8001968 <recv_write_single_coil_res+0xb4>
        return NMBS_ERROR_INVALID_RESPONSE;
 8001962:	2302      	movs	r3, #2
 8001964:	425b      	negs	r3, r3
 8001966:	e00a      	b.n	800197e <recv_write_single_coil_res+0xca>

    if (value_res != value_req)
 8001968:	230a      	movs	r3, #10
 800196a:	18fa      	adds	r2, r7, r3
 800196c:	003b      	movs	r3, r7
 800196e:	8812      	ldrh	r2, [r2, #0]
 8001970:	881b      	ldrh	r3, [r3, #0]
 8001972:	429a      	cmp	r2, r3
 8001974:	d002      	beq.n	800197c <recv_write_single_coil_res+0xc8>
        return NMBS_ERROR_INVALID_RESPONSE;
 8001976:	2302      	movs	r3, #2
 8001978:	425b      	negs	r3, r3
 800197a:	e000      	b.n	800197e <recv_write_single_coil_res+0xca>

    return NMBS_ERROR_NONE;
 800197c:	2300      	movs	r3, #0
}
 800197e:	0018      	movs	r0, r3
 8001980:	46bd      	mov	sp, r7
 8001982:	b004      	add	sp, #16
 8001984:	bdb0      	pop	{r4, r5, r7, pc}

08001986 <recv_write_single_register_res>:


nmbs_error recv_write_single_register_res(nmbs_t* nmbs, uint16_t address, uint16_t value_req) {
 8001986:	b5b0      	push	{r4, r5, r7, lr}
 8001988:	b084      	sub	sp, #16
 800198a:	af00      	add	r7, sp, #0
 800198c:	6078      	str	r0, [r7, #4]
 800198e:	0008      	movs	r0, r1
 8001990:	0011      	movs	r1, r2
 8001992:	1cbb      	adds	r3, r7, #2
 8001994:	1c02      	adds	r2, r0, #0
 8001996:	801a      	strh	r2, [r3, #0]
 8001998:	003b      	movs	r3, r7
 800199a:	1c0a      	adds	r2, r1, #0
 800199c:	801a      	strh	r2, [r3, #0]
    nmbs_error err = recv_res_header(nmbs);
 800199e:	250f      	movs	r5, #15
 80019a0:	197c      	adds	r4, r7, r5
 80019a2:	687b      	ldr	r3, [r7, #4]
 80019a4:	0018      	movs	r0, r3
 80019a6:	f7ff fdca 	bl	800153e <recv_res_header>
 80019aa:	0003      	movs	r3, r0
 80019ac:	7023      	strb	r3, [r4, #0]
    if (err != NMBS_ERROR_NONE)
 80019ae:	197b      	adds	r3, r7, r5
 80019b0:	781b      	ldrb	r3, [r3, #0]
 80019b2:	b25b      	sxtb	r3, r3
 80019b4:	2b00      	cmp	r3, #0
 80019b6:	d003      	beq.n	80019c0 <recv_write_single_register_res+0x3a>
        return err;
 80019b8:	197b      	adds	r3, r7, r5
 80019ba:	781b      	ldrb	r3, [r3, #0]
 80019bc:	b25b      	sxtb	r3, r3
 80019be:	e047      	b.n	8001a50 <recv_write_single_register_res+0xca>

    err = recv(nmbs, 4);
 80019c0:	250f      	movs	r5, #15
 80019c2:	197c      	adds	r4, r7, r5
 80019c4:	687b      	ldr	r3, [r7, #4]
 80019c6:	2104      	movs	r1, #4
 80019c8:	0018      	movs	r0, r3
 80019ca:	f7ff f9ad 	bl	8000d28 <recv>
 80019ce:	0003      	movs	r3, r0
 80019d0:	7023      	strb	r3, [r4, #0]
    if (err != NMBS_ERROR_NONE)
 80019d2:	197b      	adds	r3, r7, r5
 80019d4:	781b      	ldrb	r3, [r3, #0]
 80019d6:	b25b      	sxtb	r3, r3
 80019d8:	2b00      	cmp	r3, #0
 80019da:	d003      	beq.n	80019e4 <recv_write_single_register_res+0x5e>
        return err;
 80019dc:	197b      	adds	r3, r7, r5
 80019de:	781b      	ldrb	r3, [r3, #0]
 80019e0:	b25b      	sxtb	r3, r3
 80019e2:	e035      	b.n	8001a50 <recv_write_single_register_res+0xca>

    const uint16_t address_res = get_2(nmbs);
 80019e4:	230c      	movs	r3, #12
 80019e6:	18fc      	adds	r4, r7, r3
 80019e8:	687b      	ldr	r3, [r7, #4]
 80019ea:	0018      	movs	r0, r3
 80019ec:	f7ff f85b 	bl	8000aa6 <get_2>
 80019f0:	0003      	movs	r3, r0
 80019f2:	8023      	strh	r3, [r4, #0]
    const uint16_t value_res = get_2(nmbs);
 80019f4:	230a      	movs	r3, #10
 80019f6:	18fc      	adds	r4, r7, r3
 80019f8:	687b      	ldr	r3, [r7, #4]
 80019fa:	0018      	movs	r0, r3
 80019fc:	f7ff f853 	bl	8000aa6 <get_2>
 8001a00:	0003      	movs	r3, r0
 8001a02:	8023      	strh	r3, [r4, #0]
    NMBS_DEBUG_PRINT("a %d\tvalue %d ", address, value_res);

    err = recv_msg_footer(nmbs);
 8001a04:	250f      	movs	r5, #15
 8001a06:	197c      	adds	r4, r7, r5
 8001a08:	687b      	ldr	r3, [r7, #4]
 8001a0a:	0018      	movs	r0, r3
 8001a0c:	f7ff fb2a 	bl	8001064 <recv_msg_footer>
 8001a10:	0003      	movs	r3, r0
 8001a12:	7023      	strb	r3, [r4, #0]
    if (err != NMBS_ERROR_NONE)
 8001a14:	197b      	adds	r3, r7, r5
 8001a16:	781b      	ldrb	r3, [r3, #0]
 8001a18:	b25b      	sxtb	r3, r3
 8001a1a:	2b00      	cmp	r3, #0
 8001a1c:	d003      	beq.n	8001a26 <recv_write_single_register_res+0xa0>
        return err;
 8001a1e:	197b      	adds	r3, r7, r5
 8001a20:	781b      	ldrb	r3, [r3, #0]
 8001a22:	b25b      	sxtb	r3, r3
 8001a24:	e014      	b.n	8001a50 <recv_write_single_register_res+0xca>

    if (address_res != address)
 8001a26:	230c      	movs	r3, #12
 8001a28:	18fa      	adds	r2, r7, r3
 8001a2a:	1cbb      	adds	r3, r7, #2
 8001a2c:	8812      	ldrh	r2, [r2, #0]
 8001a2e:	881b      	ldrh	r3, [r3, #0]
 8001a30:	429a      	cmp	r2, r3
 8001a32:	d002      	beq.n	8001a3a <recv_write_single_register_res+0xb4>
        return NMBS_ERROR_INVALID_RESPONSE;
 8001a34:	2302      	movs	r3, #2
 8001a36:	425b      	negs	r3, r3
 8001a38:	e00a      	b.n	8001a50 <recv_write_single_register_res+0xca>

    if (value_res != value_req)
 8001a3a:	230a      	movs	r3, #10
 8001a3c:	18fa      	adds	r2, r7, r3
 8001a3e:	003b      	movs	r3, r7
 8001a40:	8812      	ldrh	r2, [r2, #0]
 8001a42:	881b      	ldrh	r3, [r3, #0]
 8001a44:	429a      	cmp	r2, r3
 8001a46:	d002      	beq.n	8001a4e <recv_write_single_register_res+0xc8>
        return NMBS_ERROR_INVALID_RESPONSE;
 8001a48:	2302      	movs	r3, #2
 8001a4a:	425b      	negs	r3, r3
 8001a4c:	e000      	b.n	8001a50 <recv_write_single_register_res+0xca>

    return NMBS_ERROR_NONE;
 8001a4e:	2300      	movs	r3, #0
}
 8001a50:	0018      	movs	r0, r3
 8001a52:	46bd      	mov	sp, r7
 8001a54:	b004      	add	sp, #16
 8001a56:	bdb0      	pop	{r4, r5, r7, pc}

08001a58 <recv_write_multiple_coils_res>:


nmbs_error recv_write_multiple_coils_res(nmbs_t* nmbs, uint16_t address, uint16_t quantity) {
 8001a58:	b5b0      	push	{r4, r5, r7, lr}
 8001a5a:	b084      	sub	sp, #16
 8001a5c:	af00      	add	r7, sp, #0
 8001a5e:	6078      	str	r0, [r7, #4]
 8001a60:	0008      	movs	r0, r1
 8001a62:	0011      	movs	r1, r2
 8001a64:	1cbb      	adds	r3, r7, #2
 8001a66:	1c02      	adds	r2, r0, #0
 8001a68:	801a      	strh	r2, [r3, #0]
 8001a6a:	003b      	movs	r3, r7
 8001a6c:	1c0a      	adds	r2, r1, #0
 8001a6e:	801a      	strh	r2, [r3, #0]
    nmbs_error err = recv_res_header(nmbs);
 8001a70:	250f      	movs	r5, #15
 8001a72:	197c      	adds	r4, r7, r5
 8001a74:	687b      	ldr	r3, [r7, #4]
 8001a76:	0018      	movs	r0, r3
 8001a78:	f7ff fd61 	bl	800153e <recv_res_header>
 8001a7c:	0003      	movs	r3, r0
 8001a7e:	7023      	strb	r3, [r4, #0]
    if (err != NMBS_ERROR_NONE)
 8001a80:	197b      	adds	r3, r7, r5
 8001a82:	781b      	ldrb	r3, [r3, #0]
 8001a84:	b25b      	sxtb	r3, r3
 8001a86:	2b00      	cmp	r3, #0
 8001a88:	d003      	beq.n	8001a92 <recv_write_multiple_coils_res+0x3a>
        return err;
 8001a8a:	197b      	adds	r3, r7, r5
 8001a8c:	781b      	ldrb	r3, [r3, #0]
 8001a8e:	b25b      	sxtb	r3, r3
 8001a90:	e047      	b.n	8001b22 <recv_write_multiple_coils_res+0xca>

    err = recv(nmbs, 4);
 8001a92:	250f      	movs	r5, #15
 8001a94:	197c      	adds	r4, r7, r5
 8001a96:	687b      	ldr	r3, [r7, #4]
 8001a98:	2104      	movs	r1, #4
 8001a9a:	0018      	movs	r0, r3
 8001a9c:	f7ff f944 	bl	8000d28 <recv>
 8001aa0:	0003      	movs	r3, r0
 8001aa2:	7023      	strb	r3, [r4, #0]
    if (err != NMBS_ERROR_NONE)
 8001aa4:	197b      	adds	r3, r7, r5
 8001aa6:	781b      	ldrb	r3, [r3, #0]
 8001aa8:	b25b      	sxtb	r3, r3
 8001aaa:	2b00      	cmp	r3, #0
 8001aac:	d003      	beq.n	8001ab6 <recv_write_multiple_coils_res+0x5e>
        return err;
 8001aae:	197b      	adds	r3, r7, r5
 8001ab0:	781b      	ldrb	r3, [r3, #0]
 8001ab2:	b25b      	sxtb	r3, r3
 8001ab4:	e035      	b.n	8001b22 <recv_write_multiple_coils_res+0xca>

    const uint16_t address_res = get_2(nmbs);
 8001ab6:	230c      	movs	r3, #12
 8001ab8:	18fc      	adds	r4, r7, r3
 8001aba:	687b      	ldr	r3, [r7, #4]
 8001abc:	0018      	movs	r0, r3
 8001abe:	f7fe fff2 	bl	8000aa6 <get_2>
 8001ac2:	0003      	movs	r3, r0
 8001ac4:	8023      	strh	r3, [r4, #0]
    const uint16_t quantity_res = get_2(nmbs);
 8001ac6:	230a      	movs	r3, #10
 8001ac8:	18fc      	adds	r4, r7, r3
 8001aca:	687b      	ldr	r3, [r7, #4]
 8001acc:	0018      	movs	r0, r3
 8001ace:	f7fe ffea 	bl	8000aa6 <get_2>
 8001ad2:	0003      	movs	r3, r0
 8001ad4:	8023      	strh	r3, [r4, #0]
    NMBS_DEBUG_PRINT("a %d\tq %d", address_res, quantity_res);

    err = recv_msg_footer(nmbs);
 8001ad6:	250f      	movs	r5, #15
 8001ad8:	197c      	adds	r4, r7, r5
 8001ada:	687b      	ldr	r3, [r7, #4]
 8001adc:	0018      	movs	r0, r3
 8001ade:	f7ff fac1 	bl	8001064 <recv_msg_footer>
 8001ae2:	0003      	movs	r3, r0
 8001ae4:	7023      	strb	r3, [r4, #0]
    if (err != NMBS_ERROR_NONE)
 8001ae6:	197b      	adds	r3, r7, r5
 8001ae8:	781b      	ldrb	r3, [r3, #0]
 8001aea:	b25b      	sxtb	r3, r3
 8001aec:	2b00      	cmp	r3, #0
 8001aee:	d003      	beq.n	8001af8 <recv_write_multiple_coils_res+0xa0>
        return err;
 8001af0:	197b      	adds	r3, r7, r5
 8001af2:	781b      	ldrb	r3, [r3, #0]
 8001af4:	b25b      	sxtb	r3, r3
 8001af6:	e014      	b.n	8001b22 <recv_write_multiple_coils_res+0xca>

    if (address_res != address)
 8001af8:	230c      	movs	r3, #12
 8001afa:	18fa      	adds	r2, r7, r3
 8001afc:	1cbb      	adds	r3, r7, #2
 8001afe:	8812      	ldrh	r2, [r2, #0]
 8001b00:	881b      	ldrh	r3, [r3, #0]
 8001b02:	429a      	cmp	r2, r3
 8001b04:	d002      	beq.n	8001b0c <recv_write_multiple_coils_res+0xb4>
        return NMBS_ERROR_INVALID_RESPONSE;
 8001b06:	2302      	movs	r3, #2
 8001b08:	425b      	negs	r3, r3
 8001b0a:	e00a      	b.n	8001b22 <recv_write_multiple_coils_res+0xca>

    if (quantity_res != quantity)
 8001b0c:	230a      	movs	r3, #10
 8001b0e:	18fa      	adds	r2, r7, r3
 8001b10:	003b      	movs	r3, r7
 8001b12:	8812      	ldrh	r2, [r2, #0]
 8001b14:	881b      	ldrh	r3, [r3, #0]
 8001b16:	429a      	cmp	r2, r3
 8001b18:	d002      	beq.n	8001b20 <recv_write_multiple_coils_res+0xc8>
        return NMBS_ERROR_INVALID_RESPONSE;
 8001b1a:	2302      	movs	r3, #2
 8001b1c:	425b      	negs	r3, r3
 8001b1e:	e000      	b.n	8001b22 <recv_write_multiple_coils_res+0xca>

    return NMBS_ERROR_NONE;
 8001b20:	2300      	movs	r3, #0
}
 8001b22:	0018      	movs	r0, r3
 8001b24:	46bd      	mov	sp, r7
 8001b26:	b004      	add	sp, #16
 8001b28:	bdb0      	pop	{r4, r5, r7, pc}

08001b2a <recv_write_multiple_registers_res>:


nmbs_error recv_write_multiple_registers_res(nmbs_t* nmbs, uint16_t address, uint16_t quantity) {
 8001b2a:	b5b0      	push	{r4, r5, r7, lr}
 8001b2c:	b084      	sub	sp, #16
 8001b2e:	af00      	add	r7, sp, #0
 8001b30:	6078      	str	r0, [r7, #4]
 8001b32:	0008      	movs	r0, r1
 8001b34:	0011      	movs	r1, r2
 8001b36:	1cbb      	adds	r3, r7, #2
 8001b38:	1c02      	adds	r2, r0, #0
 8001b3a:	801a      	strh	r2, [r3, #0]
 8001b3c:	003b      	movs	r3, r7
 8001b3e:	1c0a      	adds	r2, r1, #0
 8001b40:	801a      	strh	r2, [r3, #0]
    nmbs_error err = recv_res_header(nmbs);
 8001b42:	250f      	movs	r5, #15
 8001b44:	197c      	adds	r4, r7, r5
 8001b46:	687b      	ldr	r3, [r7, #4]
 8001b48:	0018      	movs	r0, r3
 8001b4a:	f7ff fcf8 	bl	800153e <recv_res_header>
 8001b4e:	0003      	movs	r3, r0
 8001b50:	7023      	strb	r3, [r4, #0]
    if (err != NMBS_ERROR_NONE)
 8001b52:	197b      	adds	r3, r7, r5
 8001b54:	781b      	ldrb	r3, [r3, #0]
 8001b56:	b25b      	sxtb	r3, r3
 8001b58:	2b00      	cmp	r3, #0
 8001b5a:	d003      	beq.n	8001b64 <recv_write_multiple_registers_res+0x3a>
        return err;
 8001b5c:	197b      	adds	r3, r7, r5
 8001b5e:	781b      	ldrb	r3, [r3, #0]
 8001b60:	b25b      	sxtb	r3, r3
 8001b62:	e047      	b.n	8001bf4 <recv_write_multiple_registers_res+0xca>

    err = recv(nmbs, 4);
 8001b64:	250f      	movs	r5, #15
 8001b66:	197c      	adds	r4, r7, r5
 8001b68:	687b      	ldr	r3, [r7, #4]
 8001b6a:	2104      	movs	r1, #4
 8001b6c:	0018      	movs	r0, r3
 8001b6e:	f7ff f8db 	bl	8000d28 <recv>
 8001b72:	0003      	movs	r3, r0
 8001b74:	7023      	strb	r3, [r4, #0]
    if (err != NMBS_ERROR_NONE)
 8001b76:	197b      	adds	r3, r7, r5
 8001b78:	781b      	ldrb	r3, [r3, #0]
 8001b7a:	b25b      	sxtb	r3, r3
 8001b7c:	2b00      	cmp	r3, #0
 8001b7e:	d003      	beq.n	8001b88 <recv_write_multiple_registers_res+0x5e>
        return err;
 8001b80:	197b      	adds	r3, r7, r5
 8001b82:	781b      	ldrb	r3, [r3, #0]
 8001b84:	b25b      	sxtb	r3, r3
 8001b86:	e035      	b.n	8001bf4 <recv_write_multiple_registers_res+0xca>

    const uint16_t address_res = get_2(nmbs);
 8001b88:	230c      	movs	r3, #12
 8001b8a:	18fc      	adds	r4, r7, r3
 8001b8c:	687b      	ldr	r3, [r7, #4]
 8001b8e:	0018      	movs	r0, r3
 8001b90:	f7fe ff89 	bl	8000aa6 <get_2>
 8001b94:	0003      	movs	r3, r0
 8001b96:	8023      	strh	r3, [r4, #0]
    const uint16_t quantity_res = get_2(nmbs);
 8001b98:	230a      	movs	r3, #10
 8001b9a:	18fc      	adds	r4, r7, r3
 8001b9c:	687b      	ldr	r3, [r7, #4]
 8001b9e:	0018      	movs	r0, r3
 8001ba0:	f7fe ff81 	bl	8000aa6 <get_2>
 8001ba4:	0003      	movs	r3, r0
 8001ba6:	8023      	strh	r3, [r4, #0]
    NMBS_DEBUG_PRINT("a %d\tq %d", address_res, quantity_res);

    err = recv_msg_footer(nmbs);
 8001ba8:	250f      	movs	r5, #15
 8001baa:	197c      	adds	r4, r7, r5
 8001bac:	687b      	ldr	r3, [r7, #4]
 8001bae:	0018      	movs	r0, r3
 8001bb0:	f7ff fa58 	bl	8001064 <recv_msg_footer>
 8001bb4:	0003      	movs	r3, r0
 8001bb6:	7023      	strb	r3, [r4, #0]
    if (err != NMBS_ERROR_NONE)
 8001bb8:	197b      	adds	r3, r7, r5
 8001bba:	781b      	ldrb	r3, [r3, #0]
 8001bbc:	b25b      	sxtb	r3, r3
 8001bbe:	2b00      	cmp	r3, #0
 8001bc0:	d003      	beq.n	8001bca <recv_write_multiple_registers_res+0xa0>
        return err;
 8001bc2:	197b      	adds	r3, r7, r5
 8001bc4:	781b      	ldrb	r3, [r3, #0]
 8001bc6:	b25b      	sxtb	r3, r3
 8001bc8:	e014      	b.n	8001bf4 <recv_write_multiple_registers_res+0xca>

    if (address_res != address)
 8001bca:	230c      	movs	r3, #12
 8001bcc:	18fa      	adds	r2, r7, r3
 8001bce:	1cbb      	adds	r3, r7, #2
 8001bd0:	8812      	ldrh	r2, [r2, #0]
 8001bd2:	881b      	ldrh	r3, [r3, #0]
 8001bd4:	429a      	cmp	r2, r3
 8001bd6:	d002      	beq.n	8001bde <recv_write_multiple_registers_res+0xb4>
        return NMBS_ERROR_INVALID_RESPONSE;
 8001bd8:	2302      	movs	r3, #2
 8001bda:	425b      	negs	r3, r3
 8001bdc:	e00a      	b.n	8001bf4 <recv_write_multiple_registers_res+0xca>

    if (quantity_res != quantity)
 8001bde:	230a      	movs	r3, #10
 8001be0:	18fa      	adds	r2, r7, r3
 8001be2:	003b      	movs	r3, r7
 8001be4:	8812      	ldrh	r2, [r2, #0]
 8001be6:	881b      	ldrh	r3, [r3, #0]
 8001be8:	429a      	cmp	r2, r3
 8001bea:	d002      	beq.n	8001bf2 <recv_write_multiple_registers_res+0xc8>
        return NMBS_ERROR_INVALID_RESPONSE;
 8001bec:	2302      	movs	r3, #2
 8001bee:	425b      	negs	r3, r3
 8001bf0:	e000      	b.n	8001bf4 <recv_write_multiple_registers_res+0xca>

    return NMBS_ERROR_NONE;
 8001bf2:	2300      	movs	r3, #0
}
 8001bf4:	0018      	movs	r0, r3
 8001bf6:	46bd      	mov	sp, r7
 8001bf8:	b004      	add	sp, #16
 8001bfa:	bdb0      	pop	{r4, r5, r7, pc}

08001bfc <recv_read_file_record_res>:


nmbs_error recv_read_file_record_res(nmbs_t* nmbs, uint16_t* registers, uint16_t count) {
 8001bfc:	b5b0      	push	{r4, r5, r7, lr}
 8001bfe:	b086      	sub	sp, #24
 8001c00:	af00      	add	r7, sp, #0
 8001c02:	60f8      	str	r0, [r7, #12]
 8001c04:	60b9      	str	r1, [r7, #8]
 8001c06:	1dbb      	adds	r3, r7, #6
 8001c08:	801a      	strh	r2, [r3, #0]
    nmbs_error err = recv_res_header(nmbs);
 8001c0a:	2517      	movs	r5, #23
 8001c0c:	197c      	adds	r4, r7, r5
 8001c0e:	68fb      	ldr	r3, [r7, #12]
 8001c10:	0018      	movs	r0, r3
 8001c12:	f7ff fc94 	bl	800153e <recv_res_header>
 8001c16:	0003      	movs	r3, r0
 8001c18:	7023      	strb	r3, [r4, #0]
    if (err != NMBS_ERROR_NONE)
 8001c1a:	197b      	adds	r3, r7, r5
 8001c1c:	781b      	ldrb	r3, [r3, #0]
 8001c1e:	b25b      	sxtb	r3, r3
 8001c20:	2b00      	cmp	r3, #0
 8001c22:	d003      	beq.n	8001c2c <recv_read_file_record_res+0x30>
        return err;
 8001c24:	197b      	adds	r3, r7, r5
 8001c26:	781b      	ldrb	r3, [r3, #0]
 8001c28:	b25b      	sxtb	r3, r3
 8001c2a:	e08e      	b.n	8001d4a <recv_read_file_record_res+0x14e>

    err = recv(nmbs, 1);
 8001c2c:	2517      	movs	r5, #23
 8001c2e:	197c      	adds	r4, r7, r5
 8001c30:	68fb      	ldr	r3, [r7, #12]
 8001c32:	2101      	movs	r1, #1
 8001c34:	0018      	movs	r0, r3
 8001c36:	f7ff f877 	bl	8000d28 <recv>
 8001c3a:	0003      	movs	r3, r0
 8001c3c:	7023      	strb	r3, [r4, #0]
    if (err != NMBS_ERROR_NONE)
 8001c3e:	197b      	adds	r3, r7, r5
 8001c40:	781b      	ldrb	r3, [r3, #0]
 8001c42:	b25b      	sxtb	r3, r3
 8001c44:	2b00      	cmp	r3, #0
 8001c46:	d003      	beq.n	8001c50 <recv_read_file_record_res+0x54>
        return err;
 8001c48:	197b      	adds	r3, r7, r5
 8001c4a:	781b      	ldrb	r3, [r3, #0]
 8001c4c:	b25b      	sxtb	r3, r3
 8001c4e:	e07c      	b.n	8001d4a <recv_read_file_record_res+0x14e>

    const uint8_t response_size = get_1(nmbs);
 8001c50:	2516      	movs	r5, #22
 8001c52:	197c      	adds	r4, r7, r5
 8001c54:	68fb      	ldr	r3, [r7, #12]
 8001c56:	0018      	movs	r0, r3
 8001c58:	f7fe fec0 	bl	80009dc <get_1>
 8001c5c:	0003      	movs	r3, r0
 8001c5e:	7023      	strb	r3, [r4, #0]
    if (response_size > 250) {
 8001c60:	197b      	adds	r3, r7, r5
 8001c62:	781b      	ldrb	r3, [r3, #0]
 8001c64:	2bfa      	cmp	r3, #250	; 0xfa
 8001c66:	d902      	bls.n	8001c6e <recv_read_file_record_res+0x72>
        return NMBS_ERROR_INVALID_RESPONSE;
 8001c68:	2302      	movs	r3, #2
 8001c6a:	425b      	negs	r3, r3
 8001c6c:	e06d      	b.n	8001d4a <recv_read_file_record_res+0x14e>
    }

    err = recv(nmbs, response_size);
 8001c6e:	2316      	movs	r3, #22
 8001c70:	18fb      	adds	r3, r7, r3
 8001c72:	781b      	ldrb	r3, [r3, #0]
 8001c74:	b29a      	uxth	r2, r3
 8001c76:	2517      	movs	r5, #23
 8001c78:	197c      	adds	r4, r7, r5
 8001c7a:	68fb      	ldr	r3, [r7, #12]
 8001c7c:	0011      	movs	r1, r2
 8001c7e:	0018      	movs	r0, r3
 8001c80:	f7ff f852 	bl	8000d28 <recv>
 8001c84:	0003      	movs	r3, r0
 8001c86:	7023      	strb	r3, [r4, #0]
    if (err != NMBS_ERROR_NONE)
 8001c88:	197b      	adds	r3, r7, r5
 8001c8a:	781b      	ldrb	r3, [r3, #0]
 8001c8c:	b25b      	sxtb	r3, r3
 8001c8e:	2b00      	cmp	r3, #0
 8001c90:	d003      	beq.n	8001c9a <recv_read_file_record_res+0x9e>
        return err;
 8001c92:	197b      	adds	r3, r7, r5
 8001c94:	781b      	ldrb	r3, [r3, #0]
 8001c96:	b25b      	sxtb	r3, r3
 8001c98:	e057      	b.n	8001d4a <recv_read_file_record_res+0x14e>

    const uint8_t subreq_data_size = get_1(nmbs) - 1;
 8001c9a:	68fb      	ldr	r3, [r7, #12]
 8001c9c:	0018      	movs	r0, r3
 8001c9e:	f7fe fe9d 	bl	80009dc <get_1>
 8001ca2:	0003      	movs	r3, r0
 8001ca4:	001a      	movs	r2, r3
 8001ca6:	2515      	movs	r5, #21
 8001ca8:	197b      	adds	r3, r7, r5
 8001caa:	3a01      	subs	r2, #1
 8001cac:	701a      	strb	r2, [r3, #0]
    const uint8_t subreq_reference_type = get_1(nmbs);
 8001cae:	2314      	movs	r3, #20
 8001cb0:	18fc      	adds	r4, r7, r3
 8001cb2:	68fb      	ldr	r3, [r7, #12]
 8001cb4:	0018      	movs	r0, r3
 8001cb6:	f7fe fe91 	bl	80009dc <get_1>
 8001cba:	0003      	movs	r3, r0
 8001cbc:	7023      	strb	r3, [r4, #0]
    uint16_t* subreq_record_data = (uint16_t*) get_n(nmbs, subreq_data_size);
 8001cbe:	197b      	adds	r3, r7, r5
 8001cc0:	781b      	ldrb	r3, [r3, #0]
 8001cc2:	b29a      	uxth	r2, r3
 8001cc4:	68fb      	ldr	r3, [r7, #12]
 8001cc6:	0011      	movs	r1, r2
 8001cc8:	0018      	movs	r0, r3
 8001cca:	f7fe ff78 	bl	8000bbe <get_n>
 8001cce:	0003      	movs	r3, r0
 8001cd0:	613b      	str	r3, [r7, #16]

    err = recv_msg_footer(nmbs);
 8001cd2:	2517      	movs	r5, #23
 8001cd4:	197c      	adds	r4, r7, r5
 8001cd6:	68fb      	ldr	r3, [r7, #12]
 8001cd8:	0018      	movs	r0, r3
 8001cda:	f7ff f9c3 	bl	8001064 <recv_msg_footer>
 8001cde:	0003      	movs	r3, r0
 8001ce0:	7023      	strb	r3, [r4, #0]
    if (err != NMBS_ERROR_NONE)
 8001ce2:	197b      	adds	r3, r7, r5
 8001ce4:	781b      	ldrb	r3, [r3, #0]
 8001ce6:	b25b      	sxtb	r3, r3
 8001ce8:	2b00      	cmp	r3, #0
 8001cea:	d003      	beq.n	8001cf4 <recv_read_file_record_res+0xf8>
        return err;
 8001cec:	197b      	adds	r3, r7, r5
 8001cee:	781b      	ldrb	r3, [r3, #0]
 8001cf0:	b25b      	sxtb	r3, r3
 8001cf2:	e02a      	b.n	8001d4a <recv_read_file_record_res+0x14e>

    if (registers) {
 8001cf4:	68bb      	ldr	r3, [r7, #8]
 8001cf6:	2b00      	cmp	r3, #0
 8001cf8:	d026      	beq.n	8001d48 <recv_read_file_record_res+0x14c>
        if (subreq_reference_type != 6)
 8001cfa:	2314      	movs	r3, #20
 8001cfc:	18fb      	adds	r3, r7, r3
 8001cfe:	781b      	ldrb	r3, [r3, #0]
 8001d00:	2b06      	cmp	r3, #6
 8001d02:	d002      	beq.n	8001d0a <recv_read_file_record_res+0x10e>
            return NMBS_ERROR_INVALID_RESPONSE;
 8001d04:	2302      	movs	r3, #2
 8001d06:	425b      	negs	r3, r3
 8001d08:	e01f      	b.n	8001d4a <recv_read_file_record_res+0x14e>

        if (count != (subreq_data_size / 2))
 8001d0a:	2315      	movs	r3, #21
 8001d0c:	18fb      	adds	r3, r7, r3
 8001d0e:	781b      	ldrb	r3, [r3, #0]
 8001d10:	085b      	lsrs	r3, r3, #1
 8001d12:	b2db      	uxtb	r3, r3
 8001d14:	b29b      	uxth	r3, r3
 8001d16:	1dba      	adds	r2, r7, #6
 8001d18:	8812      	ldrh	r2, [r2, #0]
 8001d1a:	429a      	cmp	r2, r3
 8001d1c:	d002      	beq.n	8001d24 <recv_read_file_record_res+0x128>
            return NMBS_ERROR_INVALID_RESPONSE;
 8001d1e:	2302      	movs	r3, #2
 8001d20:	425b      	negs	r3, r3
 8001d22:	e012      	b.n	8001d4a <recv_read_file_record_res+0x14e>

        swap_regs(subreq_record_data, subreq_data_size / 2);
 8001d24:	2415      	movs	r4, #21
 8001d26:	193b      	adds	r3, r7, r4
 8001d28:	781b      	ldrb	r3, [r3, #0]
 8001d2a:	085b      	lsrs	r3, r3, #1
 8001d2c:	b2db      	uxtb	r3, r3
 8001d2e:	b29a      	uxth	r2, r3
 8001d30:	693b      	ldr	r3, [r7, #16]
 8001d32:	0011      	movs	r1, r2
 8001d34:	0018      	movs	r0, r3
 8001d36:	f7fe ffc9 	bl	8000ccc <swap_regs>
        memcpy(registers, subreq_record_data, subreq_data_size);
 8001d3a:	193b      	adds	r3, r7, r4
 8001d3c:	781a      	ldrb	r2, [r3, #0]
 8001d3e:	6939      	ldr	r1, [r7, #16]
 8001d40:	68bb      	ldr	r3, [r7, #8]
 8001d42:	0018      	movs	r0, r3
 8001d44:	f005 fe4a 	bl	80079dc <memcpy>
    }

    return NMBS_ERROR_NONE;
 8001d48:	2300      	movs	r3, #0
}
 8001d4a:	0018      	movs	r0, r3
 8001d4c:	46bd      	mov	sp, r7
 8001d4e:	b006      	add	sp, #24
 8001d50:	bdb0      	pop	{r4, r5, r7, pc}

08001d52 <recv_write_file_record_res>:


nmbs_error recv_write_file_record_res(nmbs_t* nmbs, uint16_t file_number, uint16_t record_number,
                                      const uint16_t* registers, uint16_t count) {
 8001d52:	b5b0      	push	{r4, r5, r7, lr}
 8001d54:	b088      	sub	sp, #32
 8001d56:	af00      	add	r7, sp, #0
 8001d58:	60f8      	str	r0, [r7, #12]
 8001d5a:	0008      	movs	r0, r1
 8001d5c:	0011      	movs	r1, r2
 8001d5e:	607b      	str	r3, [r7, #4]
 8001d60:	230a      	movs	r3, #10
 8001d62:	18fb      	adds	r3, r7, r3
 8001d64:	1c02      	adds	r2, r0, #0
 8001d66:	801a      	strh	r2, [r3, #0]
 8001d68:	2308      	movs	r3, #8
 8001d6a:	18fb      	adds	r3, r7, r3
 8001d6c:	1c0a      	adds	r2, r1, #0
 8001d6e:	801a      	strh	r2, [r3, #0]
    nmbs_error err = recv_res_header(nmbs);
 8001d70:	251f      	movs	r5, #31
 8001d72:	197c      	adds	r4, r7, r5
 8001d74:	68fb      	ldr	r3, [r7, #12]
 8001d76:	0018      	movs	r0, r3
 8001d78:	f7ff fbe1 	bl	800153e <recv_res_header>
 8001d7c:	0003      	movs	r3, r0
 8001d7e:	7023      	strb	r3, [r4, #0]
    if (err != NMBS_ERROR_NONE)
 8001d80:	197b      	adds	r3, r7, r5
 8001d82:	781b      	ldrb	r3, [r3, #0]
 8001d84:	b25b      	sxtb	r3, r3
 8001d86:	2b00      	cmp	r3, #0
 8001d88:	d003      	beq.n	8001d92 <recv_write_file_record_res+0x40>
        return err;
 8001d8a:	197b      	adds	r3, r7, r5
 8001d8c:	781b      	ldrb	r3, [r3, #0]
 8001d8e:	b25b      	sxtb	r3, r3
 8001d90:	e0b8      	b.n	8001f04 <recv_write_file_record_res+0x1b2>

    err = recv(nmbs, 1);
 8001d92:	251f      	movs	r5, #31
 8001d94:	197c      	adds	r4, r7, r5
 8001d96:	68fb      	ldr	r3, [r7, #12]
 8001d98:	2101      	movs	r1, #1
 8001d9a:	0018      	movs	r0, r3
 8001d9c:	f7fe ffc4 	bl	8000d28 <recv>
 8001da0:	0003      	movs	r3, r0
 8001da2:	7023      	strb	r3, [r4, #0]
    if (err != NMBS_ERROR_NONE)
 8001da4:	197b      	adds	r3, r7, r5
 8001da6:	781b      	ldrb	r3, [r3, #0]
 8001da8:	b25b      	sxtb	r3, r3
 8001daa:	2b00      	cmp	r3, #0
 8001dac:	d003      	beq.n	8001db6 <recv_write_file_record_res+0x64>
        return err;
 8001dae:	197b      	adds	r3, r7, r5
 8001db0:	781b      	ldrb	r3, [r3, #0]
 8001db2:	b25b      	sxtb	r3, r3
 8001db4:	e0a6      	b.n	8001f04 <recv_write_file_record_res+0x1b2>

    const uint8_t response_size = get_1(nmbs);
 8001db6:	251e      	movs	r5, #30
 8001db8:	197c      	adds	r4, r7, r5
 8001dba:	68fb      	ldr	r3, [r7, #12]
 8001dbc:	0018      	movs	r0, r3
 8001dbe:	f7fe fe0d 	bl	80009dc <get_1>
 8001dc2:	0003      	movs	r3, r0
 8001dc4:	7023      	strb	r3, [r4, #0]
    if (response_size > 251)
 8001dc6:	197b      	adds	r3, r7, r5
 8001dc8:	781b      	ldrb	r3, [r3, #0]
 8001dca:	2bfb      	cmp	r3, #251	; 0xfb
 8001dcc:	d902      	bls.n	8001dd4 <recv_write_file_record_res+0x82>
        return NMBS_ERROR_INVALID_RESPONSE;
 8001dce:	2302      	movs	r3, #2
 8001dd0:	425b      	negs	r3, r3
 8001dd2:	e097      	b.n	8001f04 <recv_write_file_record_res+0x1b2>

    err = recv(nmbs, response_size);
 8001dd4:	231e      	movs	r3, #30
 8001dd6:	18fb      	adds	r3, r7, r3
 8001dd8:	781b      	ldrb	r3, [r3, #0]
 8001dda:	b29a      	uxth	r2, r3
 8001ddc:	251f      	movs	r5, #31
 8001dde:	197c      	adds	r4, r7, r5
 8001de0:	68fb      	ldr	r3, [r7, #12]
 8001de2:	0011      	movs	r1, r2
 8001de4:	0018      	movs	r0, r3
 8001de6:	f7fe ff9f 	bl	8000d28 <recv>
 8001dea:	0003      	movs	r3, r0
 8001dec:	7023      	strb	r3, [r4, #0]
    if (err != NMBS_ERROR_NONE)
 8001dee:	197b      	adds	r3, r7, r5
 8001df0:	781b      	ldrb	r3, [r3, #0]
 8001df2:	b25b      	sxtb	r3, r3
 8001df4:	2b00      	cmp	r3, #0
 8001df6:	d003      	beq.n	8001e00 <recv_write_file_record_res+0xae>
        return err;
 8001df8:	197b      	adds	r3, r7, r5
 8001dfa:	781b      	ldrb	r3, [r3, #0]
 8001dfc:	b25b      	sxtb	r3, r3
 8001dfe:	e081      	b.n	8001f04 <recv_write_file_record_res+0x1b2>

    const uint8_t subreq_reference_type = get_1(nmbs);
 8001e00:	231d      	movs	r3, #29
 8001e02:	18fc      	adds	r4, r7, r3
 8001e04:	68fb      	ldr	r3, [r7, #12]
 8001e06:	0018      	movs	r0, r3
 8001e08:	f7fe fde8 	bl	80009dc <get_1>
 8001e0c:	0003      	movs	r3, r0
 8001e0e:	7023      	strb	r3, [r4, #0]
    const uint16_t subreq_file_number = get_2(nmbs);
 8001e10:	231a      	movs	r3, #26
 8001e12:	18fc      	adds	r4, r7, r3
 8001e14:	68fb      	ldr	r3, [r7, #12]
 8001e16:	0018      	movs	r0, r3
 8001e18:	f7fe fe45 	bl	8000aa6 <get_2>
 8001e1c:	0003      	movs	r3, r0
 8001e1e:	8023      	strh	r3, [r4, #0]
    const uint16_t subreq_record_number = get_2(nmbs);
 8001e20:	2318      	movs	r3, #24
 8001e22:	18fc      	adds	r4, r7, r3
 8001e24:	68fb      	ldr	r3, [r7, #12]
 8001e26:	0018      	movs	r0, r3
 8001e28:	f7fe fe3d 	bl	8000aa6 <get_2>
 8001e2c:	0003      	movs	r3, r0
 8001e2e:	8023      	strh	r3, [r4, #0]
    const uint16_t subreq_record_length = get_2(nmbs);
 8001e30:	2516      	movs	r5, #22
 8001e32:	197c      	adds	r4, r7, r5
 8001e34:	68fb      	ldr	r3, [r7, #12]
 8001e36:	0018      	movs	r0, r3
 8001e38:	f7fe fe35 	bl	8000aa6 <get_2>
 8001e3c:	0003      	movs	r3, r0
 8001e3e:	8023      	strh	r3, [r4, #0]
    NMBS_DEBUG_PRINT("a %d\tr %d\tl %d\t fwrite ", subreq_file_number, subreq_record_number, subreq_record_length);

    uint16_t subreq_data_size = subreq_record_length * 2;
 8001e40:	2114      	movs	r1, #20
 8001e42:	187a      	adds	r2, r7, r1
 8001e44:	197b      	adds	r3, r7, r5
 8001e46:	881b      	ldrh	r3, [r3, #0]
 8001e48:	18db      	adds	r3, r3, r3
 8001e4a:	8013      	strh	r3, [r2, #0]
    uint16_t* subreq_record_data = (uint16_t*) get_n(nmbs, subreq_data_size);
 8001e4c:	187b      	adds	r3, r7, r1
 8001e4e:	881a      	ldrh	r2, [r3, #0]
 8001e50:	68fb      	ldr	r3, [r7, #12]
 8001e52:	0011      	movs	r1, r2
 8001e54:	0018      	movs	r0, r3
 8001e56:	f7fe feb2 	bl	8000bbe <get_n>
 8001e5a:	0003      	movs	r3, r0
 8001e5c:	613b      	str	r3, [r7, #16]

    err = recv_msg_footer(nmbs);
 8001e5e:	251f      	movs	r5, #31
 8001e60:	197c      	adds	r4, r7, r5
 8001e62:	68fb      	ldr	r3, [r7, #12]
 8001e64:	0018      	movs	r0, r3
 8001e66:	f7ff f8fd 	bl	8001064 <recv_msg_footer>
 8001e6a:	0003      	movs	r3, r0
 8001e6c:	7023      	strb	r3, [r4, #0]
    if (err != NMBS_ERROR_NONE)
 8001e6e:	197b      	adds	r3, r7, r5
 8001e70:	781b      	ldrb	r3, [r3, #0]
 8001e72:	b25b      	sxtb	r3, r3
 8001e74:	2b00      	cmp	r3, #0
 8001e76:	d003      	beq.n	8001e80 <recv_write_file_record_res+0x12e>
        return err;
 8001e78:	197b      	adds	r3, r7, r5
 8001e7a:	781b      	ldrb	r3, [r3, #0]
 8001e7c:	b25b      	sxtb	r3, r3
 8001e7e:	e041      	b.n	8001f04 <recv_write_file_record_res+0x1b2>

    if (registers) {
 8001e80:	687b      	ldr	r3, [r7, #4]
 8001e82:	2b00      	cmp	r3, #0
 8001e84:	d03d      	beq.n	8001f02 <recv_write_file_record_res+0x1b0>
        if (subreq_reference_type != 6)
 8001e86:	231d      	movs	r3, #29
 8001e88:	18fb      	adds	r3, r7, r3
 8001e8a:	781b      	ldrb	r3, [r3, #0]
 8001e8c:	2b06      	cmp	r3, #6
 8001e8e:	d002      	beq.n	8001e96 <recv_write_file_record_res+0x144>
            return NMBS_ERROR_INVALID_RESPONSE;
 8001e90:	2302      	movs	r3, #2
 8001e92:	425b      	negs	r3, r3
 8001e94:	e036      	b.n	8001f04 <recv_write_file_record_res+0x1b2>

        if (subreq_file_number != file_number)
 8001e96:	231a      	movs	r3, #26
 8001e98:	18fa      	adds	r2, r7, r3
 8001e9a:	230a      	movs	r3, #10
 8001e9c:	18fb      	adds	r3, r7, r3
 8001e9e:	8812      	ldrh	r2, [r2, #0]
 8001ea0:	881b      	ldrh	r3, [r3, #0]
 8001ea2:	429a      	cmp	r2, r3
 8001ea4:	d002      	beq.n	8001eac <recv_write_file_record_res+0x15a>
            return NMBS_ERROR_INVALID_RESPONSE;
 8001ea6:	2302      	movs	r3, #2
 8001ea8:	425b      	negs	r3, r3
 8001eaa:	e02b      	b.n	8001f04 <recv_write_file_record_res+0x1b2>

        if (subreq_record_number != record_number)
 8001eac:	2318      	movs	r3, #24
 8001eae:	18fa      	adds	r2, r7, r3
 8001eb0:	2308      	movs	r3, #8
 8001eb2:	18fb      	adds	r3, r7, r3
 8001eb4:	8812      	ldrh	r2, [r2, #0]
 8001eb6:	881b      	ldrh	r3, [r3, #0]
 8001eb8:	429a      	cmp	r2, r3
 8001eba:	d002      	beq.n	8001ec2 <recv_write_file_record_res+0x170>
            return NMBS_ERROR_INVALID_RESPONSE;
 8001ebc:	2302      	movs	r3, #2
 8001ebe:	425b      	negs	r3, r3
 8001ec0:	e020      	b.n	8001f04 <recv_write_file_record_res+0x1b2>

        if (subreq_record_length != count)
 8001ec2:	2316      	movs	r3, #22
 8001ec4:	18fa      	adds	r2, r7, r3
 8001ec6:	2330      	movs	r3, #48	; 0x30
 8001ec8:	18fb      	adds	r3, r7, r3
 8001eca:	8812      	ldrh	r2, [r2, #0]
 8001ecc:	881b      	ldrh	r3, [r3, #0]
 8001ece:	429a      	cmp	r2, r3
 8001ed0:	d002      	beq.n	8001ed8 <recv_write_file_record_res+0x186>
            return NMBS_ERROR_INVALID_RESPONSE;
 8001ed2:	2302      	movs	r3, #2
 8001ed4:	425b      	negs	r3, r3
 8001ed6:	e015      	b.n	8001f04 <recv_write_file_record_res+0x1b2>

        swap_regs(subreq_record_data, subreq_record_length);
 8001ed8:	2316      	movs	r3, #22
 8001eda:	18fb      	adds	r3, r7, r3
 8001edc:	881a      	ldrh	r2, [r3, #0]
 8001ede:	693b      	ldr	r3, [r7, #16]
 8001ee0:	0011      	movs	r1, r2
 8001ee2:	0018      	movs	r0, r3
 8001ee4:	f7fe fef2 	bl	8000ccc <swap_regs>
        if (memcmp(registers, subreq_record_data, subreq_data_size) != 0)
 8001ee8:	2314      	movs	r3, #20
 8001eea:	18fb      	adds	r3, r7, r3
 8001eec:	881a      	ldrh	r2, [r3, #0]
 8001eee:	6939      	ldr	r1, [r7, #16]
 8001ef0:	687b      	ldr	r3, [r7, #4]
 8001ef2:	0018      	movs	r0, r3
 8001ef4:	f005 fd24 	bl	8007940 <memcmp>
 8001ef8:	1e03      	subs	r3, r0, #0
 8001efa:	d002      	beq.n	8001f02 <recv_write_file_record_res+0x1b0>
            return NMBS_ERROR_INVALID_RESPONSE;
 8001efc:	2302      	movs	r3, #2
 8001efe:	425b      	negs	r3, r3
 8001f00:	e000      	b.n	8001f04 <recv_write_file_record_res+0x1b2>
    }

    return NMBS_ERROR_NONE;
 8001f02:	2300      	movs	r3, #0
}
 8001f04:	0018      	movs	r0, r3
 8001f06:	46bd      	mov	sp, r7
 8001f08:	b008      	add	sp, #32
 8001f0a:	bdb0      	pop	{r4, r5, r7, pc}

08001f0c <recv_read_device_identification_res>:

nmbs_error recv_read_device_identification_res(nmbs_t* nmbs, uint8_t buffers_count, char** buffers_out,
                                               uint8_t buffers_length, const uint8_t* order, uint8_t* ids_out,
                                               uint8_t* next_object_id_out, uint8_t* objects_count_out) {
 8001f0c:	b5b0      	push	{r4, r5, r7, lr}
 8001f0e:	b08a      	sub	sp, #40	; 0x28
 8001f10:	af00      	add	r7, sp, #0
 8001f12:	60f8      	str	r0, [r7, #12]
 8001f14:	0008      	movs	r0, r1
 8001f16:	607a      	str	r2, [r7, #4]
 8001f18:	0019      	movs	r1, r3
 8001f1a:	230b      	movs	r3, #11
 8001f1c:	18fb      	adds	r3, r7, r3
 8001f1e:	1c02      	adds	r2, r0, #0
 8001f20:	701a      	strb	r2, [r3, #0]
 8001f22:	230a      	movs	r3, #10
 8001f24:	18fb      	adds	r3, r7, r3
 8001f26:	1c0a      	adds	r2, r1, #0
 8001f28:	701a      	strb	r2, [r3, #0]
    nmbs_error err = recv_res_header(nmbs);
 8001f2a:	251e      	movs	r5, #30
 8001f2c:	197c      	adds	r4, r7, r5
 8001f2e:	68fb      	ldr	r3, [r7, #12]
 8001f30:	0018      	movs	r0, r3
 8001f32:	f7ff fb04 	bl	800153e <recv_res_header>
 8001f36:	0003      	movs	r3, r0
 8001f38:	7023      	strb	r3, [r4, #0]
    if (err != NMBS_ERROR_NONE)
 8001f3a:	197b      	adds	r3, r7, r5
 8001f3c:	781b      	ldrb	r3, [r3, #0]
 8001f3e:	b25b      	sxtb	r3, r3
 8001f40:	2b00      	cmp	r3, #0
 8001f42:	d003      	beq.n	8001f4c <recv_read_device_identification_res+0x40>
        return err;
 8001f44:	197b      	adds	r3, r7, r5
 8001f46:	781b      	ldrb	r3, [r3, #0]
 8001f48:	b25b      	sxtb	r3, r3
 8001f4a:	e13b      	b.n	80021c4 <recv_read_device_identification_res+0x2b8>

    err = recv(nmbs, 6);
 8001f4c:	251e      	movs	r5, #30
 8001f4e:	197c      	adds	r4, r7, r5
 8001f50:	68fb      	ldr	r3, [r7, #12]
 8001f52:	2106      	movs	r1, #6
 8001f54:	0018      	movs	r0, r3
 8001f56:	f7fe fee7 	bl	8000d28 <recv>
 8001f5a:	0003      	movs	r3, r0
 8001f5c:	7023      	strb	r3, [r4, #0]
    if (err != NMBS_ERROR_NONE)
 8001f5e:	197b      	adds	r3, r7, r5
 8001f60:	781b      	ldrb	r3, [r3, #0]
 8001f62:	b25b      	sxtb	r3, r3
 8001f64:	2b00      	cmp	r3, #0
 8001f66:	d003      	beq.n	8001f70 <recv_read_device_identification_res+0x64>
        return err;
 8001f68:	197b      	adds	r3, r7, r5
 8001f6a:	781b      	ldrb	r3, [r3, #0]
 8001f6c:	b25b      	sxtb	r3, r3
 8001f6e:	e129      	b.n	80021c4 <recv_read_device_identification_res+0x2b8>

    const uint8_t mei_type = get_1(nmbs);
 8001f70:	251d      	movs	r5, #29
 8001f72:	197c      	adds	r4, r7, r5
 8001f74:	68fb      	ldr	r3, [r7, #12]
 8001f76:	0018      	movs	r0, r3
 8001f78:	f7fe fd30 	bl	80009dc <get_1>
 8001f7c:	0003      	movs	r3, r0
 8001f7e:	7023      	strb	r3, [r4, #0]
    if (mei_type != 0x0E)
 8001f80:	197b      	adds	r3, r7, r5
 8001f82:	781b      	ldrb	r3, [r3, #0]
 8001f84:	2b0e      	cmp	r3, #14
 8001f86:	d002      	beq.n	8001f8e <recv_read_device_identification_res+0x82>
        return NMBS_ERROR_INVALID_RESPONSE;
 8001f88:	2302      	movs	r3, #2
 8001f8a:	425b      	negs	r3, r3
 8001f8c:	e11a      	b.n	80021c4 <recv_read_device_identification_res+0x2b8>

    const uint8_t read_device_id_code = get_1(nmbs);
 8001f8e:	251c      	movs	r5, #28
 8001f90:	197c      	adds	r4, r7, r5
 8001f92:	68fb      	ldr	r3, [r7, #12]
 8001f94:	0018      	movs	r0, r3
 8001f96:	f7fe fd21 	bl	80009dc <get_1>
 8001f9a:	0003      	movs	r3, r0
 8001f9c:	7023      	strb	r3, [r4, #0]
    if (read_device_id_code < 1 || read_device_id_code > 4)
 8001f9e:	197b      	adds	r3, r7, r5
 8001fa0:	781b      	ldrb	r3, [r3, #0]
 8001fa2:	2b00      	cmp	r3, #0
 8001fa4:	d003      	beq.n	8001fae <recv_read_device_identification_res+0xa2>
 8001fa6:	197b      	adds	r3, r7, r5
 8001fa8:	781b      	ldrb	r3, [r3, #0]
 8001faa:	2b04      	cmp	r3, #4
 8001fac:	d902      	bls.n	8001fb4 <recv_read_device_identification_res+0xa8>
        return NMBS_ERROR_INVALID_RESPONSE;
 8001fae:	2302      	movs	r3, #2
 8001fb0:	425b      	negs	r3, r3
 8001fb2:	e107      	b.n	80021c4 <recv_read_device_identification_res+0x2b8>

    const uint8_t conformity_level = get_1(nmbs);
 8001fb4:	251b      	movs	r5, #27
 8001fb6:	197c      	adds	r4, r7, r5
 8001fb8:	68fb      	ldr	r3, [r7, #12]
 8001fba:	0018      	movs	r0, r3
 8001fbc:	f7fe fd0e 	bl	80009dc <get_1>
 8001fc0:	0003      	movs	r3, r0
 8001fc2:	7023      	strb	r3, [r4, #0]
    if (conformity_level < 1 || (conformity_level > 3 && conformity_level < 0x81) || conformity_level > 0x83)
 8001fc4:	197b      	adds	r3, r7, r5
 8001fc6:	781b      	ldrb	r3, [r3, #0]
 8001fc8:	2b00      	cmp	r3, #0
 8001fca:	d00c      	beq.n	8001fe6 <recv_read_device_identification_res+0xda>
 8001fcc:	197b      	adds	r3, r7, r5
 8001fce:	781b      	ldrb	r3, [r3, #0]
 8001fd0:	2b03      	cmp	r3, #3
 8001fd2:	d903      	bls.n	8001fdc <recv_read_device_identification_res+0xd0>
 8001fd4:	197b      	adds	r3, r7, r5
 8001fd6:	781b      	ldrb	r3, [r3, #0]
 8001fd8:	2b80      	cmp	r3, #128	; 0x80
 8001fda:	d904      	bls.n	8001fe6 <recv_read_device_identification_res+0xda>
 8001fdc:	231b      	movs	r3, #27
 8001fde:	18fb      	adds	r3, r7, r3
 8001fe0:	781b      	ldrb	r3, [r3, #0]
 8001fe2:	2b83      	cmp	r3, #131	; 0x83
 8001fe4:	d902      	bls.n	8001fec <recv_read_device_identification_res+0xe0>
        return NMBS_ERROR_INVALID_RESPONSE;
 8001fe6:	2302      	movs	r3, #2
 8001fe8:	425b      	negs	r3, r3
 8001fea:	e0eb      	b.n	80021c4 <recv_read_device_identification_res+0x2b8>

    const uint8_t more_follows = get_1(nmbs);
 8001fec:	251a      	movs	r5, #26
 8001fee:	197c      	adds	r4, r7, r5
 8001ff0:	68fb      	ldr	r3, [r7, #12]
 8001ff2:	0018      	movs	r0, r3
 8001ff4:	f7fe fcf2 	bl	80009dc <get_1>
 8001ff8:	0003      	movs	r3, r0
 8001ffa:	7023      	strb	r3, [r4, #0]
    if (more_follows != 0 && more_follows != 0xFF)
 8001ffc:	197b      	adds	r3, r7, r5
 8001ffe:	781b      	ldrb	r3, [r3, #0]
 8002000:	2b00      	cmp	r3, #0
 8002002:	d006      	beq.n	8002012 <recv_read_device_identification_res+0x106>
 8002004:	197b      	adds	r3, r7, r5
 8002006:	781b      	ldrb	r3, [r3, #0]
 8002008:	2bff      	cmp	r3, #255	; 0xff
 800200a:	d002      	beq.n	8002012 <recv_read_device_identification_res+0x106>
        return NMBS_ERROR_INVALID_RESPONSE;
 800200c:	2302      	movs	r3, #2
 800200e:	425b      	negs	r3, r3
 8002010:	e0d8      	b.n	80021c4 <recv_read_device_identification_res+0x2b8>

    uint8_t next_object_id = get_1(nmbs);
 8002012:	2327      	movs	r3, #39	; 0x27
 8002014:	18fc      	adds	r4, r7, r3
 8002016:	68fb      	ldr	r3, [r7, #12]
 8002018:	0018      	movs	r0, r3
 800201a:	f7fe fcdf 	bl	80009dc <get_1>
 800201e:	0003      	movs	r3, r0
 8002020:	7023      	strb	r3, [r4, #0]

    const uint8_t objects_count = get_1(nmbs);
 8002022:	2519      	movs	r5, #25
 8002024:	197c      	adds	r4, r7, r5
 8002026:	68fb      	ldr	r3, [r7, #12]
 8002028:	0018      	movs	r0, r3
 800202a:	f7fe fcd7 	bl	80009dc <get_1>
 800202e:	0003      	movs	r3, r0
 8002030:	7023      	strb	r3, [r4, #0]
    if (objects_count_out)
 8002032:	6c7b      	ldr	r3, [r7, #68]	; 0x44
 8002034:	2b00      	cmp	r3, #0
 8002036:	d003      	beq.n	8002040 <recv_read_device_identification_res+0x134>
        *objects_count_out = objects_count;
 8002038:	6c7b      	ldr	r3, [r7, #68]	; 0x44
 800203a:	197a      	adds	r2, r7, r5
 800203c:	7812      	ldrb	r2, [r2, #0]
 800203e:	701a      	strb	r2, [r3, #0]

    if (buffers_count == 0) {
 8002040:	230b      	movs	r3, #11
 8002042:	18fb      	adds	r3, r7, r3
 8002044:	781b      	ldrb	r3, [r3, #0]
 8002046:	2b00      	cmp	r3, #0
 8002048:	d102      	bne.n	8002050 <recv_read_device_identification_res+0x144>
        buffers_out = NULL;
 800204a:	2300      	movs	r3, #0
 800204c:	607b      	str	r3, [r7, #4]
 800204e:	e00a      	b.n	8002066 <recv_read_device_identification_res+0x15a>
    }
    else if (objects_count > buffers_count)
 8002050:	2319      	movs	r3, #25
 8002052:	18fa      	adds	r2, r7, r3
 8002054:	230b      	movs	r3, #11
 8002056:	18fb      	adds	r3, r7, r3
 8002058:	7812      	ldrb	r2, [r2, #0]
 800205a:	781b      	ldrb	r3, [r3, #0]
 800205c:	429a      	cmp	r2, r3
 800205e:	d902      	bls.n	8002066 <recv_read_device_identification_res+0x15a>
        return NMBS_ERROR_INVALID_ARGUMENT;
 8002060:	2301      	movs	r3, #1
 8002062:	425b      	negs	r3, r3
 8002064:	e0ae      	b.n	80021c4 <recv_read_device_identification_res+0x2b8>

    if (more_follows == 0)
 8002066:	231a      	movs	r3, #26
 8002068:	18fb      	adds	r3, r7, r3
 800206a:	781b      	ldrb	r3, [r3, #0]
 800206c:	2b00      	cmp	r3, #0
 800206e:	d103      	bne.n	8002078 <recv_read_device_identification_res+0x16c>
        next_object_id = 0x7F;    // This value is reserved in the spec, we use it to signal the stream is finished
 8002070:	2327      	movs	r3, #39	; 0x27
 8002072:	18fb      	adds	r3, r7, r3
 8002074:	227f      	movs	r2, #127	; 0x7f
 8002076:	701a      	strb	r2, [r3, #0]

    if (next_object_id_out)
 8002078:	6c3b      	ldr	r3, [r7, #64]	; 0x40
 800207a:	2b00      	cmp	r3, #0
 800207c:	d004      	beq.n	8002088 <recv_read_device_identification_res+0x17c>
        *next_object_id_out = next_object_id;
 800207e:	6c3b      	ldr	r3, [r7, #64]	; 0x40
 8002080:	2227      	movs	r2, #39	; 0x27
 8002082:	18ba      	adds	r2, r7, r2
 8002084:	7812      	ldrb	r2, [r2, #0]
 8002086:	701a      	strb	r2, [r3, #0]

    uint8_t res_size_left = 253 - 7;
 8002088:	2326      	movs	r3, #38	; 0x26
 800208a:	18fb      	adds	r3, r7, r3
 800208c:	22f6      	movs	r2, #246	; 0xf6
 800208e:	701a      	strb	r2, [r3, #0]
    for (uint_fast8_t i = 0; i < objects_count; i++) {
 8002090:	2300      	movs	r3, #0
 8002092:	623b      	str	r3, [r7, #32]
 8002094:	e08a      	b.n	80021ac <recv_read_device_identification_res+0x2a0>
        err = recv(nmbs, 2);
 8002096:	251e      	movs	r5, #30
 8002098:	197c      	adds	r4, r7, r5
 800209a:	68fb      	ldr	r3, [r7, #12]
 800209c:	2102      	movs	r1, #2
 800209e:	0018      	movs	r0, r3
 80020a0:	f7fe fe42 	bl	8000d28 <recv>
 80020a4:	0003      	movs	r3, r0
 80020a6:	7023      	strb	r3, [r4, #0]
        if (err != NMBS_ERROR_NONE)
 80020a8:	197b      	adds	r3, r7, r5
 80020aa:	781b      	ldrb	r3, [r3, #0]
 80020ac:	b25b      	sxtb	r3, r3
 80020ae:	2b00      	cmp	r3, #0
 80020b0:	d003      	beq.n	80020ba <recv_read_device_identification_res+0x1ae>
            return err;
 80020b2:	197b      	adds	r3, r7, r5
 80020b4:	781b      	ldrb	r3, [r3, #0]
 80020b6:	b25b      	sxtb	r3, r3
 80020b8:	e084      	b.n	80021c4 <recv_read_device_identification_res+0x2b8>

        const uint8_t object_id = get_1(nmbs);
 80020ba:	2318      	movs	r3, #24
 80020bc:	18fc      	adds	r4, r7, r3
 80020be:	68fb      	ldr	r3, [r7, #12]
 80020c0:	0018      	movs	r0, r3
 80020c2:	f7fe fc8b 	bl	80009dc <get_1>
 80020c6:	0003      	movs	r3, r0
 80020c8:	7023      	strb	r3, [r4, #0]
        const uint8_t object_length = get_1(nmbs);
 80020ca:	2517      	movs	r5, #23
 80020cc:	197c      	adds	r4, r7, r5
 80020ce:	68fb      	ldr	r3, [r7, #12]
 80020d0:	0018      	movs	r0, r3
 80020d2:	f7fe fc83 	bl	80009dc <get_1>
 80020d6:	0003      	movs	r3, r0
 80020d8:	7023      	strb	r3, [r4, #0]
        res_size_left -= 2;
 80020da:	2126      	movs	r1, #38	; 0x26
 80020dc:	187b      	adds	r3, r7, r1
 80020de:	187a      	adds	r2, r7, r1
 80020e0:	7812      	ldrb	r2, [r2, #0]
 80020e2:	3a02      	subs	r2, #2
 80020e4:	701a      	strb	r2, [r3, #0]

        if (object_length > res_size_left)
 80020e6:	197a      	adds	r2, r7, r5
 80020e8:	187b      	adds	r3, r7, r1
 80020ea:	7812      	ldrb	r2, [r2, #0]
 80020ec:	781b      	ldrb	r3, [r3, #0]
 80020ee:	429a      	cmp	r2, r3
 80020f0:	d902      	bls.n	80020f8 <recv_read_device_identification_res+0x1ec>
            return NMBS_ERROR_INVALID_RESPONSE;
 80020f2:	2302      	movs	r3, #2
 80020f4:	425b      	negs	r3, r3
 80020f6:	e065      	b.n	80021c4 <recv_read_device_identification_res+0x2b8>

        err = recv(nmbs, object_length);
 80020f8:	2317      	movs	r3, #23
 80020fa:	18fb      	adds	r3, r7, r3
 80020fc:	781b      	ldrb	r3, [r3, #0]
 80020fe:	b29a      	uxth	r2, r3
 8002100:	251e      	movs	r5, #30
 8002102:	197c      	adds	r4, r7, r5
 8002104:	68fb      	ldr	r3, [r7, #12]
 8002106:	0011      	movs	r1, r2
 8002108:	0018      	movs	r0, r3
 800210a:	f7fe fe0d 	bl	8000d28 <recv>
 800210e:	0003      	movs	r3, r0
 8002110:	7023      	strb	r3, [r4, #0]
        if (err != NMBS_ERROR_NONE)
 8002112:	197b      	adds	r3, r7, r5
 8002114:	781b      	ldrb	r3, [r3, #0]
 8002116:	b25b      	sxtb	r3, r3
 8002118:	2b00      	cmp	r3, #0
 800211a:	d003      	beq.n	8002124 <recv_read_device_identification_res+0x218>
            return err;
 800211c:	197b      	adds	r3, r7, r5
 800211e:	781b      	ldrb	r3, [r3, #0]
 8002120:	b25b      	sxtb	r3, r3
 8002122:	e04f      	b.n	80021c4 <recv_read_device_identification_res+0x2b8>

        const char* str = (const char*) get_n(nmbs, object_length);
 8002124:	2317      	movs	r3, #23
 8002126:	18fb      	adds	r3, r7, r3
 8002128:	781b      	ldrb	r3, [r3, #0]
 800212a:	b29a      	uxth	r2, r3
 800212c:	68fb      	ldr	r3, [r7, #12]
 800212e:	0011      	movs	r1, r2
 8002130:	0018      	movs	r0, r3
 8002132:	f7fe fd44 	bl	8000bbe <get_n>
 8002136:	0003      	movs	r3, r0
 8002138:	613b      	str	r3, [r7, #16]

        if (ids_out)
 800213a:	6bfb      	ldr	r3, [r7, #60]	; 0x3c
 800213c:	2b00      	cmp	r3, #0
 800213e:	d006      	beq.n	800214e <recv_read_device_identification_res+0x242>
            ids_out[i] = object_id;
 8002140:	6bfa      	ldr	r2, [r7, #60]	; 0x3c
 8002142:	6a3b      	ldr	r3, [r7, #32]
 8002144:	18d3      	adds	r3, r2, r3
 8002146:	2218      	movs	r2, #24
 8002148:	18ba      	adds	r2, r7, r2
 800214a:	7812      	ldrb	r2, [r2, #0]
 800214c:	701a      	strb	r2, [r3, #0]

        uint8_t buf_index = i;
 800214e:	211f      	movs	r1, #31
 8002150:	187b      	adds	r3, r7, r1
 8002152:	6a3a      	ldr	r2, [r7, #32]
 8002154:	701a      	strb	r2, [r3, #0]
        if (order)
 8002156:	6bbb      	ldr	r3, [r7, #56]	; 0x38
 8002158:	2b00      	cmp	r3, #0
 800215a:	d007      	beq.n	800216c <recv_read_device_identification_res+0x260>
            buf_index = order[object_id];
 800215c:	2318      	movs	r3, #24
 800215e:	18fb      	adds	r3, r7, r3
 8002160:	781b      	ldrb	r3, [r3, #0]
 8002162:	6bba      	ldr	r2, [r7, #56]	; 0x38
 8002164:	18d2      	adds	r2, r2, r3
 8002166:	187b      	adds	r3, r7, r1
 8002168:	7812      	ldrb	r2, [r2, #0]
 800216a:	701a      	strb	r2, [r3, #0]
        if (buffers_out) {
 800216c:	687b      	ldr	r3, [r7, #4]
 800216e:	2b00      	cmp	r3, #0
 8002170:	d019      	beq.n	80021a6 <recv_read_device_identification_res+0x29a>
#ifndef _WIN32
            strncpy(buffers_out[buf_index], str, buffers_length);
 8002172:	241f      	movs	r4, #31
 8002174:	193b      	adds	r3, r7, r4
 8002176:	781b      	ldrb	r3, [r3, #0]
 8002178:	009b      	lsls	r3, r3, #2
 800217a:	687a      	ldr	r2, [r7, #4]
 800217c:	18d3      	adds	r3, r2, r3
 800217e:	6818      	ldr	r0, [r3, #0]
 8002180:	230a      	movs	r3, #10
 8002182:	18fb      	adds	r3, r7, r3
 8002184:	781a      	ldrb	r2, [r3, #0]
 8002186:	693b      	ldr	r3, [r7, #16]
 8002188:	0019      	movs	r1, r3
 800218a:	f005 fbef 	bl	800796c <strncpy>
#else
            strncpy_s(buffers_out[buf_index], buffers_length, str, object_length);
#endif
            buffers_out[buf_index][object_length] = 0;
 800218e:	193b      	adds	r3, r7, r4
 8002190:	781b      	ldrb	r3, [r3, #0]
 8002192:	009b      	lsls	r3, r3, #2
 8002194:	687a      	ldr	r2, [r7, #4]
 8002196:	18d3      	adds	r3, r2, r3
 8002198:	681a      	ldr	r2, [r3, #0]
 800219a:	2317      	movs	r3, #23
 800219c:	18fb      	adds	r3, r7, r3
 800219e:	781b      	ldrb	r3, [r3, #0]
 80021a0:	18d3      	adds	r3, r2, r3
 80021a2:	2200      	movs	r2, #0
 80021a4:	701a      	strb	r2, [r3, #0]
    for (uint_fast8_t i = 0; i < objects_count; i++) {
 80021a6:	6a3b      	ldr	r3, [r7, #32]
 80021a8:	3301      	adds	r3, #1
 80021aa:	623b      	str	r3, [r7, #32]
 80021ac:	2319      	movs	r3, #25
 80021ae:	18fb      	adds	r3, r7, r3
 80021b0:	781b      	ldrb	r3, [r3, #0]
 80021b2:	6a3a      	ldr	r2, [r7, #32]
 80021b4:	429a      	cmp	r2, r3
 80021b6:	d200      	bcs.n	80021ba <recv_read_device_identification_res+0x2ae>
 80021b8:	e76d      	b.n	8002096 <recv_read_device_identification_res+0x18a>
        }
    }

    return recv_msg_footer(nmbs);
 80021ba:	68fb      	ldr	r3, [r7, #12]
 80021bc:	0018      	movs	r0, r3
 80021be:	f7fe ff51 	bl	8001064 <recv_msg_footer>
 80021c2:	0003      	movs	r3, r0
}
 80021c4:	0018      	movs	r0, r3
 80021c6:	46bd      	mov	sp, r7
 80021c8:	b00a      	add	sp, #40	; 0x28
 80021ca:	bdb0      	pop	{r4, r5, r7, pc}

080021cc <handle_read_discrete>:


#ifndef NMBS_SERVER_DISABLED
#if !defined(NMBS_SERVER_READ_COILS_DISABLED) || !defined(NMBS_SERVER_READ_DISCRETE_INPUTS_DISABLED)
static nmbs_error handle_read_discrete(nmbs_t* nmbs,
                                       nmbs_error (*callback)(uint16_t, uint16_t, nmbs_bitfield, uint8_t, void*)) {
 80021cc:	b5f0      	push	{r4, r5, r6, r7, lr}
 80021ce:	b0c7      	sub	sp, #284	; 0x11c
 80021d0:	af02      	add	r7, sp, #8
 80021d2:	6078      	str	r0, [r7, #4]
 80021d4:	6039      	str	r1, [r7, #0]
    nmbs_error err = recv(nmbs, 4);
 80021d6:	250c      	movs	r5, #12
 80021d8:	35ff      	adds	r5, #255	; 0xff
 80021da:	197c      	adds	r4, r7, r5
 80021dc:	687b      	ldr	r3, [r7, #4]
 80021de:	2104      	movs	r1, #4
 80021e0:	0018      	movs	r0, r3
 80021e2:	f7fe fda1 	bl	8000d28 <recv>
 80021e6:	0003      	movs	r3, r0
 80021e8:	7023      	strb	r3, [r4, #0]
    if (err != NMBS_ERROR_NONE)
 80021ea:	197b      	adds	r3, r7, r5
 80021ec:	781b      	ldrb	r3, [r3, #0]
 80021ee:	b25b      	sxtb	r3, r3
 80021f0:	2b00      	cmp	r3, #0
 80021f2:	d003      	beq.n	80021fc <handle_read_discrete+0x30>
        return err;
 80021f4:	197b      	adds	r3, r7, r5
 80021f6:	781b      	ldrb	r3, [r3, #0]
 80021f8:	b25b      	sxtb	r3, r3
 80021fa:	e10d      	b.n	8002418 <handle_read_discrete+0x24c>

    const uint16_t address = get_2(nmbs);
 80021fc:	2384      	movs	r3, #132	; 0x84
 80021fe:	005b      	lsls	r3, r3, #1
 8002200:	18fc      	adds	r4, r7, r3
 8002202:	687b      	ldr	r3, [r7, #4]
 8002204:	0018      	movs	r0, r3
 8002206:	f7fe fc4e 	bl	8000aa6 <get_2>
 800220a:	0003      	movs	r3, r0
 800220c:	8023      	strh	r3, [r4, #0]
    const uint16_t quantity = get_2(nmbs);
 800220e:	1dfc      	adds	r4, r7, #7
 8002210:	34ff      	adds	r4, #255	; 0xff
 8002212:	687b      	ldr	r3, [r7, #4]
 8002214:	0018      	movs	r0, r3
 8002216:	f7fe fc46 	bl	8000aa6 <get_2>
 800221a:	0003      	movs	r3, r0
 800221c:	8023      	strh	r3, [r4, #0]

    NMBS_DEBUG_PRINT("a %d\tq %d", address, quantity);

    err = recv_msg_footer(nmbs);
 800221e:	250c      	movs	r5, #12
 8002220:	35ff      	adds	r5, #255	; 0xff
 8002222:	197c      	adds	r4, r7, r5
 8002224:	687b      	ldr	r3, [r7, #4]
 8002226:	0018      	movs	r0, r3
 8002228:	f7fe ff1c 	bl	8001064 <recv_msg_footer>
 800222c:	0003      	movs	r3, r0
 800222e:	7023      	strb	r3, [r4, #0]
    if (err != NMBS_ERROR_NONE)
 8002230:	197b      	adds	r3, r7, r5
 8002232:	781b      	ldrb	r3, [r3, #0]
 8002234:	b25b      	sxtb	r3, r3
 8002236:	2b00      	cmp	r3, #0
 8002238:	d003      	beq.n	8002242 <handle_read_discrete+0x76>
        return err;
 800223a:	197b      	adds	r3, r7, r5
 800223c:	781b      	ldrb	r3, [r3, #0]
 800223e:	b25b      	sxtb	r3, r3
 8002240:	e0ea      	b.n	8002418 <handle_read_discrete+0x24c>

    if (!nmbs->msg.ignored) {
 8002242:	687a      	ldr	r2, [r7, #4]
 8002244:	230c      	movs	r3, #12
 8002246:	33ff      	adds	r3, #255	; 0xff
 8002248:	5cd3      	ldrb	r3, [r2, r3]
 800224a:	2201      	movs	r2, #1
 800224c:	4053      	eors	r3, r2
 800224e:	b2db      	uxtb	r3, r3
 8002250:	2b00      	cmp	r3, #0
 8002252:	d100      	bne.n	8002256 <handle_read_discrete+0x8a>
 8002254:	e0d8      	b.n	8002408 <handle_read_discrete+0x23c>
        if (quantity < 1 || quantity > 2000)
 8002256:	1dfb      	adds	r3, r7, #7
 8002258:	33ff      	adds	r3, #255	; 0xff
 800225a:	881b      	ldrh	r3, [r3, #0]
 800225c:	2b00      	cmp	r3, #0
 800225e:	d006      	beq.n	800226e <handle_read_discrete+0xa2>
 8002260:	1dfb      	adds	r3, r7, #7
 8002262:	33ff      	adds	r3, #255	; 0xff
 8002264:	881a      	ldrh	r2, [r3, #0]
 8002266:	23fa      	movs	r3, #250	; 0xfa
 8002268:	00db      	lsls	r3, r3, #3
 800226a:	429a      	cmp	r2, r3
 800226c:	d906      	bls.n	800227c <handle_read_discrete+0xb0>
            return send_exception_msg(nmbs, NMBS_EXCEPTION_ILLEGAL_DATA_VALUE);
 800226e:	687b      	ldr	r3, [r7, #4]
 8002270:	2103      	movs	r1, #3
 8002272:	0018      	movs	r0, r3
 8002274:	f7ff f935 	bl	80014e2 <send_exception_msg>
 8002278:	0003      	movs	r3, r0
 800227a:	e0cd      	b.n	8002418 <handle_read_discrete+0x24c>

        if ((uint32_t) address + (uint32_t) quantity > ((uint32_t) 0xFFFF) + 1)
 800227c:	2384      	movs	r3, #132	; 0x84
 800227e:	005b      	lsls	r3, r3, #1
 8002280:	18fb      	adds	r3, r7, r3
 8002282:	881a      	ldrh	r2, [r3, #0]
 8002284:	1dfb      	adds	r3, r7, #7
 8002286:	33ff      	adds	r3, #255	; 0xff
 8002288:	881b      	ldrh	r3, [r3, #0]
 800228a:	18d2      	adds	r2, r2, r3
 800228c:	2380      	movs	r3, #128	; 0x80
 800228e:	025b      	lsls	r3, r3, #9
 8002290:	429a      	cmp	r2, r3
 8002292:	d906      	bls.n	80022a2 <handle_read_discrete+0xd6>
            return send_exception_msg(nmbs, NMBS_EXCEPTION_ILLEGAL_DATA_ADDRESS);
 8002294:	687b      	ldr	r3, [r7, #4]
 8002296:	2102      	movs	r1, #2
 8002298:	0018      	movs	r0, r3
 800229a:	f7ff f922 	bl	80014e2 <send_exception_msg>
 800229e:	0003      	movs	r3, r0
 80022a0:	e0ba      	b.n	8002418 <handle_read_discrete+0x24c>

        if (callback) {
 80022a2:	683b      	ldr	r3, [r7, #0]
 80022a4:	2b00      	cmp	r3, #0
 80022a6:	d100      	bne.n	80022aa <handle_read_discrete+0xde>
 80022a8:	e0a7      	b.n	80023fa <handle_read_discrete+0x22e>
            nmbs_bitfield bitfield = {0};
 80022aa:	4b5d      	ldr	r3, [pc, #372]	; (8002420 <handle_read_discrete+0x254>)
 80022ac:	2288      	movs	r2, #136	; 0x88
 80022ae:	0052      	lsls	r2, r2, #1
 80022b0:	189b      	adds	r3, r3, r2
 80022b2:	19db      	adds	r3, r3, r7
 80022b4:	2200      	movs	r2, #0
 80022b6:	601a      	str	r2, [r3, #0]
 80022b8:	3304      	adds	r3, #4
 80022ba:	22f6      	movs	r2, #246	; 0xf6
 80022bc:	2100      	movs	r1, #0
 80022be:	0018      	movs	r0, r3
 80022c0:	f005 fb4c 	bl	800795c <memset>
            err = callback(address, quantity, bitfield, nmbs->msg.unit_id, nmbs->callbacks.arg);
 80022c4:	687a      	ldr	r2, [r7, #4]
 80022c6:	2383      	movs	r3, #131	; 0x83
 80022c8:	005b      	lsls	r3, r3, #1
 80022ca:	5cd3      	ldrb	r3, [r2, r3]
 80022cc:	469c      	mov	ip, r3
 80022ce:	687a      	ldr	r2, [r7, #4]
 80022d0:	23a0      	movs	r3, #160	; 0xa0
 80022d2:	005b      	lsls	r3, r3, #1
 80022d4:	58d3      	ldr	r3, [r2, r3]
 80022d6:	220c      	movs	r2, #12
 80022d8:	32ff      	adds	r2, #255	; 0xff
 80022da:	18bc      	adds	r4, r7, r2
 80022dc:	2108      	movs	r1, #8
 80022de:	187e      	adds	r6, r7, r1
 80022e0:	1dfa      	adds	r2, r7, #7
 80022e2:	32ff      	adds	r2, #255	; 0xff
 80022e4:	8811      	ldrh	r1, [r2, #0]
 80022e6:	2084      	movs	r0, #132	; 0x84
 80022e8:	0040      	lsls	r0, r0, #1
 80022ea:	183a      	adds	r2, r7, r0
 80022ec:	8810      	ldrh	r0, [r2, #0]
 80022ee:	9300      	str	r3, [sp, #0]
 80022f0:	683d      	ldr	r5, [r7, #0]
 80022f2:	4663      	mov	r3, ip
 80022f4:	0032      	movs	r2, r6
 80022f6:	47a8      	blx	r5
 80022f8:	0003      	movs	r3, r0
 80022fa:	7023      	strb	r3, [r4, #0]
            if (err != NMBS_ERROR_NONE) {
 80022fc:	220c      	movs	r2, #12
 80022fe:	32ff      	adds	r2, #255	; 0xff
 8002300:	18bb      	adds	r3, r7, r2
 8002302:	781b      	ldrb	r3, [r3, #0]
 8002304:	b25b      	sxtb	r3, r3
 8002306:	2b00      	cmp	r3, #0
 8002308:	d019      	beq.n	800233e <handle_read_discrete+0x172>
                if (nmbs_error_is_exception(err))
 800230a:	18bb      	adds	r3, r7, r2
 800230c:	781b      	ldrb	r3, [r3, #0]
 800230e:	b25b      	sxtb	r3, r3
 8002310:	2b00      	cmp	r3, #0
 8002312:	dd0d      	ble.n	8002330 <handle_read_discrete+0x164>
 8002314:	18bb      	adds	r3, r7, r2
 8002316:	781b      	ldrb	r3, [r3, #0]
 8002318:	b25b      	sxtb	r3, r3
 800231a:	2b04      	cmp	r3, #4
 800231c:	dc08      	bgt.n	8002330 <handle_read_discrete+0x164>
                    return send_exception_msg(nmbs, err);
 800231e:	18bb      	adds	r3, r7, r2
 8002320:	781a      	ldrb	r2, [r3, #0]
 8002322:	687b      	ldr	r3, [r7, #4]
 8002324:	0011      	movs	r1, r2
 8002326:	0018      	movs	r0, r3
 8002328:	f7ff f8db 	bl	80014e2 <send_exception_msg>
 800232c:	0003      	movs	r3, r0
 800232e:	e073      	b.n	8002418 <handle_read_discrete+0x24c>

                return send_exception_msg(nmbs, NMBS_EXCEPTION_SERVER_DEVICE_FAILURE);
 8002330:	687b      	ldr	r3, [r7, #4]
 8002332:	2104      	movs	r1, #4
 8002334:	0018      	movs	r0, r3
 8002336:	f7ff f8d4 	bl	80014e2 <send_exception_msg>
 800233a:	0003      	movs	r3, r0
 800233c:	e06c      	b.n	8002418 <handle_read_discrete+0x24c>
            }

            if (!nmbs->msg.broadcast) {
 800233e:	687a      	ldr	r2, [r7, #4]
 8002340:	2385      	movs	r3, #133	; 0x85
 8002342:	005b      	lsls	r3, r3, #1
 8002344:	5cd3      	ldrb	r3, [r2, r3]
 8002346:	2201      	movs	r2, #1
 8002348:	4053      	eors	r3, r2
 800234a:	b2db      	uxtb	r3, r3
 800234c:	2b00      	cmp	r3, #0
 800234e:	d062      	beq.n	8002416 <handle_read_discrete+0x24a>
                const uint8_t discrete_bytes = (quantity + 7) / 8;
 8002350:	1dfb      	adds	r3, r7, #7
 8002352:	33ff      	adds	r3, #255	; 0xff
 8002354:	881b      	ldrh	r3, [r3, #0]
 8002356:	3307      	adds	r3, #7
 8002358:	2b00      	cmp	r3, #0
 800235a:	da00      	bge.n	800235e <handle_read_discrete+0x192>
 800235c:	3307      	adds	r3, #7
 800235e:	10db      	asrs	r3, r3, #3
 8002360:	001a      	movs	r2, r3
 8002362:	1dbb      	adds	r3, r7, #6
 8002364:	33ff      	adds	r3, #255	; 0xff
 8002366:	701a      	strb	r2, [r3, #0]
                put_res_header(nmbs, 1 + discrete_bytes);
 8002368:	1dbb      	adds	r3, r7, #6
 800236a:	33ff      	adds	r3, #255	; 0xff
 800236c:	781b      	ldrb	r3, [r3, #0]
 800236e:	b29b      	uxth	r3, r3
 8002370:	3301      	adds	r3, #1
 8002372:	b29a      	uxth	r2, r3
 8002374:	687b      	ldr	r3, [r7, #4]
 8002376:	0011      	movs	r1, r2
 8002378:	0018      	movs	r0, r3
 800237a:	f7ff f8a0 	bl	80014be <put_res_header>

                put_1(nmbs, discrete_bytes);
 800237e:	1dbb      	adds	r3, r7, #6
 8002380:	33ff      	adds	r3, #255	; 0xff
 8002382:	781a      	ldrb	r2, [r3, #0]
 8002384:	687b      	ldr	r3, [r7, #4]
 8002386:	0011      	movs	r1, r2
 8002388:	0018      	movs	r0, r3
 800238a:	f7fe fb45 	bl	8000a18 <put_1>

                NMBS_DEBUG_PRINT("b %d\t", discrete_bytes);

                NMBS_DEBUG_PRINT("coils ");
                for (uint_fast8_t i = 0; i < discrete_bytes; i++) {
 800238e:	2300      	movs	r3, #0
 8002390:	2286      	movs	r2, #134	; 0x86
 8002392:	0052      	lsls	r2, r2, #1
 8002394:	18ba      	adds	r2, r7, r2
 8002396:	6013      	str	r3, [r2, #0]
 8002398:	e014      	b.n	80023c4 <handle_read_discrete+0x1f8>
                    put_1(nmbs, bitfield[i]);
 800239a:	4b21      	ldr	r3, [pc, #132]	; (8002420 <handle_read_discrete+0x254>)
 800239c:	2288      	movs	r2, #136	; 0x88
 800239e:	0052      	lsls	r2, r2, #1
 80023a0:	189b      	adds	r3, r3, r2
 80023a2:	19da      	adds	r2, r3, r7
 80023a4:	2486      	movs	r4, #134	; 0x86
 80023a6:	0064      	lsls	r4, r4, #1
 80023a8:	193b      	adds	r3, r7, r4
 80023aa:	681b      	ldr	r3, [r3, #0]
 80023ac:	18d3      	adds	r3, r2, r3
 80023ae:	781a      	ldrb	r2, [r3, #0]
 80023b0:	687b      	ldr	r3, [r7, #4]
 80023b2:	0011      	movs	r1, r2
 80023b4:	0018      	movs	r0, r3
 80023b6:	f7fe fb2f 	bl	8000a18 <put_1>
                for (uint_fast8_t i = 0; i < discrete_bytes; i++) {
 80023ba:	193b      	adds	r3, r7, r4
 80023bc:	681b      	ldr	r3, [r3, #0]
 80023be:	3301      	adds	r3, #1
 80023c0:	193a      	adds	r2, r7, r4
 80023c2:	6013      	str	r3, [r2, #0]
 80023c4:	1dbb      	adds	r3, r7, #6
 80023c6:	33ff      	adds	r3, #255	; 0xff
 80023c8:	781b      	ldrb	r3, [r3, #0]
 80023ca:	2286      	movs	r2, #134	; 0x86
 80023cc:	0052      	lsls	r2, r2, #1
 80023ce:	18ba      	adds	r2, r7, r2
 80023d0:	6812      	ldr	r2, [r2, #0]
 80023d2:	429a      	cmp	r2, r3
 80023d4:	d3e1      	bcc.n	800239a <handle_read_discrete+0x1ce>
                    NMBS_DEBUG_PRINT("%d ", bitfield[i]);
                }

                err = send_msg(nmbs);
 80023d6:	250c      	movs	r5, #12
 80023d8:	35ff      	adds	r5, #255	; 0xff
 80023da:	197c      	adds	r4, r7, r5
 80023dc:	687b      	ldr	r3, [r7, #4]
 80023de:	0018      	movs	r0, r3
 80023e0:	f7fe ffef 	bl	80013c2 <send_msg>
 80023e4:	0003      	movs	r3, r0
 80023e6:	7023      	strb	r3, [r4, #0]
                if (err != NMBS_ERROR_NONE)
 80023e8:	197b      	adds	r3, r7, r5
 80023ea:	781b      	ldrb	r3, [r3, #0]
 80023ec:	b25b      	sxtb	r3, r3
 80023ee:	2b00      	cmp	r3, #0
 80023f0:	d011      	beq.n	8002416 <handle_read_discrete+0x24a>
                    return err;
 80023f2:	197b      	adds	r3, r7, r5
 80023f4:	781b      	ldrb	r3, [r3, #0]
 80023f6:	b25b      	sxtb	r3, r3
 80023f8:	e00e      	b.n	8002418 <handle_read_discrete+0x24c>
            }
        }
        else {
            return send_exception_msg(nmbs, NMBS_EXCEPTION_ILLEGAL_FUNCTION);
 80023fa:	687b      	ldr	r3, [r7, #4]
 80023fc:	2101      	movs	r1, #1
 80023fe:	0018      	movs	r0, r3
 8002400:	f7ff f86f 	bl	80014e2 <send_exception_msg>
 8002404:	0003      	movs	r3, r0
 8002406:	e007      	b.n	8002418 <handle_read_discrete+0x24c>
        }
    }
    else {
        return recv_read_discrete_res(nmbs, NULL);
 8002408:	687b      	ldr	r3, [r7, #4]
 800240a:	2100      	movs	r1, #0
 800240c:	0018      	movs	r0, r3
 800240e:	f7ff f941 	bl	8001694 <recv_read_discrete_res>
 8002412:	0003      	movs	r3, r0
 8002414:	e000      	b.n	8002418 <handle_read_discrete+0x24c>
    }

    return NMBS_ERROR_NONE;
 8002416:	2300      	movs	r3, #0
}
 8002418:	0018      	movs	r0, r3
 800241a:	46bd      	mov	sp, r7
 800241c:	b045      	add	sp, #276	; 0x114
 800241e:	bdf0      	pop	{r4, r5, r6, r7, pc}
 8002420:	fffffef8 	.word	0xfffffef8

08002424 <handle_read_registers>:
#endif


#if !defined(NMBS_SERVER_READ_HOLDING_REGISTERS_DISABLED) || !defined(NMBS_SERVER_READ_INPUT_REGISTERS_DISABLED)
static nmbs_error handle_read_registers(nmbs_t* nmbs,
                                        nmbs_error (*callback)(uint16_t, uint16_t, uint16_t*, uint8_t, void*)) {
 8002424:	b5f0      	push	{r4, r5, r6, r7, lr}
 8002426:	b0c7      	sub	sp, #284	; 0x11c
 8002428:	af02      	add	r7, sp, #8
 800242a:	6078      	str	r0, [r7, #4]
 800242c:	6039      	str	r1, [r7, #0]
    nmbs_error err = recv(nmbs, 4);
 800242e:	250c      	movs	r5, #12
 8002430:	35ff      	adds	r5, #255	; 0xff
 8002432:	197c      	adds	r4, r7, r5
 8002434:	687b      	ldr	r3, [r7, #4]
 8002436:	2104      	movs	r1, #4
 8002438:	0018      	movs	r0, r3
 800243a:	f7fe fc75 	bl	8000d28 <recv>
 800243e:	0003      	movs	r3, r0
 8002440:	7023      	strb	r3, [r4, #0]
    if (err != NMBS_ERROR_NONE)
 8002442:	197b      	adds	r3, r7, r5
 8002444:	781b      	ldrb	r3, [r3, #0]
 8002446:	b25b      	sxtb	r3, r3
 8002448:	2b00      	cmp	r3, #0
 800244a:	d003      	beq.n	8002454 <handle_read_registers+0x30>
        return err;
 800244c:	197b      	adds	r3, r7, r5
 800244e:	781b      	ldrb	r3, [r3, #0]
 8002450:	b25b      	sxtb	r3, r3
 8002452:	e108      	b.n	8002666 <handle_read_registers+0x242>

    const uint16_t address = get_2(nmbs);
 8002454:	2384      	movs	r3, #132	; 0x84
 8002456:	005b      	lsls	r3, r3, #1
 8002458:	18fc      	adds	r4, r7, r3
 800245a:	687b      	ldr	r3, [r7, #4]
 800245c:	0018      	movs	r0, r3
 800245e:	f7fe fb22 	bl	8000aa6 <get_2>
 8002462:	0003      	movs	r3, r0
 8002464:	8023      	strh	r3, [r4, #0]
    const uint16_t quantity = get_2(nmbs);
 8002466:	1dfc      	adds	r4, r7, #7
 8002468:	34ff      	adds	r4, #255	; 0xff
 800246a:	687b      	ldr	r3, [r7, #4]
 800246c:	0018      	movs	r0, r3
 800246e:	f7fe fb1a 	bl	8000aa6 <get_2>
 8002472:	0003      	movs	r3, r0
 8002474:	8023      	strh	r3, [r4, #0]

    NMBS_DEBUG_PRINT("a %d\tq %d", address, quantity);

    err = recv_msg_footer(nmbs);
 8002476:	250c      	movs	r5, #12
 8002478:	35ff      	adds	r5, #255	; 0xff
 800247a:	197c      	adds	r4, r7, r5
 800247c:	687b      	ldr	r3, [r7, #4]
 800247e:	0018      	movs	r0, r3
 8002480:	f7fe fdf0 	bl	8001064 <recv_msg_footer>
 8002484:	0003      	movs	r3, r0
 8002486:	7023      	strb	r3, [r4, #0]
    if (err != NMBS_ERROR_NONE)
 8002488:	197b      	adds	r3, r7, r5
 800248a:	781b      	ldrb	r3, [r3, #0]
 800248c:	b25b      	sxtb	r3, r3
 800248e:	2b00      	cmp	r3, #0
 8002490:	d003      	beq.n	800249a <handle_read_registers+0x76>
        return err;
 8002492:	197b      	adds	r3, r7, r5
 8002494:	781b      	ldrb	r3, [r3, #0]
 8002496:	b25b      	sxtb	r3, r3
 8002498:	e0e5      	b.n	8002666 <handle_read_registers+0x242>

    if (!nmbs->msg.ignored) {
 800249a:	687a      	ldr	r2, [r7, #4]
 800249c:	230c      	movs	r3, #12
 800249e:	33ff      	adds	r3, #255	; 0xff
 80024a0:	5cd3      	ldrb	r3, [r2, r3]
 80024a2:	2201      	movs	r2, #1
 80024a4:	4053      	eors	r3, r2
 80024a6:	b2db      	uxtb	r3, r3
 80024a8:	2b00      	cmp	r3, #0
 80024aa:	d100      	bne.n	80024ae <handle_read_registers+0x8a>
 80024ac:	e0d0      	b.n	8002650 <handle_read_registers+0x22c>
        if (quantity < 1 || quantity > 125)
 80024ae:	1dfb      	adds	r3, r7, #7
 80024b0:	33ff      	adds	r3, #255	; 0xff
 80024b2:	881b      	ldrh	r3, [r3, #0]
 80024b4:	2b00      	cmp	r3, #0
 80024b6:	d004      	beq.n	80024c2 <handle_read_registers+0x9e>
 80024b8:	1dfb      	adds	r3, r7, #7
 80024ba:	33ff      	adds	r3, #255	; 0xff
 80024bc:	881b      	ldrh	r3, [r3, #0]
 80024be:	2b7d      	cmp	r3, #125	; 0x7d
 80024c0:	d906      	bls.n	80024d0 <handle_read_registers+0xac>
            return send_exception_msg(nmbs, NMBS_EXCEPTION_ILLEGAL_DATA_VALUE);
 80024c2:	687b      	ldr	r3, [r7, #4]
 80024c4:	2103      	movs	r1, #3
 80024c6:	0018      	movs	r0, r3
 80024c8:	f7ff f80b 	bl	80014e2 <send_exception_msg>
 80024cc:	0003      	movs	r3, r0
 80024ce:	e0ca      	b.n	8002666 <handle_read_registers+0x242>

        if ((uint32_t) address + (uint32_t) quantity > ((uint32_t) 0xFFFF) + 1)
 80024d0:	2384      	movs	r3, #132	; 0x84
 80024d2:	005b      	lsls	r3, r3, #1
 80024d4:	18fb      	adds	r3, r7, r3
 80024d6:	881a      	ldrh	r2, [r3, #0]
 80024d8:	1dfb      	adds	r3, r7, #7
 80024da:	33ff      	adds	r3, #255	; 0xff
 80024dc:	881b      	ldrh	r3, [r3, #0]
 80024de:	18d2      	adds	r2, r2, r3
 80024e0:	2380      	movs	r3, #128	; 0x80
 80024e2:	025b      	lsls	r3, r3, #9
 80024e4:	429a      	cmp	r2, r3
 80024e6:	d906      	bls.n	80024f6 <handle_read_registers+0xd2>
            return send_exception_msg(nmbs, NMBS_EXCEPTION_ILLEGAL_DATA_ADDRESS);
 80024e8:	687b      	ldr	r3, [r7, #4]
 80024ea:	2102      	movs	r1, #2
 80024ec:	0018      	movs	r0, r3
 80024ee:	f7fe fff8 	bl	80014e2 <send_exception_msg>
 80024f2:	0003      	movs	r3, r0
 80024f4:	e0b7      	b.n	8002666 <handle_read_registers+0x242>

        if (callback) {
 80024f6:	683b      	ldr	r3, [r7, #0]
 80024f8:	2b00      	cmp	r3, #0
 80024fa:	d100      	bne.n	80024fe <handle_read_registers+0xda>
 80024fc:	e0a1      	b.n	8002642 <handle_read_registers+0x21e>
            uint16_t regs[125] = {0};
 80024fe:	4b5c      	ldr	r3, [pc, #368]	; (8002670 <handle_read_registers+0x24c>)
 8002500:	2288      	movs	r2, #136	; 0x88
 8002502:	0052      	lsls	r2, r2, #1
 8002504:	189b      	adds	r3, r3, r2
 8002506:	19db      	adds	r3, r3, r7
 8002508:	0018      	movs	r0, r3
 800250a:	23fa      	movs	r3, #250	; 0xfa
 800250c:	001a      	movs	r2, r3
 800250e:	2100      	movs	r1, #0
 8002510:	f005 fa24 	bl	800795c <memset>
            err = callback(address, quantity, regs, nmbs->msg.unit_id, nmbs->callbacks.arg);
 8002514:	687a      	ldr	r2, [r7, #4]
 8002516:	2383      	movs	r3, #131	; 0x83
 8002518:	005b      	lsls	r3, r3, #1
 800251a:	5cd3      	ldrb	r3, [r2, r3]
 800251c:	469c      	mov	ip, r3
 800251e:	687a      	ldr	r2, [r7, #4]
 8002520:	23a0      	movs	r3, #160	; 0xa0
 8002522:	005b      	lsls	r3, r3, #1
 8002524:	58d3      	ldr	r3, [r2, r3]
 8002526:	220c      	movs	r2, #12
 8002528:	32ff      	adds	r2, #255	; 0xff
 800252a:	18bc      	adds	r4, r7, r2
 800252c:	2108      	movs	r1, #8
 800252e:	187e      	adds	r6, r7, r1
 8002530:	1dfa      	adds	r2, r7, #7
 8002532:	32ff      	adds	r2, #255	; 0xff
 8002534:	8811      	ldrh	r1, [r2, #0]
 8002536:	2084      	movs	r0, #132	; 0x84
 8002538:	0040      	lsls	r0, r0, #1
 800253a:	183a      	adds	r2, r7, r0
 800253c:	8810      	ldrh	r0, [r2, #0]
 800253e:	9300      	str	r3, [sp, #0]
 8002540:	683d      	ldr	r5, [r7, #0]
 8002542:	4663      	mov	r3, ip
 8002544:	0032      	movs	r2, r6
 8002546:	47a8      	blx	r5
 8002548:	0003      	movs	r3, r0
 800254a:	7023      	strb	r3, [r4, #0]
            if (err != NMBS_ERROR_NONE) {
 800254c:	220c      	movs	r2, #12
 800254e:	32ff      	adds	r2, #255	; 0xff
 8002550:	18bb      	adds	r3, r7, r2
 8002552:	781b      	ldrb	r3, [r3, #0]
 8002554:	b25b      	sxtb	r3, r3
 8002556:	2b00      	cmp	r3, #0
 8002558:	d019      	beq.n	800258e <handle_read_registers+0x16a>
                if (nmbs_error_is_exception(err))
 800255a:	18bb      	adds	r3, r7, r2
 800255c:	781b      	ldrb	r3, [r3, #0]
 800255e:	b25b      	sxtb	r3, r3
 8002560:	2b00      	cmp	r3, #0
 8002562:	dd0d      	ble.n	8002580 <handle_read_registers+0x15c>
 8002564:	18bb      	adds	r3, r7, r2
 8002566:	781b      	ldrb	r3, [r3, #0]
 8002568:	b25b      	sxtb	r3, r3
 800256a:	2b04      	cmp	r3, #4
 800256c:	dc08      	bgt.n	8002580 <handle_read_registers+0x15c>
                    return send_exception_msg(nmbs, err);
 800256e:	18bb      	adds	r3, r7, r2
 8002570:	781a      	ldrb	r2, [r3, #0]
 8002572:	687b      	ldr	r3, [r7, #4]
 8002574:	0011      	movs	r1, r2
 8002576:	0018      	movs	r0, r3
 8002578:	f7fe ffb3 	bl	80014e2 <send_exception_msg>
 800257c:	0003      	movs	r3, r0
 800257e:	e072      	b.n	8002666 <handle_read_registers+0x242>

                return send_exception_msg(nmbs, NMBS_EXCEPTION_SERVER_DEVICE_FAILURE);
 8002580:	687b      	ldr	r3, [r7, #4]
 8002582:	2104      	movs	r1, #4
 8002584:	0018      	movs	r0, r3
 8002586:	f7fe ffac 	bl	80014e2 <send_exception_msg>
 800258a:	0003      	movs	r3, r0
 800258c:	e06b      	b.n	8002666 <handle_read_registers+0x242>
            }

            // TODO check all these read request broadcast use cases
            if (!nmbs->msg.broadcast) {
 800258e:	687a      	ldr	r2, [r7, #4]
 8002590:	2385      	movs	r3, #133	; 0x85
 8002592:	005b      	lsls	r3, r3, #1
 8002594:	5cd3      	ldrb	r3, [r2, r3]
 8002596:	2201      	movs	r2, #1
 8002598:	4053      	eors	r3, r2
 800259a:	b2db      	uxtb	r3, r3
 800259c:	2b00      	cmp	r3, #0
 800259e:	d061      	beq.n	8002664 <handle_read_registers+0x240>
                const uint8_t regs_bytes = quantity * 2;
 80025a0:	1dfb      	adds	r3, r7, #7
 80025a2:	33ff      	adds	r3, #255	; 0xff
 80025a4:	881b      	ldrh	r3, [r3, #0]
 80025a6:	b2db      	uxtb	r3, r3
 80025a8:	1dba      	adds	r2, r7, #6
 80025aa:	32ff      	adds	r2, #255	; 0xff
 80025ac:	18db      	adds	r3, r3, r3
 80025ae:	7013      	strb	r3, [r2, #0]
                put_res_header(nmbs, 1 + regs_bytes);
 80025b0:	1dbb      	adds	r3, r7, #6
 80025b2:	33ff      	adds	r3, #255	; 0xff
 80025b4:	781b      	ldrb	r3, [r3, #0]
 80025b6:	b29b      	uxth	r3, r3
 80025b8:	3301      	adds	r3, #1
 80025ba:	b29a      	uxth	r2, r3
 80025bc:	687b      	ldr	r3, [r7, #4]
 80025be:	0011      	movs	r1, r2
 80025c0:	0018      	movs	r0, r3
 80025c2:	f7fe ff7c 	bl	80014be <put_res_header>

                put_1(nmbs, regs_bytes);
 80025c6:	1dbb      	adds	r3, r7, #6
 80025c8:	33ff      	adds	r3, #255	; 0xff
 80025ca:	781a      	ldrb	r2, [r3, #0]
 80025cc:	687b      	ldr	r3, [r7, #4]
 80025ce:	0011      	movs	r1, r2
 80025d0:	0018      	movs	r0, r3
 80025d2:	f7fe fa21 	bl	8000a18 <put_1>

                NMBS_DEBUG_PRINT("b %d\t", regs_bytes);

                NMBS_DEBUG_PRINT("regs ");
                for (uint_fast16_t i = 0; i < quantity; i++) {
 80025d6:	2300      	movs	r3, #0
 80025d8:	2286      	movs	r2, #134	; 0x86
 80025da:	0052      	lsls	r2, r2, #1
 80025dc:	18ba      	adds	r2, r7, r2
 80025de:	6013      	str	r3, [r2, #0]
 80025e0:	e014      	b.n	800260c <handle_read_registers+0x1e8>
                    put_2(nmbs, regs[i]);
 80025e2:	4b23      	ldr	r3, [pc, #140]	; (8002670 <handle_read_registers+0x24c>)
 80025e4:	2288      	movs	r2, #136	; 0x88
 80025e6:	0052      	lsls	r2, r2, #1
 80025e8:	189b      	adds	r3, r3, r2
 80025ea:	19db      	adds	r3, r3, r7
 80025ec:	2486      	movs	r4, #134	; 0x86
 80025ee:	0064      	lsls	r4, r4, #1
 80025f0:	193a      	adds	r2, r7, r4
 80025f2:	6812      	ldr	r2, [r2, #0]
 80025f4:	0052      	lsls	r2, r2, #1
 80025f6:	5ad2      	ldrh	r2, [r2, r3]
 80025f8:	687b      	ldr	r3, [r7, #4]
 80025fa:	0011      	movs	r1, r2
 80025fc:	0018      	movs	r0, r3
 80025fe:	f7fe fa7c 	bl	8000afa <put_2>
                for (uint_fast16_t i = 0; i < quantity; i++) {
 8002602:	193b      	adds	r3, r7, r4
 8002604:	681b      	ldr	r3, [r3, #0]
 8002606:	3301      	adds	r3, #1
 8002608:	193a      	adds	r2, r7, r4
 800260a:	6013      	str	r3, [r2, #0]
 800260c:	1dfb      	adds	r3, r7, #7
 800260e:	33ff      	adds	r3, #255	; 0xff
 8002610:	881b      	ldrh	r3, [r3, #0]
 8002612:	2286      	movs	r2, #134	; 0x86
 8002614:	0052      	lsls	r2, r2, #1
 8002616:	18ba      	adds	r2, r7, r2
 8002618:	6812      	ldr	r2, [r2, #0]
 800261a:	429a      	cmp	r2, r3
 800261c:	d3e1      	bcc.n	80025e2 <handle_read_registers+0x1be>
                    NMBS_DEBUG_PRINT("%d ", regs[i]);
                }

                err = send_msg(nmbs);
 800261e:	250c      	movs	r5, #12
 8002620:	35ff      	adds	r5, #255	; 0xff
 8002622:	197c      	adds	r4, r7, r5
 8002624:	687b      	ldr	r3, [r7, #4]
 8002626:	0018      	movs	r0, r3
 8002628:	f7fe fecb 	bl	80013c2 <send_msg>
 800262c:	0003      	movs	r3, r0
 800262e:	7023      	strb	r3, [r4, #0]
                if (err != NMBS_ERROR_NONE)
 8002630:	197b      	adds	r3, r7, r5
 8002632:	781b      	ldrb	r3, [r3, #0]
 8002634:	b25b      	sxtb	r3, r3
 8002636:	2b00      	cmp	r3, #0
 8002638:	d014      	beq.n	8002664 <handle_read_registers+0x240>
                    return err;
 800263a:	197b      	adds	r3, r7, r5
 800263c:	781b      	ldrb	r3, [r3, #0]
 800263e:	b25b      	sxtb	r3, r3
 8002640:	e011      	b.n	8002666 <handle_read_registers+0x242>
            }
        }
        else {
            return send_exception_msg(nmbs, NMBS_EXCEPTION_ILLEGAL_FUNCTION);
 8002642:	687b      	ldr	r3, [r7, #4]
 8002644:	2101      	movs	r1, #1
 8002646:	0018      	movs	r0, r3
 8002648:	f7fe ff4b 	bl	80014e2 <send_exception_msg>
 800264c:	0003      	movs	r3, r0
 800264e:	e00a      	b.n	8002666 <handle_read_registers+0x242>
        }
    }
    else {
        return recv_read_registers_res(nmbs, quantity, NULL);
 8002650:	1dfb      	adds	r3, r7, #7
 8002652:	33ff      	adds	r3, #255	; 0xff
 8002654:	8819      	ldrh	r1, [r3, #0]
 8002656:	687b      	ldr	r3, [r7, #4]
 8002658:	2200      	movs	r2, #0
 800265a:	0018      	movs	r0, r3
 800265c:	f7ff f89a 	bl	8001794 <recv_read_registers_res>
 8002660:	0003      	movs	r3, r0
 8002662:	e000      	b.n	8002666 <handle_read_registers+0x242>
    }

    return NMBS_ERROR_NONE;
 8002664:	2300      	movs	r3, #0
}
 8002666:	0018      	movs	r0, r3
 8002668:	46bd      	mov	sp, r7
 800266a:	b045      	add	sp, #276	; 0x114
 800266c:	bdf0      	pop	{r4, r5, r6, r7, pc}
 800266e:	46c0      	nop			; (mov r8, r8)
 8002670:	fffffef8 	.word	0xfffffef8

08002674 <handle_read_coils>:
#endif


#ifndef NMBS_SERVER_READ_COILS_DISABLED
static nmbs_error handle_read_coils(nmbs_t* nmbs) {
 8002674:	b580      	push	{r7, lr}
 8002676:	b082      	sub	sp, #8
 8002678:	af00      	add	r7, sp, #0
 800267a:	6078      	str	r0, [r7, #4]
    return handle_read_discrete(nmbs, nmbs->callbacks.read_coils);
 800267c:	687a      	ldr	r2, [r7, #4]
 800267e:	2388      	movs	r3, #136	; 0x88
 8002680:	005b      	lsls	r3, r3, #1
 8002682:	58d2      	ldr	r2, [r2, r3]
 8002684:	687b      	ldr	r3, [r7, #4]
 8002686:	0011      	movs	r1, r2
 8002688:	0018      	movs	r0, r3
 800268a:	f7ff fd9f 	bl	80021cc <handle_read_discrete>
 800268e:	0003      	movs	r3, r0
}
 8002690:	0018      	movs	r0, r3
 8002692:	46bd      	mov	sp, r7
 8002694:	b002      	add	sp, #8
 8002696:	bd80      	pop	{r7, pc}

08002698 <handle_read_discrete_inputs>:
#endif


#ifndef NMBS_SERVER_READ_DISCRETE_INPUTS_DISABLED
static nmbs_error handle_read_discrete_inputs(nmbs_t* nmbs) {
 8002698:	b580      	push	{r7, lr}
 800269a:	b082      	sub	sp, #8
 800269c:	af00      	add	r7, sp, #0
 800269e:	6078      	str	r0, [r7, #4]
    return handle_read_discrete(nmbs, nmbs->callbacks.read_discrete_inputs);
 80026a0:	687a      	ldr	r2, [r7, #4]
 80026a2:	238a      	movs	r3, #138	; 0x8a
 80026a4:	005b      	lsls	r3, r3, #1
 80026a6:	58d2      	ldr	r2, [r2, r3]
 80026a8:	687b      	ldr	r3, [r7, #4]
 80026aa:	0011      	movs	r1, r2
 80026ac:	0018      	movs	r0, r3
 80026ae:	f7ff fd8d 	bl	80021cc <handle_read_discrete>
 80026b2:	0003      	movs	r3, r0
}
 80026b4:	0018      	movs	r0, r3
 80026b6:	46bd      	mov	sp, r7
 80026b8:	b002      	add	sp, #8
 80026ba:	bd80      	pop	{r7, pc}

080026bc <handle_read_holding_registers>:
#endif


#ifndef NMBS_SERVER_READ_HOLDING_REGISTERS_DISABLED
static nmbs_error handle_read_holding_registers(nmbs_t* nmbs) {
 80026bc:	b580      	push	{r7, lr}
 80026be:	b082      	sub	sp, #8
 80026c0:	af00      	add	r7, sp, #0
 80026c2:	6078      	str	r0, [r7, #4]
    return handle_read_registers(nmbs, nmbs->callbacks.read_holding_registers);
 80026c4:	687a      	ldr	r2, [r7, #4]
 80026c6:	238c      	movs	r3, #140	; 0x8c
 80026c8:	005b      	lsls	r3, r3, #1
 80026ca:	58d2      	ldr	r2, [r2, r3]
 80026cc:	687b      	ldr	r3, [r7, #4]
 80026ce:	0011      	movs	r1, r2
 80026d0:	0018      	movs	r0, r3
 80026d2:	f7ff fea7 	bl	8002424 <handle_read_registers>
 80026d6:	0003      	movs	r3, r0
}
 80026d8:	0018      	movs	r0, r3
 80026da:	46bd      	mov	sp, r7
 80026dc:	b002      	add	sp, #8
 80026de:	bd80      	pop	{r7, pc}

080026e0 <handle_read_input_registers>:
#endif


#ifndef NMBS_SERVER_READ_INPUT_REGISTERS_DISABLED
static nmbs_error handle_read_input_registers(nmbs_t* nmbs) {
 80026e0:	b580      	push	{r7, lr}
 80026e2:	b082      	sub	sp, #8
 80026e4:	af00      	add	r7, sp, #0
 80026e6:	6078      	str	r0, [r7, #4]
    return handle_read_registers(nmbs, nmbs->callbacks.read_input_registers);
 80026e8:	687a      	ldr	r2, [r7, #4]
 80026ea:	238e      	movs	r3, #142	; 0x8e
 80026ec:	005b      	lsls	r3, r3, #1
 80026ee:	58d2      	ldr	r2, [r2, r3]
 80026f0:	687b      	ldr	r3, [r7, #4]
 80026f2:	0011      	movs	r1, r2
 80026f4:	0018      	movs	r0, r3
 80026f6:	f7ff fe95 	bl	8002424 <handle_read_registers>
 80026fa:	0003      	movs	r3, r0
}
 80026fc:	0018      	movs	r0, r3
 80026fe:	46bd      	mov	sp, r7
 8002700:	b002      	add	sp, #8
 8002702:	bd80      	pop	{r7, pc}

08002704 <handle_write_single_coil>:
#endif


#ifndef NMBS_SERVER_WRITE_SINGLE_COIL_DISABLED
static nmbs_error handle_write_single_coil(nmbs_t* nmbs) {
 8002704:	b5f0      	push	{r4, r5, r6, r7, lr}
 8002706:	b085      	sub	sp, #20
 8002708:	af00      	add	r7, sp, #0
 800270a:	6078      	str	r0, [r7, #4]
    nmbs_error err = recv(nmbs, 4);
 800270c:	250f      	movs	r5, #15
 800270e:	197c      	adds	r4, r7, r5
 8002710:	687b      	ldr	r3, [r7, #4]
 8002712:	2104      	movs	r1, #4
 8002714:	0018      	movs	r0, r3
 8002716:	f7fe fb07 	bl	8000d28 <recv>
 800271a:	0003      	movs	r3, r0
 800271c:	7023      	strb	r3, [r4, #0]
    if (err != NMBS_ERROR_NONE)
 800271e:	197b      	adds	r3, r7, r5
 8002720:	781b      	ldrb	r3, [r3, #0]
 8002722:	b25b      	sxtb	r3, r3
 8002724:	2b00      	cmp	r3, #0
 8002726:	d003      	beq.n	8002730 <handle_write_single_coil+0x2c>
        return err;
 8002728:	197b      	adds	r3, r7, r5
 800272a:	781b      	ldrb	r3, [r3, #0]
 800272c:	b25b      	sxtb	r3, r3
 800272e:	e0c2      	b.n	80028b6 <handle_write_single_coil+0x1b2>

    const uint16_t address = get_2(nmbs);
 8002730:	230c      	movs	r3, #12
 8002732:	18fc      	adds	r4, r7, r3
 8002734:	687b      	ldr	r3, [r7, #4]
 8002736:	0018      	movs	r0, r3
 8002738:	f7fe f9b5 	bl	8000aa6 <get_2>
 800273c:	0003      	movs	r3, r0
 800273e:	8023      	strh	r3, [r4, #0]
    const uint16_t value = get_2(nmbs);
 8002740:	230a      	movs	r3, #10
 8002742:	18fc      	adds	r4, r7, r3
 8002744:	687b      	ldr	r3, [r7, #4]
 8002746:	0018      	movs	r0, r3
 8002748:	f7fe f9ad 	bl	8000aa6 <get_2>
 800274c:	0003      	movs	r3, r0
 800274e:	8023      	strh	r3, [r4, #0]

    NMBS_DEBUG_PRINT("a %d\tvalue %d", address, value);

    err = recv_msg_footer(nmbs);
 8002750:	250f      	movs	r5, #15
 8002752:	197c      	adds	r4, r7, r5
 8002754:	687b      	ldr	r3, [r7, #4]
 8002756:	0018      	movs	r0, r3
 8002758:	f7fe fc84 	bl	8001064 <recv_msg_footer>
 800275c:	0003      	movs	r3, r0
 800275e:	7023      	strb	r3, [r4, #0]
    if (err != NMBS_ERROR_NONE)
 8002760:	197b      	adds	r3, r7, r5
 8002762:	781b      	ldrb	r3, [r3, #0]
 8002764:	b25b      	sxtb	r3, r3
 8002766:	2b00      	cmp	r3, #0
 8002768:	d003      	beq.n	8002772 <handle_write_single_coil+0x6e>
        return err;
 800276a:	197b      	adds	r3, r7, r5
 800276c:	781b      	ldrb	r3, [r3, #0]
 800276e:	b25b      	sxtb	r3, r3
 8002770:	e0a1      	b.n	80028b6 <handle_write_single_coil+0x1b2>

    if (!nmbs->msg.ignored) {
 8002772:	687a      	ldr	r2, [r7, #4]
 8002774:	230c      	movs	r3, #12
 8002776:	33ff      	adds	r3, #255	; 0xff
 8002778:	5cd3      	ldrb	r3, [r2, r3]
 800277a:	2201      	movs	r2, #1
 800277c:	4053      	eors	r3, r2
 800277e:	b2db      	uxtb	r3, r3
 8002780:	2b00      	cmp	r3, #0
 8002782:	d100      	bne.n	8002786 <handle_write_single_coil+0x82>
 8002784:	e08a      	b.n	800289c <handle_write_single_coil+0x198>
        if (nmbs->callbacks.write_single_coil) {
 8002786:	687a      	ldr	r2, [r7, #4]
 8002788:	2390      	movs	r3, #144	; 0x90
 800278a:	005b      	lsls	r3, r3, #1
 800278c:	58d3      	ldr	r3, [r2, r3]
 800278e:	2b00      	cmp	r3, #0
 8002790:	d100      	bne.n	8002794 <handle_write_single_coil+0x90>
 8002792:	e07c      	b.n	800288e <handle_write_single_coil+0x18a>
            if (value != 0 && value != 0xFF00)
 8002794:	220a      	movs	r2, #10
 8002796:	18bb      	adds	r3, r7, r2
 8002798:	881b      	ldrh	r3, [r3, #0]
 800279a:	2b00      	cmp	r3, #0
 800279c:	d00c      	beq.n	80027b8 <handle_write_single_coil+0xb4>
 800279e:	18bb      	adds	r3, r7, r2
 80027a0:	881a      	ldrh	r2, [r3, #0]
 80027a2:	23ff      	movs	r3, #255	; 0xff
 80027a4:	021b      	lsls	r3, r3, #8
 80027a6:	429a      	cmp	r2, r3
 80027a8:	d006      	beq.n	80027b8 <handle_write_single_coil+0xb4>
                return send_exception_msg(nmbs, NMBS_EXCEPTION_ILLEGAL_DATA_VALUE);
 80027aa:	687b      	ldr	r3, [r7, #4]
 80027ac:	2103      	movs	r1, #3
 80027ae:	0018      	movs	r0, r3
 80027b0:	f7fe fe97 	bl	80014e2 <send_exception_msg>
 80027b4:	0003      	movs	r3, r0
 80027b6:	e07e      	b.n	80028b6 <handle_write_single_coil+0x1b2>

            err = nmbs->callbacks.write_single_coil(address, value == 0 ? false : true, nmbs->msg.unit_id,
 80027b8:	687a      	ldr	r2, [r7, #4]
 80027ba:	2390      	movs	r3, #144	; 0x90
 80027bc:	005b      	lsls	r3, r3, #1
 80027be:	58d5      	ldr	r5, [r2, r3]
 80027c0:	230a      	movs	r3, #10
 80027c2:	18fb      	adds	r3, r7, r3
 80027c4:	881b      	ldrh	r3, [r3, #0]
 80027c6:	1e5a      	subs	r2, r3, #1
 80027c8:	4193      	sbcs	r3, r2
 80027ca:	b2d9      	uxtb	r1, r3
 80027cc:	687a      	ldr	r2, [r7, #4]
 80027ce:	2383      	movs	r3, #131	; 0x83
 80027d0:	005b      	lsls	r3, r3, #1
 80027d2:	5cd6      	ldrb	r6, [r2, r3]
 80027d4:	687a      	ldr	r2, [r7, #4]
 80027d6:	23a0      	movs	r3, #160	; 0xa0
 80027d8:	005b      	lsls	r3, r3, #1
 80027da:	58d2      	ldr	r2, [r2, r3]
 80027dc:	230f      	movs	r3, #15
 80027de:	18fc      	adds	r4, r7, r3
 80027e0:	200c      	movs	r0, #12
 80027e2:	183b      	adds	r3, r7, r0
 80027e4:	8818      	ldrh	r0, [r3, #0]
 80027e6:	0013      	movs	r3, r2
 80027e8:	0032      	movs	r2, r6
 80027ea:	47a8      	blx	r5
 80027ec:	0003      	movs	r3, r0
 80027ee:	7023      	strb	r3, [r4, #0]
                                                    nmbs->callbacks.arg);
            if (err != NMBS_ERROR_NONE) {
 80027f0:	220f      	movs	r2, #15
 80027f2:	18bb      	adds	r3, r7, r2
 80027f4:	781b      	ldrb	r3, [r3, #0]
 80027f6:	b25b      	sxtb	r3, r3
 80027f8:	2b00      	cmp	r3, #0
 80027fa:	d019      	beq.n	8002830 <handle_write_single_coil+0x12c>
                if (nmbs_error_is_exception(err))
 80027fc:	18bb      	adds	r3, r7, r2
 80027fe:	781b      	ldrb	r3, [r3, #0]
 8002800:	b25b      	sxtb	r3, r3
 8002802:	2b00      	cmp	r3, #0
 8002804:	dd0d      	ble.n	8002822 <handle_write_single_coil+0x11e>
 8002806:	18bb      	adds	r3, r7, r2
 8002808:	781b      	ldrb	r3, [r3, #0]
 800280a:	b25b      	sxtb	r3, r3
 800280c:	2b04      	cmp	r3, #4
 800280e:	dc08      	bgt.n	8002822 <handle_write_single_coil+0x11e>
                    return send_exception_msg(nmbs, err);
 8002810:	18bb      	adds	r3, r7, r2
 8002812:	781a      	ldrb	r2, [r3, #0]
 8002814:	687b      	ldr	r3, [r7, #4]
 8002816:	0011      	movs	r1, r2
 8002818:	0018      	movs	r0, r3
 800281a:	f7fe fe62 	bl	80014e2 <send_exception_msg>
 800281e:	0003      	movs	r3, r0
 8002820:	e049      	b.n	80028b6 <handle_write_single_coil+0x1b2>

                return send_exception_msg(nmbs, NMBS_EXCEPTION_SERVER_DEVICE_FAILURE);
 8002822:	687b      	ldr	r3, [r7, #4]
 8002824:	2104      	movs	r1, #4
 8002826:	0018      	movs	r0, r3
 8002828:	f7fe fe5b 	bl	80014e2 <send_exception_msg>
 800282c:	0003      	movs	r3, r0
 800282e:	e042      	b.n	80028b6 <handle_write_single_coil+0x1b2>
            }

            if (!nmbs->msg.broadcast) {
 8002830:	687a      	ldr	r2, [r7, #4]
 8002832:	2385      	movs	r3, #133	; 0x85
 8002834:	005b      	lsls	r3, r3, #1
 8002836:	5cd3      	ldrb	r3, [r2, r3]
 8002838:	2201      	movs	r2, #1
 800283a:	4053      	eors	r3, r2
 800283c:	b2db      	uxtb	r3, r3
 800283e:	2b00      	cmp	r3, #0
 8002840:	d038      	beq.n	80028b4 <handle_write_single_coil+0x1b0>
                put_res_header(nmbs, 4);
 8002842:	687b      	ldr	r3, [r7, #4]
 8002844:	2104      	movs	r1, #4
 8002846:	0018      	movs	r0, r3
 8002848:	f7fe fe39 	bl	80014be <put_res_header>

                put_2(nmbs, address);
 800284c:	230c      	movs	r3, #12
 800284e:	18fb      	adds	r3, r7, r3
 8002850:	881a      	ldrh	r2, [r3, #0]
 8002852:	687b      	ldr	r3, [r7, #4]
 8002854:	0011      	movs	r1, r2
 8002856:	0018      	movs	r0, r3
 8002858:	f7fe f94f 	bl	8000afa <put_2>
                put_2(nmbs, value);
 800285c:	230a      	movs	r3, #10
 800285e:	18fb      	adds	r3, r7, r3
 8002860:	881a      	ldrh	r2, [r3, #0]
 8002862:	687b      	ldr	r3, [r7, #4]
 8002864:	0011      	movs	r1, r2
 8002866:	0018      	movs	r0, r3
 8002868:	f7fe f947 	bl	8000afa <put_2>
                NMBS_DEBUG_PRINT("a %d\tvalue %d", address, value);

                err = send_msg(nmbs);
 800286c:	250f      	movs	r5, #15
 800286e:	197c      	adds	r4, r7, r5
 8002870:	687b      	ldr	r3, [r7, #4]
 8002872:	0018      	movs	r0, r3
 8002874:	f7fe fda5 	bl	80013c2 <send_msg>
 8002878:	0003      	movs	r3, r0
 800287a:	7023      	strb	r3, [r4, #0]
                if (err != NMBS_ERROR_NONE)
 800287c:	197b      	adds	r3, r7, r5
 800287e:	781b      	ldrb	r3, [r3, #0]
 8002880:	b25b      	sxtb	r3, r3
 8002882:	2b00      	cmp	r3, #0
 8002884:	d016      	beq.n	80028b4 <handle_write_single_coil+0x1b0>
                    return err;
 8002886:	197b      	adds	r3, r7, r5
 8002888:	781b      	ldrb	r3, [r3, #0]
 800288a:	b25b      	sxtb	r3, r3
 800288c:	e013      	b.n	80028b6 <handle_write_single_coil+0x1b2>
            }
        }
        else {
            return send_exception_msg(nmbs, NMBS_EXCEPTION_ILLEGAL_FUNCTION);
 800288e:	687b      	ldr	r3, [r7, #4]
 8002890:	2101      	movs	r1, #1
 8002892:	0018      	movs	r0, r3
 8002894:	f7fe fe25 	bl	80014e2 <send_exception_msg>
 8002898:	0003      	movs	r3, r0
 800289a:	e00c      	b.n	80028b6 <handle_write_single_coil+0x1b2>
        }
    }
    else {
        return recv_write_single_coil_res(nmbs, address, value);
 800289c:	230a      	movs	r3, #10
 800289e:	18fb      	adds	r3, r7, r3
 80028a0:	881a      	ldrh	r2, [r3, #0]
 80028a2:	230c      	movs	r3, #12
 80028a4:	18fb      	adds	r3, r7, r3
 80028a6:	8819      	ldrh	r1, [r3, #0]
 80028a8:	687b      	ldr	r3, [r7, #4]
 80028aa:	0018      	movs	r0, r3
 80028ac:	f7ff f802 	bl	80018b4 <recv_write_single_coil_res>
 80028b0:	0003      	movs	r3, r0
 80028b2:	e000      	b.n	80028b6 <handle_write_single_coil+0x1b2>
    }

    return NMBS_ERROR_NONE;
 80028b4:	2300      	movs	r3, #0
}
 80028b6:	0018      	movs	r0, r3
 80028b8:	46bd      	mov	sp, r7
 80028ba:	b005      	add	sp, #20
 80028bc:	bdf0      	pop	{r4, r5, r6, r7, pc}

080028be <handle_write_single_register>:
#endif


#ifndef NMBS_SERVER_WRITE_SINGLE_REGISTER_DISABLED
static nmbs_error handle_write_single_register(nmbs_t* nmbs) {
 80028be:	b5f0      	push	{r4, r5, r6, r7, lr}
 80028c0:	b085      	sub	sp, #20
 80028c2:	af00      	add	r7, sp, #0
 80028c4:	6078      	str	r0, [r7, #4]
    nmbs_error err = recv(nmbs, 4);
 80028c6:	250f      	movs	r5, #15
 80028c8:	197c      	adds	r4, r7, r5
 80028ca:	687b      	ldr	r3, [r7, #4]
 80028cc:	2104      	movs	r1, #4
 80028ce:	0018      	movs	r0, r3
 80028d0:	f7fe fa2a 	bl	8000d28 <recv>
 80028d4:	0003      	movs	r3, r0
 80028d6:	7023      	strb	r3, [r4, #0]
    if (err != NMBS_ERROR_NONE)
 80028d8:	197b      	adds	r3, r7, r5
 80028da:	781b      	ldrb	r3, [r3, #0]
 80028dc:	b25b      	sxtb	r3, r3
 80028de:	2b00      	cmp	r3, #0
 80028e0:	d003      	beq.n	80028ea <handle_write_single_register+0x2c>
        return err;
 80028e2:	197b      	adds	r3, r7, r5
 80028e4:	781b      	ldrb	r3, [r3, #0]
 80028e6:	b25b      	sxtb	r3, r3
 80028e8:	e0ac      	b.n	8002a44 <handle_write_single_register+0x186>

    const uint16_t address = get_2(nmbs);
 80028ea:	230c      	movs	r3, #12
 80028ec:	18fc      	adds	r4, r7, r3
 80028ee:	687b      	ldr	r3, [r7, #4]
 80028f0:	0018      	movs	r0, r3
 80028f2:	f7fe f8d8 	bl	8000aa6 <get_2>
 80028f6:	0003      	movs	r3, r0
 80028f8:	8023      	strh	r3, [r4, #0]
    const uint16_t value = get_2(nmbs);
 80028fa:	230a      	movs	r3, #10
 80028fc:	18fc      	adds	r4, r7, r3
 80028fe:	687b      	ldr	r3, [r7, #4]
 8002900:	0018      	movs	r0, r3
 8002902:	f7fe f8d0 	bl	8000aa6 <get_2>
 8002906:	0003      	movs	r3, r0
 8002908:	8023      	strh	r3, [r4, #0]

    NMBS_DEBUG_PRINT("a %d\tvalue %d", address, value);

    err = recv_msg_footer(nmbs);
 800290a:	250f      	movs	r5, #15
 800290c:	197c      	adds	r4, r7, r5
 800290e:	687b      	ldr	r3, [r7, #4]
 8002910:	0018      	movs	r0, r3
 8002912:	f7fe fba7 	bl	8001064 <recv_msg_footer>
 8002916:	0003      	movs	r3, r0
 8002918:	7023      	strb	r3, [r4, #0]
    if (err != NMBS_ERROR_NONE)
 800291a:	197b      	adds	r3, r7, r5
 800291c:	781b      	ldrb	r3, [r3, #0]
 800291e:	b25b      	sxtb	r3, r3
 8002920:	2b00      	cmp	r3, #0
 8002922:	d003      	beq.n	800292c <handle_write_single_register+0x6e>
        return err;
 8002924:	197b      	adds	r3, r7, r5
 8002926:	781b      	ldrb	r3, [r3, #0]
 8002928:	b25b      	sxtb	r3, r3
 800292a:	e08b      	b.n	8002a44 <handle_write_single_register+0x186>

    if (!nmbs->msg.ignored) {
 800292c:	687a      	ldr	r2, [r7, #4]
 800292e:	230c      	movs	r3, #12
 8002930:	33ff      	adds	r3, #255	; 0xff
 8002932:	5cd3      	ldrb	r3, [r2, r3]
 8002934:	2201      	movs	r2, #1
 8002936:	4053      	eors	r3, r2
 8002938:	b2db      	uxtb	r3, r3
 800293a:	2b00      	cmp	r3, #0
 800293c:	d100      	bne.n	8002940 <handle_write_single_register+0x82>
 800293e:	e074      	b.n	8002a2a <handle_write_single_register+0x16c>
        if (nmbs->callbacks.write_single_register) {
 8002940:	687a      	ldr	r2, [r7, #4]
 8002942:	2392      	movs	r3, #146	; 0x92
 8002944:	005b      	lsls	r3, r3, #1
 8002946:	58d3      	ldr	r3, [r2, r3]
 8002948:	2b00      	cmp	r3, #0
 800294a:	d067      	beq.n	8002a1c <handle_write_single_register+0x15e>
            err = nmbs->callbacks.write_single_register(address, value, nmbs->msg.unit_id, nmbs->callbacks.arg);
 800294c:	687a      	ldr	r2, [r7, #4]
 800294e:	2392      	movs	r3, #146	; 0x92
 8002950:	005b      	lsls	r3, r3, #1
 8002952:	58d5      	ldr	r5, [r2, r3]
 8002954:	687a      	ldr	r2, [r7, #4]
 8002956:	2383      	movs	r3, #131	; 0x83
 8002958:	005b      	lsls	r3, r3, #1
 800295a:	5cd6      	ldrb	r6, [r2, r3]
 800295c:	687a      	ldr	r2, [r7, #4]
 800295e:	23a0      	movs	r3, #160	; 0xa0
 8002960:	005b      	lsls	r3, r3, #1
 8002962:	58d2      	ldr	r2, [r2, r3]
 8002964:	230f      	movs	r3, #15
 8002966:	18fc      	adds	r4, r7, r3
 8002968:	210a      	movs	r1, #10
 800296a:	187b      	adds	r3, r7, r1
 800296c:	8819      	ldrh	r1, [r3, #0]
 800296e:	200c      	movs	r0, #12
 8002970:	183b      	adds	r3, r7, r0
 8002972:	8818      	ldrh	r0, [r3, #0]
 8002974:	0013      	movs	r3, r2
 8002976:	0032      	movs	r2, r6
 8002978:	47a8      	blx	r5
 800297a:	0003      	movs	r3, r0
 800297c:	7023      	strb	r3, [r4, #0]
            if (err != NMBS_ERROR_NONE) {
 800297e:	220f      	movs	r2, #15
 8002980:	18bb      	adds	r3, r7, r2
 8002982:	781b      	ldrb	r3, [r3, #0]
 8002984:	b25b      	sxtb	r3, r3
 8002986:	2b00      	cmp	r3, #0
 8002988:	d019      	beq.n	80029be <handle_write_single_register+0x100>
                if (nmbs_error_is_exception(err))
 800298a:	18bb      	adds	r3, r7, r2
 800298c:	781b      	ldrb	r3, [r3, #0]
 800298e:	b25b      	sxtb	r3, r3
 8002990:	2b00      	cmp	r3, #0
 8002992:	dd0d      	ble.n	80029b0 <handle_write_single_register+0xf2>
 8002994:	18bb      	adds	r3, r7, r2
 8002996:	781b      	ldrb	r3, [r3, #0]
 8002998:	b25b      	sxtb	r3, r3
 800299a:	2b04      	cmp	r3, #4
 800299c:	dc08      	bgt.n	80029b0 <handle_write_single_register+0xf2>
                    return send_exception_msg(nmbs, err);
 800299e:	18bb      	adds	r3, r7, r2
 80029a0:	781a      	ldrb	r2, [r3, #0]
 80029a2:	687b      	ldr	r3, [r7, #4]
 80029a4:	0011      	movs	r1, r2
 80029a6:	0018      	movs	r0, r3
 80029a8:	f7fe fd9b 	bl	80014e2 <send_exception_msg>
 80029ac:	0003      	movs	r3, r0
 80029ae:	e049      	b.n	8002a44 <handle_write_single_register+0x186>

                return send_exception_msg(nmbs, NMBS_EXCEPTION_SERVER_DEVICE_FAILURE);
 80029b0:	687b      	ldr	r3, [r7, #4]
 80029b2:	2104      	movs	r1, #4
 80029b4:	0018      	movs	r0, r3
 80029b6:	f7fe fd94 	bl	80014e2 <send_exception_msg>
 80029ba:	0003      	movs	r3, r0
 80029bc:	e042      	b.n	8002a44 <handle_write_single_register+0x186>
            }

            if (!nmbs->msg.broadcast) {
 80029be:	687a      	ldr	r2, [r7, #4]
 80029c0:	2385      	movs	r3, #133	; 0x85
 80029c2:	005b      	lsls	r3, r3, #1
 80029c4:	5cd3      	ldrb	r3, [r2, r3]
 80029c6:	2201      	movs	r2, #1
 80029c8:	4053      	eors	r3, r2
 80029ca:	b2db      	uxtb	r3, r3
 80029cc:	2b00      	cmp	r3, #0
 80029ce:	d038      	beq.n	8002a42 <handle_write_single_register+0x184>
                put_res_header(nmbs, 4);
 80029d0:	687b      	ldr	r3, [r7, #4]
 80029d2:	2104      	movs	r1, #4
 80029d4:	0018      	movs	r0, r3
 80029d6:	f7fe fd72 	bl	80014be <put_res_header>

                put_2(nmbs, address);
 80029da:	230c      	movs	r3, #12
 80029dc:	18fb      	adds	r3, r7, r3
 80029de:	881a      	ldrh	r2, [r3, #0]
 80029e0:	687b      	ldr	r3, [r7, #4]
 80029e2:	0011      	movs	r1, r2
 80029e4:	0018      	movs	r0, r3
 80029e6:	f7fe f888 	bl	8000afa <put_2>
                put_2(nmbs, value);
 80029ea:	230a      	movs	r3, #10
 80029ec:	18fb      	adds	r3, r7, r3
 80029ee:	881a      	ldrh	r2, [r3, #0]
 80029f0:	687b      	ldr	r3, [r7, #4]
 80029f2:	0011      	movs	r1, r2
 80029f4:	0018      	movs	r0, r3
 80029f6:	f7fe f880 	bl	8000afa <put_2>
                NMBS_DEBUG_PRINT("a %d\tvalue %d", address, value);

                err = send_msg(nmbs);
 80029fa:	250f      	movs	r5, #15
 80029fc:	197c      	adds	r4, r7, r5
 80029fe:	687b      	ldr	r3, [r7, #4]
 8002a00:	0018      	movs	r0, r3
 8002a02:	f7fe fcde 	bl	80013c2 <send_msg>
 8002a06:	0003      	movs	r3, r0
 8002a08:	7023      	strb	r3, [r4, #0]
                if (err != NMBS_ERROR_NONE)
 8002a0a:	197b      	adds	r3, r7, r5
 8002a0c:	781b      	ldrb	r3, [r3, #0]
 8002a0e:	b25b      	sxtb	r3, r3
 8002a10:	2b00      	cmp	r3, #0
 8002a12:	d016      	beq.n	8002a42 <handle_write_single_register+0x184>
                    return err;
 8002a14:	197b      	adds	r3, r7, r5
 8002a16:	781b      	ldrb	r3, [r3, #0]
 8002a18:	b25b      	sxtb	r3, r3
 8002a1a:	e013      	b.n	8002a44 <handle_write_single_register+0x186>
            }
        }
        else {
            return send_exception_msg(nmbs, NMBS_EXCEPTION_ILLEGAL_FUNCTION);
 8002a1c:	687b      	ldr	r3, [r7, #4]
 8002a1e:	2101      	movs	r1, #1
 8002a20:	0018      	movs	r0, r3
 8002a22:	f7fe fd5e 	bl	80014e2 <send_exception_msg>
 8002a26:	0003      	movs	r3, r0
 8002a28:	e00c      	b.n	8002a44 <handle_write_single_register+0x186>
        }
    }
    else {
        return recv_write_single_register_res(nmbs, address, value);
 8002a2a:	230a      	movs	r3, #10
 8002a2c:	18fb      	adds	r3, r7, r3
 8002a2e:	881a      	ldrh	r2, [r3, #0]
 8002a30:	230c      	movs	r3, #12
 8002a32:	18fb      	adds	r3, r7, r3
 8002a34:	8819      	ldrh	r1, [r3, #0]
 8002a36:	687b      	ldr	r3, [r7, #4]
 8002a38:	0018      	movs	r0, r3
 8002a3a:	f7fe ffa4 	bl	8001986 <recv_write_single_register_res>
 8002a3e:	0003      	movs	r3, r0
 8002a40:	e000      	b.n	8002a44 <handle_write_single_register+0x186>
    }

    return NMBS_ERROR_NONE;
 8002a42:	2300      	movs	r3, #0
}
 8002a44:	0018      	movs	r0, r3
 8002a46:	46bd      	mov	sp, r7
 8002a48:	b005      	add	sp, #20
 8002a4a:	bdf0      	pop	{r4, r5, r6, r7, pc}

08002a4c <handle_write_multiple_coils>:
#endif


#ifndef NMBS_SERVER_WRITE_MULTIPLE_COILS_DISABLED
static nmbs_error handle_write_multiple_coils(nmbs_t* nmbs) {
 8002a4c:	b5f0      	push	{r4, r5, r6, r7, lr}
 8002a4e:	b0c7      	sub	sp, #284	; 0x11c
 8002a50:	af02      	add	r7, sp, #8
 8002a52:	6078      	str	r0, [r7, #4]
    nmbs_error err = recv(nmbs, 5);
 8002a54:	250c      	movs	r5, #12
 8002a56:	35ff      	adds	r5, #255	; 0xff
 8002a58:	197c      	adds	r4, r7, r5
 8002a5a:	687b      	ldr	r3, [r7, #4]
 8002a5c:	2105      	movs	r1, #5
 8002a5e:	0018      	movs	r0, r3
 8002a60:	f7fe f962 	bl	8000d28 <recv>
 8002a64:	0003      	movs	r3, r0
 8002a66:	7023      	strb	r3, [r4, #0]
    if (err != NMBS_ERROR_NONE)
 8002a68:	197b      	adds	r3, r7, r5
 8002a6a:	781b      	ldrb	r3, [r3, #0]
 8002a6c:	b25b      	sxtb	r3, r3
 8002a6e:	2b00      	cmp	r3, #0
 8002a70:	d003      	beq.n	8002a7a <handle_write_multiple_coils+0x2e>
        return err;
 8002a72:	197b      	adds	r3, r7, r5
 8002a74:	781b      	ldrb	r3, [r3, #0]
 8002a76:	b25b      	sxtb	r3, r3
 8002a78:	e15a      	b.n	8002d30 <handle_write_multiple_coils+0x2e4>

    const uint16_t address = get_2(nmbs);
 8002a7a:	2384      	movs	r3, #132	; 0x84
 8002a7c:	005b      	lsls	r3, r3, #1
 8002a7e:	18fc      	adds	r4, r7, r3
 8002a80:	687b      	ldr	r3, [r7, #4]
 8002a82:	0018      	movs	r0, r3
 8002a84:	f7fe f80f 	bl	8000aa6 <get_2>
 8002a88:	0003      	movs	r3, r0
 8002a8a:	8023      	strh	r3, [r4, #0]
    const uint16_t quantity = get_2(nmbs);
 8002a8c:	1dfc      	adds	r4, r7, #7
 8002a8e:	34ff      	adds	r4, #255	; 0xff
 8002a90:	687b      	ldr	r3, [r7, #4]
 8002a92:	0018      	movs	r0, r3
 8002a94:	f7fe f807 	bl	8000aa6 <get_2>
 8002a98:	0003      	movs	r3, r0
 8002a9a:	8023      	strh	r3, [r4, #0]
    const uint8_t coils_bytes = get_1(nmbs);
 8002a9c:	1dbc      	adds	r4, r7, #6
 8002a9e:	34ff      	adds	r4, #255	; 0xff
 8002aa0:	687b      	ldr	r3, [r7, #4]
 8002aa2:	0018      	movs	r0, r3
 8002aa4:	f7fd ff9a 	bl	80009dc <get_1>
 8002aa8:	0003      	movs	r3, r0
 8002aaa:	7023      	strb	r3, [r4, #0]

    NMBS_DEBUG_PRINT("a %d\tq %d\tb %d\tcoils ", address, quantity, coils_bytes);

    if (coils_bytes > 246)
 8002aac:	1dbb      	adds	r3, r7, #6
 8002aae:	33ff      	adds	r3, #255	; 0xff
 8002ab0:	781b      	ldrb	r3, [r3, #0]
 8002ab2:	2bf6      	cmp	r3, #246	; 0xf6
 8002ab4:	d902      	bls.n	8002abc <handle_write_multiple_coils+0x70>
        return NMBS_ERROR_INVALID_REQUEST;
 8002ab6:	2308      	movs	r3, #8
 8002ab8:	425b      	negs	r3, r3
 8002aba:	e139      	b.n	8002d30 <handle_write_multiple_coils+0x2e4>

    err = recv(nmbs, coils_bytes);
 8002abc:	1dbb      	adds	r3, r7, #6
 8002abe:	33ff      	adds	r3, #255	; 0xff
 8002ac0:	781b      	ldrb	r3, [r3, #0]
 8002ac2:	b29a      	uxth	r2, r3
 8002ac4:	250c      	movs	r5, #12
 8002ac6:	35ff      	adds	r5, #255	; 0xff
 8002ac8:	197c      	adds	r4, r7, r5
 8002aca:	687b      	ldr	r3, [r7, #4]
 8002acc:	0011      	movs	r1, r2
 8002ace:	0018      	movs	r0, r3
 8002ad0:	f7fe f92a 	bl	8000d28 <recv>
 8002ad4:	0003      	movs	r3, r0
 8002ad6:	7023      	strb	r3, [r4, #0]
    if (err != NMBS_ERROR_NONE)
 8002ad8:	197b      	adds	r3, r7, r5
 8002ada:	781b      	ldrb	r3, [r3, #0]
 8002adc:	b25b      	sxtb	r3, r3
 8002ade:	2b00      	cmp	r3, #0
 8002ae0:	d003      	beq.n	8002aea <handle_write_multiple_coils+0x9e>
        return err;
 8002ae2:	197b      	adds	r3, r7, r5
 8002ae4:	781b      	ldrb	r3, [r3, #0]
 8002ae6:	b25b      	sxtb	r3, r3
 8002ae8:	e122      	b.n	8002d30 <handle_write_multiple_coils+0x2e4>

    nmbs_bitfield coils = {0};
 8002aea:	4b93      	ldr	r3, [pc, #588]	; (8002d38 <handle_write_multiple_coils+0x2ec>)
 8002aec:	2288      	movs	r2, #136	; 0x88
 8002aee:	0052      	lsls	r2, r2, #1
 8002af0:	189b      	adds	r3, r3, r2
 8002af2:	19db      	adds	r3, r3, r7
 8002af4:	2200      	movs	r2, #0
 8002af6:	601a      	str	r2, [r3, #0]
 8002af8:	3304      	adds	r3, #4
 8002afa:	22f6      	movs	r2, #246	; 0xf6
 8002afc:	2100      	movs	r1, #0
 8002afe:	0018      	movs	r0, r3
 8002b00:	f004 ff2c 	bl	800795c <memset>
    for (uint_fast8_t i = 0; i < coils_bytes; i++) {
 8002b04:	2300      	movs	r3, #0
 8002b06:	2286      	movs	r2, #134	; 0x86
 8002b08:	0052      	lsls	r2, r2, #1
 8002b0a:	18ba      	adds	r2, r7, r2
 8002b0c:	6013      	str	r3, [r2, #0]
 8002b0e:	e016      	b.n	8002b3e <handle_write_multiple_coils+0xf2>
        coils[i] = get_1(nmbs);
 8002b10:	687b      	ldr	r3, [r7, #4]
 8002b12:	0018      	movs	r0, r3
 8002b14:	f7fd ff62 	bl	80009dc <get_1>
 8002b18:	0003      	movs	r3, r0
 8002b1a:	0019      	movs	r1, r3
 8002b1c:	4b86      	ldr	r3, [pc, #536]	; (8002d38 <handle_write_multiple_coils+0x2ec>)
 8002b1e:	2288      	movs	r2, #136	; 0x88
 8002b20:	0052      	lsls	r2, r2, #1
 8002b22:	189b      	adds	r3, r3, r2
 8002b24:	19da      	adds	r2, r3, r7
 8002b26:	2086      	movs	r0, #134	; 0x86
 8002b28:	0040      	lsls	r0, r0, #1
 8002b2a:	183b      	adds	r3, r7, r0
 8002b2c:	681b      	ldr	r3, [r3, #0]
 8002b2e:	18d3      	adds	r3, r2, r3
 8002b30:	1c0a      	adds	r2, r1, #0
 8002b32:	701a      	strb	r2, [r3, #0]
    for (uint_fast8_t i = 0; i < coils_bytes; i++) {
 8002b34:	183b      	adds	r3, r7, r0
 8002b36:	681b      	ldr	r3, [r3, #0]
 8002b38:	3301      	adds	r3, #1
 8002b3a:	183a      	adds	r2, r7, r0
 8002b3c:	6013      	str	r3, [r2, #0]
 8002b3e:	1dbb      	adds	r3, r7, #6
 8002b40:	33ff      	adds	r3, #255	; 0xff
 8002b42:	781b      	ldrb	r3, [r3, #0]
 8002b44:	2286      	movs	r2, #134	; 0x86
 8002b46:	0052      	lsls	r2, r2, #1
 8002b48:	18ba      	adds	r2, r7, r2
 8002b4a:	6812      	ldr	r2, [r2, #0]
 8002b4c:	429a      	cmp	r2, r3
 8002b4e:	d3df      	bcc.n	8002b10 <handle_write_multiple_coils+0xc4>
        NMBS_DEBUG_PRINT("%d ", coils[i]);
    }

    err = recv_msg_footer(nmbs);
 8002b50:	250c      	movs	r5, #12
 8002b52:	35ff      	adds	r5, #255	; 0xff
 8002b54:	197c      	adds	r4, r7, r5
 8002b56:	687b      	ldr	r3, [r7, #4]
 8002b58:	0018      	movs	r0, r3
 8002b5a:	f7fe fa83 	bl	8001064 <recv_msg_footer>
 8002b5e:	0003      	movs	r3, r0
 8002b60:	7023      	strb	r3, [r4, #0]
    if (err != NMBS_ERROR_NONE)
 8002b62:	197b      	adds	r3, r7, r5
 8002b64:	781b      	ldrb	r3, [r3, #0]
 8002b66:	b25b      	sxtb	r3, r3
 8002b68:	2b00      	cmp	r3, #0
 8002b6a:	d003      	beq.n	8002b74 <handle_write_multiple_coils+0x128>
        return err;
 8002b6c:	197b      	adds	r3, r7, r5
 8002b6e:	781b      	ldrb	r3, [r3, #0]
 8002b70:	b25b      	sxtb	r3, r3
 8002b72:	e0dd      	b.n	8002d30 <handle_write_multiple_coils+0x2e4>

    if (!nmbs->msg.ignored) {
 8002b74:	687a      	ldr	r2, [r7, #4]
 8002b76:	230c      	movs	r3, #12
 8002b78:	33ff      	adds	r3, #255	; 0xff
 8002b7a:	5cd3      	ldrb	r3, [r2, r3]
 8002b7c:	2201      	movs	r2, #1
 8002b7e:	4053      	eors	r3, r2
 8002b80:	b2db      	uxtb	r3, r3
 8002b82:	2b00      	cmp	r3, #0
 8002b84:	d100      	bne.n	8002b88 <handle_write_multiple_coils+0x13c>
 8002b86:	e0c5      	b.n	8002d14 <handle_write_multiple_coils+0x2c8>
        if (quantity < 1 || quantity > 0x07B0)
 8002b88:	1dfb      	adds	r3, r7, #7
 8002b8a:	33ff      	adds	r3, #255	; 0xff
 8002b8c:	881b      	ldrh	r3, [r3, #0]
 8002b8e:	2b00      	cmp	r3, #0
 8002b90:	d006      	beq.n	8002ba0 <handle_write_multiple_coils+0x154>
 8002b92:	1dfb      	adds	r3, r7, #7
 8002b94:	33ff      	adds	r3, #255	; 0xff
 8002b96:	881a      	ldrh	r2, [r3, #0]
 8002b98:	23f6      	movs	r3, #246	; 0xf6
 8002b9a:	00db      	lsls	r3, r3, #3
 8002b9c:	429a      	cmp	r2, r3
 8002b9e:	d906      	bls.n	8002bae <handle_write_multiple_coils+0x162>
            return send_exception_msg(nmbs, NMBS_EXCEPTION_ILLEGAL_DATA_VALUE);
 8002ba0:	687b      	ldr	r3, [r7, #4]
 8002ba2:	2103      	movs	r1, #3
 8002ba4:	0018      	movs	r0, r3
 8002ba6:	f7fe fc9c 	bl	80014e2 <send_exception_msg>
 8002baa:	0003      	movs	r3, r0
 8002bac:	e0c0      	b.n	8002d30 <handle_write_multiple_coils+0x2e4>

        if ((uint32_t) address + (uint32_t) quantity > ((uint32_t) 0xFFFF) + 1)
 8002bae:	2384      	movs	r3, #132	; 0x84
 8002bb0:	005b      	lsls	r3, r3, #1
 8002bb2:	18fb      	adds	r3, r7, r3
 8002bb4:	881a      	ldrh	r2, [r3, #0]
 8002bb6:	1dfb      	adds	r3, r7, #7
 8002bb8:	33ff      	adds	r3, #255	; 0xff
 8002bba:	881b      	ldrh	r3, [r3, #0]
 8002bbc:	18d2      	adds	r2, r2, r3
 8002bbe:	2380      	movs	r3, #128	; 0x80
 8002bc0:	025b      	lsls	r3, r3, #9
 8002bc2:	429a      	cmp	r2, r3
 8002bc4:	d906      	bls.n	8002bd4 <handle_write_multiple_coils+0x188>
            return send_exception_msg(nmbs, NMBS_EXCEPTION_ILLEGAL_DATA_ADDRESS);
 8002bc6:	687b      	ldr	r3, [r7, #4]
 8002bc8:	2102      	movs	r1, #2
 8002bca:	0018      	movs	r0, r3
 8002bcc:	f7fe fc89 	bl	80014e2 <send_exception_msg>
 8002bd0:	0003      	movs	r3, r0
 8002bd2:	e0ad      	b.n	8002d30 <handle_write_multiple_coils+0x2e4>

        if (coils_bytes == 0)
 8002bd4:	1dbb      	adds	r3, r7, #6
 8002bd6:	33ff      	adds	r3, #255	; 0xff
 8002bd8:	781b      	ldrb	r3, [r3, #0]
 8002bda:	2b00      	cmp	r3, #0
 8002bdc:	d106      	bne.n	8002bec <handle_write_multiple_coils+0x1a0>
            return send_exception_msg(nmbs, NMBS_EXCEPTION_ILLEGAL_DATA_VALUE);
 8002bde:	687b      	ldr	r3, [r7, #4]
 8002be0:	2103      	movs	r1, #3
 8002be2:	0018      	movs	r0, r3
 8002be4:	f7fe fc7d 	bl	80014e2 <send_exception_msg>
 8002be8:	0003      	movs	r3, r0
 8002bea:	e0a1      	b.n	8002d30 <handle_write_multiple_coils+0x2e4>

        if ((quantity + 7) / 8 != coils_bytes)
 8002bec:	1dfb      	adds	r3, r7, #7
 8002bee:	33ff      	adds	r3, #255	; 0xff
 8002bf0:	881b      	ldrh	r3, [r3, #0]
 8002bf2:	3307      	adds	r3, #7
 8002bf4:	2b00      	cmp	r3, #0
 8002bf6:	da00      	bge.n	8002bfa <handle_write_multiple_coils+0x1ae>
 8002bf8:	3307      	adds	r3, #7
 8002bfa:	10db      	asrs	r3, r3, #3
 8002bfc:	001a      	movs	r2, r3
 8002bfe:	1dbb      	adds	r3, r7, #6
 8002c00:	33ff      	adds	r3, #255	; 0xff
 8002c02:	781b      	ldrb	r3, [r3, #0]
 8002c04:	429a      	cmp	r2, r3
 8002c06:	d006      	beq.n	8002c16 <handle_write_multiple_coils+0x1ca>
            return send_exception_msg(nmbs, NMBS_EXCEPTION_ILLEGAL_DATA_VALUE);
 8002c08:	687b      	ldr	r3, [r7, #4]
 8002c0a:	2103      	movs	r1, #3
 8002c0c:	0018      	movs	r0, r3
 8002c0e:	f7fe fc68 	bl	80014e2 <send_exception_msg>
 8002c12:	0003      	movs	r3, r0
 8002c14:	e08c      	b.n	8002d30 <handle_write_multiple_coils+0x2e4>

        if (nmbs->callbacks.write_multiple_coils) {
 8002c16:	687a      	ldr	r2, [r7, #4]
 8002c18:	2394      	movs	r3, #148	; 0x94
 8002c1a:	005b      	lsls	r3, r3, #1
 8002c1c:	58d3      	ldr	r3, [r2, r3]
 8002c1e:	2b00      	cmp	r3, #0
 8002c20:	d100      	bne.n	8002c24 <handle_write_multiple_coils+0x1d8>
 8002c22:	e070      	b.n	8002d06 <handle_write_multiple_coils+0x2ba>
            err = nmbs->callbacks.write_multiple_coils(address, quantity, coils, nmbs->msg.unit_id,
 8002c24:	687a      	ldr	r2, [r7, #4]
 8002c26:	2394      	movs	r3, #148	; 0x94
 8002c28:	005b      	lsls	r3, r3, #1
 8002c2a:	58d5      	ldr	r5, [r2, r3]
 8002c2c:	687a      	ldr	r2, [r7, #4]
 8002c2e:	2383      	movs	r3, #131	; 0x83
 8002c30:	005b      	lsls	r3, r3, #1
 8002c32:	5cd3      	ldrb	r3, [r2, r3]
 8002c34:	469c      	mov	ip, r3
 8002c36:	687a      	ldr	r2, [r7, #4]
 8002c38:	23a0      	movs	r3, #160	; 0xa0
 8002c3a:	005b      	lsls	r3, r3, #1
 8002c3c:	58d3      	ldr	r3, [r2, r3]
 8002c3e:	220c      	movs	r2, #12
 8002c40:	32ff      	adds	r2, #255	; 0xff
 8002c42:	18bc      	adds	r4, r7, r2
 8002c44:	2108      	movs	r1, #8
 8002c46:	187e      	adds	r6, r7, r1
 8002c48:	1dfa      	adds	r2, r7, #7
 8002c4a:	32ff      	adds	r2, #255	; 0xff
 8002c4c:	8811      	ldrh	r1, [r2, #0]
 8002c4e:	2084      	movs	r0, #132	; 0x84
 8002c50:	0040      	lsls	r0, r0, #1
 8002c52:	183a      	adds	r2, r7, r0
 8002c54:	8810      	ldrh	r0, [r2, #0]
 8002c56:	9300      	str	r3, [sp, #0]
 8002c58:	4663      	mov	r3, ip
 8002c5a:	0032      	movs	r2, r6
 8002c5c:	47a8      	blx	r5
 8002c5e:	0003      	movs	r3, r0
 8002c60:	7023      	strb	r3, [r4, #0]
                                                       nmbs->callbacks.arg);
            if (err != NMBS_ERROR_NONE) {
 8002c62:	220c      	movs	r2, #12
 8002c64:	32ff      	adds	r2, #255	; 0xff
 8002c66:	18bb      	adds	r3, r7, r2
 8002c68:	781b      	ldrb	r3, [r3, #0]
 8002c6a:	b25b      	sxtb	r3, r3
 8002c6c:	2b00      	cmp	r3, #0
 8002c6e:	d019      	beq.n	8002ca4 <handle_write_multiple_coils+0x258>
                if (nmbs_error_is_exception(err))
 8002c70:	18bb      	adds	r3, r7, r2
 8002c72:	781b      	ldrb	r3, [r3, #0]
 8002c74:	b25b      	sxtb	r3, r3
 8002c76:	2b00      	cmp	r3, #0
 8002c78:	dd0d      	ble.n	8002c96 <handle_write_multiple_coils+0x24a>
 8002c7a:	18bb      	adds	r3, r7, r2
 8002c7c:	781b      	ldrb	r3, [r3, #0]
 8002c7e:	b25b      	sxtb	r3, r3
 8002c80:	2b04      	cmp	r3, #4
 8002c82:	dc08      	bgt.n	8002c96 <handle_write_multiple_coils+0x24a>
                    return send_exception_msg(nmbs, err);
 8002c84:	18bb      	adds	r3, r7, r2
 8002c86:	781a      	ldrb	r2, [r3, #0]
 8002c88:	687b      	ldr	r3, [r7, #4]
 8002c8a:	0011      	movs	r1, r2
 8002c8c:	0018      	movs	r0, r3
 8002c8e:	f7fe fc28 	bl	80014e2 <send_exception_msg>
 8002c92:	0003      	movs	r3, r0
 8002c94:	e04c      	b.n	8002d30 <handle_write_multiple_coils+0x2e4>

                return send_exception_msg(nmbs, NMBS_EXCEPTION_SERVER_DEVICE_FAILURE);
 8002c96:	687b      	ldr	r3, [r7, #4]
 8002c98:	2104      	movs	r1, #4
 8002c9a:	0018      	movs	r0, r3
 8002c9c:	f7fe fc21 	bl	80014e2 <send_exception_msg>
 8002ca0:	0003      	movs	r3, r0
 8002ca2:	e045      	b.n	8002d30 <handle_write_multiple_coils+0x2e4>
            }

            if (!nmbs->msg.broadcast) {
 8002ca4:	687a      	ldr	r2, [r7, #4]
 8002ca6:	2385      	movs	r3, #133	; 0x85
 8002ca8:	005b      	lsls	r3, r3, #1
 8002caa:	5cd3      	ldrb	r3, [r2, r3]
 8002cac:	2201      	movs	r2, #1
 8002cae:	4053      	eors	r3, r2
 8002cb0:	b2db      	uxtb	r3, r3
 8002cb2:	2b00      	cmp	r3, #0
 8002cb4:	d03b      	beq.n	8002d2e <handle_write_multiple_coils+0x2e2>
                put_res_header(nmbs, 4);
 8002cb6:	687b      	ldr	r3, [r7, #4]
 8002cb8:	2104      	movs	r1, #4
 8002cba:	0018      	movs	r0, r3
 8002cbc:	f7fe fbff 	bl	80014be <put_res_header>

                put_2(nmbs, address);
 8002cc0:	2384      	movs	r3, #132	; 0x84
 8002cc2:	005b      	lsls	r3, r3, #1
 8002cc4:	18fb      	adds	r3, r7, r3
 8002cc6:	881a      	ldrh	r2, [r3, #0]
 8002cc8:	687b      	ldr	r3, [r7, #4]
 8002cca:	0011      	movs	r1, r2
 8002ccc:	0018      	movs	r0, r3
 8002cce:	f7fd ff14 	bl	8000afa <put_2>
                put_2(nmbs, quantity);
 8002cd2:	1dfb      	adds	r3, r7, #7
 8002cd4:	33ff      	adds	r3, #255	; 0xff
 8002cd6:	881a      	ldrh	r2, [r3, #0]
 8002cd8:	687b      	ldr	r3, [r7, #4]
 8002cda:	0011      	movs	r1, r2
 8002cdc:	0018      	movs	r0, r3
 8002cde:	f7fd ff0c 	bl	8000afa <put_2>
                NMBS_DEBUG_PRINT("a %d\tq %d", address, quantity);

                err = send_msg(nmbs);
 8002ce2:	250c      	movs	r5, #12
 8002ce4:	35ff      	adds	r5, #255	; 0xff
 8002ce6:	197c      	adds	r4, r7, r5
 8002ce8:	687b      	ldr	r3, [r7, #4]
 8002cea:	0018      	movs	r0, r3
 8002cec:	f7fe fb69 	bl	80013c2 <send_msg>
 8002cf0:	0003      	movs	r3, r0
 8002cf2:	7023      	strb	r3, [r4, #0]
                if (err != NMBS_ERROR_NONE)
 8002cf4:	197b      	adds	r3, r7, r5
 8002cf6:	781b      	ldrb	r3, [r3, #0]
 8002cf8:	b25b      	sxtb	r3, r3
 8002cfa:	2b00      	cmp	r3, #0
 8002cfc:	d017      	beq.n	8002d2e <handle_write_multiple_coils+0x2e2>
                    return err;
 8002cfe:	197b      	adds	r3, r7, r5
 8002d00:	781b      	ldrb	r3, [r3, #0]
 8002d02:	b25b      	sxtb	r3, r3
 8002d04:	e014      	b.n	8002d30 <handle_write_multiple_coils+0x2e4>
            }
        }
        else {
            return send_exception_msg(nmbs, NMBS_EXCEPTION_ILLEGAL_FUNCTION);
 8002d06:	687b      	ldr	r3, [r7, #4]
 8002d08:	2101      	movs	r1, #1
 8002d0a:	0018      	movs	r0, r3
 8002d0c:	f7fe fbe9 	bl	80014e2 <send_exception_msg>
 8002d10:	0003      	movs	r3, r0
 8002d12:	e00d      	b.n	8002d30 <handle_write_multiple_coils+0x2e4>
        }
    }
    else {
        return recv_write_multiple_coils_res(nmbs, address, quantity);
 8002d14:	1dfb      	adds	r3, r7, #7
 8002d16:	33ff      	adds	r3, #255	; 0xff
 8002d18:	881a      	ldrh	r2, [r3, #0]
 8002d1a:	2384      	movs	r3, #132	; 0x84
 8002d1c:	005b      	lsls	r3, r3, #1
 8002d1e:	18fb      	adds	r3, r7, r3
 8002d20:	8819      	ldrh	r1, [r3, #0]
 8002d22:	687b      	ldr	r3, [r7, #4]
 8002d24:	0018      	movs	r0, r3
 8002d26:	f7fe fe97 	bl	8001a58 <recv_write_multiple_coils_res>
 8002d2a:	0003      	movs	r3, r0
 8002d2c:	e000      	b.n	8002d30 <handle_write_multiple_coils+0x2e4>
    }

    return NMBS_ERROR_NONE;
 8002d2e:	2300      	movs	r3, #0
}
 8002d30:	0018      	movs	r0, r3
 8002d32:	46bd      	mov	sp, r7
 8002d34:	b045      	add	sp, #276	; 0x114
 8002d36:	bdf0      	pop	{r4, r5, r6, r7, pc}
 8002d38:	fffffef8 	.word	0xfffffef8

08002d3c <handle_write_multiple_registers>:
#endif


#ifndef NMBS_SERVER_WRITE_MULTIPLE_REGISTERS_DISABLED
static nmbs_error handle_write_multiple_registers(nmbs_t* nmbs) {
 8002d3c:	b5f0      	push	{r4, r5, r6, r7, lr}
 8002d3e:	b0c7      	sub	sp, #284	; 0x11c
 8002d40:	af02      	add	r7, sp, #8
 8002d42:	6078      	str	r0, [r7, #4]
    nmbs_error err = recv(nmbs, 5);
 8002d44:	250c      	movs	r5, #12
 8002d46:	35ff      	adds	r5, #255	; 0xff
 8002d48:	197c      	adds	r4, r7, r5
 8002d4a:	687b      	ldr	r3, [r7, #4]
 8002d4c:	2105      	movs	r1, #5
 8002d4e:	0018      	movs	r0, r3
 8002d50:	f7fd ffea 	bl	8000d28 <recv>
 8002d54:	0003      	movs	r3, r0
 8002d56:	7023      	strb	r3, [r4, #0]
    if (err != NMBS_ERROR_NONE)
 8002d58:	197b      	adds	r3, r7, r5
 8002d5a:	781b      	ldrb	r3, [r3, #0]
 8002d5c:	b25b      	sxtb	r3, r3
 8002d5e:	2b00      	cmp	r3, #0
 8002d60:	d003      	beq.n	8002d6a <handle_write_multiple_registers+0x2e>
        return err;
 8002d62:	197b      	adds	r3, r7, r5
 8002d64:	781b      	ldrb	r3, [r3, #0]
 8002d66:	b25b      	sxtb	r3, r3
 8002d68:	e148      	b.n	8002ffc <handle_write_multiple_registers+0x2c0>

    const uint16_t address = get_2(nmbs);
 8002d6a:	2384      	movs	r3, #132	; 0x84
 8002d6c:	005b      	lsls	r3, r3, #1
 8002d6e:	18fc      	adds	r4, r7, r3
 8002d70:	687b      	ldr	r3, [r7, #4]
 8002d72:	0018      	movs	r0, r3
 8002d74:	f7fd fe97 	bl	8000aa6 <get_2>
 8002d78:	0003      	movs	r3, r0
 8002d7a:	8023      	strh	r3, [r4, #0]
    const uint16_t quantity = get_2(nmbs);
 8002d7c:	1dfc      	adds	r4, r7, #7
 8002d7e:	34ff      	adds	r4, #255	; 0xff
 8002d80:	687b      	ldr	r3, [r7, #4]
 8002d82:	0018      	movs	r0, r3
 8002d84:	f7fd fe8f 	bl	8000aa6 <get_2>
 8002d88:	0003      	movs	r3, r0
 8002d8a:	8023      	strh	r3, [r4, #0]
    const uint8_t registers_bytes = get_1(nmbs);
 8002d8c:	1dbc      	adds	r4, r7, #6
 8002d8e:	34ff      	adds	r4, #255	; 0xff
 8002d90:	687b      	ldr	r3, [r7, #4]
 8002d92:	0018      	movs	r0, r3
 8002d94:	f7fd fe22 	bl	80009dc <get_1>
 8002d98:	0003      	movs	r3, r0
 8002d9a:	7023      	strb	r3, [r4, #0]

    NMBS_DEBUG_PRINT("a %d\tq %d\tb %d\tregs ", address, quantity, registers_bytes);

    err = recv(nmbs, registers_bytes);
 8002d9c:	1dbb      	adds	r3, r7, #6
 8002d9e:	33ff      	adds	r3, #255	; 0xff
 8002da0:	781b      	ldrb	r3, [r3, #0]
 8002da2:	b29a      	uxth	r2, r3
 8002da4:	250c      	movs	r5, #12
 8002da6:	35ff      	adds	r5, #255	; 0xff
 8002da8:	197c      	adds	r4, r7, r5
 8002daa:	687b      	ldr	r3, [r7, #4]
 8002dac:	0011      	movs	r1, r2
 8002dae:	0018      	movs	r0, r3
 8002db0:	f7fd ffba 	bl	8000d28 <recv>
 8002db4:	0003      	movs	r3, r0
 8002db6:	7023      	strb	r3, [r4, #0]
    if (err != NMBS_ERROR_NONE)
 8002db8:	197b      	adds	r3, r7, r5
 8002dba:	781b      	ldrb	r3, [r3, #0]
 8002dbc:	b25b      	sxtb	r3, r3
 8002dbe:	2b00      	cmp	r3, #0
 8002dc0:	d003      	beq.n	8002dca <handle_write_multiple_registers+0x8e>
        return err;
 8002dc2:	197b      	adds	r3, r7, r5
 8002dc4:	781b      	ldrb	r3, [r3, #0]
 8002dc6:	b25b      	sxtb	r3, r3
 8002dc8:	e118      	b.n	8002ffc <handle_write_multiple_registers+0x2c0>

    if (registers_bytes > 246)
 8002dca:	1dbb      	adds	r3, r7, #6
 8002dcc:	33ff      	adds	r3, #255	; 0xff
 8002dce:	781b      	ldrb	r3, [r3, #0]
 8002dd0:	2bf6      	cmp	r3, #246	; 0xf6
 8002dd2:	d902      	bls.n	8002dda <handle_write_multiple_registers+0x9e>
        return NMBS_ERROR_INVALID_REQUEST;
 8002dd4:	2308      	movs	r3, #8
 8002dd6:	425b      	negs	r3, r3
 8002dd8:	e110      	b.n	8002ffc <handle_write_multiple_registers+0x2c0>

    uint16_t registers[0x007B];
    for (uint_fast8_t i = 0; i < registers_bytes / 2; i++) {
 8002dda:	2300      	movs	r3, #0
 8002ddc:	2286      	movs	r2, #134	; 0x86
 8002dde:	0052      	lsls	r2, r2, #1
 8002de0:	18ba      	adds	r2, r7, r2
 8002de2:	6013      	str	r3, [r2, #0]
 8002de4:	e015      	b.n	8002e12 <handle_write_multiple_registers+0xd6>
        registers[i] = get_2(nmbs);
 8002de6:	687b      	ldr	r3, [r7, #4]
 8002de8:	0018      	movs	r0, r3
 8002dea:	f7fd fe5c 	bl	8000aa6 <get_2>
 8002dee:	0003      	movs	r3, r0
 8002df0:	0019      	movs	r1, r3
 8002df2:	4b84      	ldr	r3, [pc, #528]	; (8003004 <handle_write_multiple_registers+0x2c8>)
 8002df4:	2288      	movs	r2, #136	; 0x88
 8002df6:	0052      	lsls	r2, r2, #1
 8002df8:	189b      	adds	r3, r3, r2
 8002dfa:	19db      	adds	r3, r3, r7
 8002dfc:	2086      	movs	r0, #134	; 0x86
 8002dfe:	0040      	lsls	r0, r0, #1
 8002e00:	183a      	adds	r2, r7, r0
 8002e02:	6812      	ldr	r2, [r2, #0]
 8002e04:	0052      	lsls	r2, r2, #1
 8002e06:	52d1      	strh	r1, [r2, r3]
    for (uint_fast8_t i = 0; i < registers_bytes / 2; i++) {
 8002e08:	183b      	adds	r3, r7, r0
 8002e0a:	681b      	ldr	r3, [r3, #0]
 8002e0c:	3301      	adds	r3, #1
 8002e0e:	183a      	adds	r2, r7, r0
 8002e10:	6013      	str	r3, [r2, #0]
 8002e12:	1dbb      	adds	r3, r7, #6
 8002e14:	33ff      	adds	r3, #255	; 0xff
 8002e16:	781b      	ldrb	r3, [r3, #0]
 8002e18:	085b      	lsrs	r3, r3, #1
 8002e1a:	b2db      	uxtb	r3, r3
 8002e1c:	001a      	movs	r2, r3
 8002e1e:	2386      	movs	r3, #134	; 0x86
 8002e20:	005b      	lsls	r3, r3, #1
 8002e22:	18fb      	adds	r3, r7, r3
 8002e24:	681b      	ldr	r3, [r3, #0]
 8002e26:	4293      	cmp	r3, r2
 8002e28:	d3dd      	bcc.n	8002de6 <handle_write_multiple_registers+0xaa>
        NMBS_DEBUG_PRINT("%d ", registers[i]);
    }

    err = recv_msg_footer(nmbs);
 8002e2a:	250c      	movs	r5, #12
 8002e2c:	35ff      	adds	r5, #255	; 0xff
 8002e2e:	197c      	adds	r4, r7, r5
 8002e30:	687b      	ldr	r3, [r7, #4]
 8002e32:	0018      	movs	r0, r3
 8002e34:	f7fe f916 	bl	8001064 <recv_msg_footer>
 8002e38:	0003      	movs	r3, r0
 8002e3a:	7023      	strb	r3, [r4, #0]
    if (err != NMBS_ERROR_NONE)
 8002e3c:	197b      	adds	r3, r7, r5
 8002e3e:	781b      	ldrb	r3, [r3, #0]
 8002e40:	b25b      	sxtb	r3, r3
 8002e42:	2b00      	cmp	r3, #0
 8002e44:	d003      	beq.n	8002e4e <handle_write_multiple_registers+0x112>
        return err;
 8002e46:	197b      	adds	r3, r7, r5
 8002e48:	781b      	ldrb	r3, [r3, #0]
 8002e4a:	b25b      	sxtb	r3, r3
 8002e4c:	e0d6      	b.n	8002ffc <handle_write_multiple_registers+0x2c0>

    if (!nmbs->msg.ignored) {
 8002e4e:	687a      	ldr	r2, [r7, #4]
 8002e50:	230c      	movs	r3, #12
 8002e52:	33ff      	adds	r3, #255	; 0xff
 8002e54:	5cd3      	ldrb	r3, [r2, r3]
 8002e56:	2201      	movs	r2, #1
 8002e58:	4053      	eors	r3, r2
 8002e5a:	b2db      	uxtb	r3, r3
 8002e5c:	2b00      	cmp	r3, #0
 8002e5e:	d100      	bne.n	8002e62 <handle_write_multiple_registers+0x126>
 8002e60:	e0be      	b.n	8002fe0 <handle_write_multiple_registers+0x2a4>
        if (quantity < 1 || quantity > 0x007B)
 8002e62:	1dfb      	adds	r3, r7, #7
 8002e64:	33ff      	adds	r3, #255	; 0xff
 8002e66:	881b      	ldrh	r3, [r3, #0]
 8002e68:	2b00      	cmp	r3, #0
 8002e6a:	d004      	beq.n	8002e76 <handle_write_multiple_registers+0x13a>
 8002e6c:	1dfb      	adds	r3, r7, #7
 8002e6e:	33ff      	adds	r3, #255	; 0xff
 8002e70:	881b      	ldrh	r3, [r3, #0]
 8002e72:	2b7b      	cmp	r3, #123	; 0x7b
 8002e74:	d906      	bls.n	8002e84 <handle_write_multiple_registers+0x148>
            return send_exception_msg(nmbs, NMBS_EXCEPTION_ILLEGAL_DATA_VALUE);
 8002e76:	687b      	ldr	r3, [r7, #4]
 8002e78:	2103      	movs	r1, #3
 8002e7a:	0018      	movs	r0, r3
 8002e7c:	f7fe fb31 	bl	80014e2 <send_exception_msg>
 8002e80:	0003      	movs	r3, r0
 8002e82:	e0bb      	b.n	8002ffc <handle_write_multiple_registers+0x2c0>

        if ((uint32_t) address + (uint32_t) quantity > ((uint32_t) 0xFFFF) + 1)
 8002e84:	2384      	movs	r3, #132	; 0x84
 8002e86:	005b      	lsls	r3, r3, #1
 8002e88:	18fb      	adds	r3, r7, r3
 8002e8a:	881a      	ldrh	r2, [r3, #0]
 8002e8c:	1dfb      	adds	r3, r7, #7
 8002e8e:	33ff      	adds	r3, #255	; 0xff
 8002e90:	881b      	ldrh	r3, [r3, #0]
 8002e92:	18d2      	adds	r2, r2, r3
 8002e94:	2380      	movs	r3, #128	; 0x80
 8002e96:	025b      	lsls	r3, r3, #9
 8002e98:	429a      	cmp	r2, r3
 8002e9a:	d906      	bls.n	8002eaa <handle_write_multiple_registers+0x16e>
            return send_exception_msg(nmbs, NMBS_EXCEPTION_ILLEGAL_DATA_ADDRESS);
 8002e9c:	687b      	ldr	r3, [r7, #4]
 8002e9e:	2102      	movs	r1, #2
 8002ea0:	0018      	movs	r0, r3
 8002ea2:	f7fe fb1e 	bl	80014e2 <send_exception_msg>
 8002ea6:	0003      	movs	r3, r0
 8002ea8:	e0a8      	b.n	8002ffc <handle_write_multiple_registers+0x2c0>

        if (registers_bytes == 0)
 8002eaa:	1dbb      	adds	r3, r7, #6
 8002eac:	33ff      	adds	r3, #255	; 0xff
 8002eae:	781b      	ldrb	r3, [r3, #0]
 8002eb0:	2b00      	cmp	r3, #0
 8002eb2:	d106      	bne.n	8002ec2 <handle_write_multiple_registers+0x186>
            return send_exception_msg(nmbs, NMBS_EXCEPTION_ILLEGAL_DATA_VALUE);
 8002eb4:	687b      	ldr	r3, [r7, #4]
 8002eb6:	2103      	movs	r1, #3
 8002eb8:	0018      	movs	r0, r3
 8002eba:	f7fe fb12 	bl	80014e2 <send_exception_msg>
 8002ebe:	0003      	movs	r3, r0
 8002ec0:	e09c      	b.n	8002ffc <handle_write_multiple_registers+0x2c0>

        if (registers_bytes != quantity * 2)
 8002ec2:	1dbb      	adds	r3, r7, #6
 8002ec4:	33ff      	adds	r3, #255	; 0xff
 8002ec6:	781a      	ldrb	r2, [r3, #0]
 8002ec8:	1dfb      	adds	r3, r7, #7
 8002eca:	33ff      	adds	r3, #255	; 0xff
 8002ecc:	881b      	ldrh	r3, [r3, #0]
 8002ece:	005b      	lsls	r3, r3, #1
 8002ed0:	429a      	cmp	r2, r3
 8002ed2:	d006      	beq.n	8002ee2 <handle_write_multiple_registers+0x1a6>
            return send_exception_msg(nmbs, NMBS_EXCEPTION_ILLEGAL_DATA_VALUE);
 8002ed4:	687b      	ldr	r3, [r7, #4]
 8002ed6:	2103      	movs	r1, #3
 8002ed8:	0018      	movs	r0, r3
 8002eda:	f7fe fb02 	bl	80014e2 <send_exception_msg>
 8002ede:	0003      	movs	r3, r0
 8002ee0:	e08c      	b.n	8002ffc <handle_write_multiple_registers+0x2c0>

        if (nmbs->callbacks.write_multiple_registers) {
 8002ee2:	687a      	ldr	r2, [r7, #4]
 8002ee4:	2396      	movs	r3, #150	; 0x96
 8002ee6:	005b      	lsls	r3, r3, #1
 8002ee8:	58d3      	ldr	r3, [r2, r3]
 8002eea:	2b00      	cmp	r3, #0
 8002eec:	d100      	bne.n	8002ef0 <handle_write_multiple_registers+0x1b4>
 8002eee:	e070      	b.n	8002fd2 <handle_write_multiple_registers+0x296>
            err = nmbs->callbacks.write_multiple_registers(address, quantity, registers, nmbs->msg.unit_id,
 8002ef0:	687a      	ldr	r2, [r7, #4]
 8002ef2:	2396      	movs	r3, #150	; 0x96
 8002ef4:	005b      	lsls	r3, r3, #1
 8002ef6:	58d5      	ldr	r5, [r2, r3]
 8002ef8:	687a      	ldr	r2, [r7, #4]
 8002efa:	2383      	movs	r3, #131	; 0x83
 8002efc:	005b      	lsls	r3, r3, #1
 8002efe:	5cd3      	ldrb	r3, [r2, r3]
 8002f00:	469c      	mov	ip, r3
 8002f02:	687a      	ldr	r2, [r7, #4]
 8002f04:	23a0      	movs	r3, #160	; 0xa0
 8002f06:	005b      	lsls	r3, r3, #1
 8002f08:	58d3      	ldr	r3, [r2, r3]
 8002f0a:	220c      	movs	r2, #12
 8002f0c:	32ff      	adds	r2, #255	; 0xff
 8002f0e:	18bc      	adds	r4, r7, r2
 8002f10:	210c      	movs	r1, #12
 8002f12:	187e      	adds	r6, r7, r1
 8002f14:	1dfa      	adds	r2, r7, #7
 8002f16:	32ff      	adds	r2, #255	; 0xff
 8002f18:	8811      	ldrh	r1, [r2, #0]
 8002f1a:	2084      	movs	r0, #132	; 0x84
 8002f1c:	0040      	lsls	r0, r0, #1
 8002f1e:	183a      	adds	r2, r7, r0
 8002f20:	8810      	ldrh	r0, [r2, #0]
 8002f22:	9300      	str	r3, [sp, #0]
 8002f24:	4663      	mov	r3, ip
 8002f26:	0032      	movs	r2, r6
 8002f28:	47a8      	blx	r5
 8002f2a:	0003      	movs	r3, r0
 8002f2c:	7023      	strb	r3, [r4, #0]
                                                           nmbs->callbacks.arg);
            if (err != NMBS_ERROR_NONE) {
 8002f2e:	220c      	movs	r2, #12
 8002f30:	32ff      	adds	r2, #255	; 0xff
 8002f32:	18bb      	adds	r3, r7, r2
 8002f34:	781b      	ldrb	r3, [r3, #0]
 8002f36:	b25b      	sxtb	r3, r3
 8002f38:	2b00      	cmp	r3, #0
 8002f3a:	d019      	beq.n	8002f70 <handle_write_multiple_registers+0x234>
                if (nmbs_error_is_exception(err))
 8002f3c:	18bb      	adds	r3, r7, r2
 8002f3e:	781b      	ldrb	r3, [r3, #0]
 8002f40:	b25b      	sxtb	r3, r3
 8002f42:	2b00      	cmp	r3, #0
 8002f44:	dd0d      	ble.n	8002f62 <handle_write_multiple_registers+0x226>
 8002f46:	18bb      	adds	r3, r7, r2
 8002f48:	781b      	ldrb	r3, [r3, #0]
 8002f4a:	b25b      	sxtb	r3, r3
 8002f4c:	2b04      	cmp	r3, #4
 8002f4e:	dc08      	bgt.n	8002f62 <handle_write_multiple_registers+0x226>
                    return send_exception_msg(nmbs, err);
 8002f50:	18bb      	adds	r3, r7, r2
 8002f52:	781a      	ldrb	r2, [r3, #0]
 8002f54:	687b      	ldr	r3, [r7, #4]
 8002f56:	0011      	movs	r1, r2
 8002f58:	0018      	movs	r0, r3
 8002f5a:	f7fe fac2 	bl	80014e2 <send_exception_msg>
 8002f5e:	0003      	movs	r3, r0
 8002f60:	e04c      	b.n	8002ffc <handle_write_multiple_registers+0x2c0>

                return send_exception_msg(nmbs, NMBS_EXCEPTION_SERVER_DEVICE_FAILURE);
 8002f62:	687b      	ldr	r3, [r7, #4]
 8002f64:	2104      	movs	r1, #4
 8002f66:	0018      	movs	r0, r3
 8002f68:	f7fe fabb 	bl	80014e2 <send_exception_msg>
 8002f6c:	0003      	movs	r3, r0
 8002f6e:	e045      	b.n	8002ffc <handle_write_multiple_registers+0x2c0>
            }

            if (!nmbs->msg.broadcast) {
 8002f70:	687a      	ldr	r2, [r7, #4]
 8002f72:	2385      	movs	r3, #133	; 0x85
 8002f74:	005b      	lsls	r3, r3, #1
 8002f76:	5cd3      	ldrb	r3, [r2, r3]
 8002f78:	2201      	movs	r2, #1
 8002f7a:	4053      	eors	r3, r2
 8002f7c:	b2db      	uxtb	r3, r3
 8002f7e:	2b00      	cmp	r3, #0
 8002f80:	d03b      	beq.n	8002ffa <handle_write_multiple_registers+0x2be>
                put_res_header(nmbs, 4);
 8002f82:	687b      	ldr	r3, [r7, #4]
 8002f84:	2104      	movs	r1, #4
 8002f86:	0018      	movs	r0, r3
 8002f88:	f7fe fa99 	bl	80014be <put_res_header>

                put_2(nmbs, address);
 8002f8c:	2384      	movs	r3, #132	; 0x84
 8002f8e:	005b      	lsls	r3, r3, #1
 8002f90:	18fb      	adds	r3, r7, r3
 8002f92:	881a      	ldrh	r2, [r3, #0]
 8002f94:	687b      	ldr	r3, [r7, #4]
 8002f96:	0011      	movs	r1, r2
 8002f98:	0018      	movs	r0, r3
 8002f9a:	f7fd fdae 	bl	8000afa <put_2>
                put_2(nmbs, quantity);
 8002f9e:	1dfb      	adds	r3, r7, #7
 8002fa0:	33ff      	adds	r3, #255	; 0xff
 8002fa2:	881a      	ldrh	r2, [r3, #0]
 8002fa4:	687b      	ldr	r3, [r7, #4]
 8002fa6:	0011      	movs	r1, r2
 8002fa8:	0018      	movs	r0, r3
 8002faa:	f7fd fda6 	bl	8000afa <put_2>
                NMBS_DEBUG_PRINT("a %d\tq %d", address, quantity);

                err = send_msg(nmbs);
 8002fae:	250c      	movs	r5, #12
 8002fb0:	35ff      	adds	r5, #255	; 0xff
 8002fb2:	197c      	adds	r4, r7, r5
 8002fb4:	687b      	ldr	r3, [r7, #4]
 8002fb6:	0018      	movs	r0, r3
 8002fb8:	f7fe fa03 	bl	80013c2 <send_msg>
 8002fbc:	0003      	movs	r3, r0
 8002fbe:	7023      	strb	r3, [r4, #0]
                if (err != NMBS_ERROR_NONE)
 8002fc0:	197b      	adds	r3, r7, r5
 8002fc2:	781b      	ldrb	r3, [r3, #0]
 8002fc4:	b25b      	sxtb	r3, r3
 8002fc6:	2b00      	cmp	r3, #0
 8002fc8:	d017      	beq.n	8002ffa <handle_write_multiple_registers+0x2be>
                    return err;
 8002fca:	197b      	adds	r3, r7, r5
 8002fcc:	781b      	ldrb	r3, [r3, #0]
 8002fce:	b25b      	sxtb	r3, r3
 8002fd0:	e014      	b.n	8002ffc <handle_write_multiple_registers+0x2c0>
            }
        }
        else {
            return send_exception_msg(nmbs, NMBS_EXCEPTION_ILLEGAL_FUNCTION);
 8002fd2:	687b      	ldr	r3, [r7, #4]
 8002fd4:	2101      	movs	r1, #1
 8002fd6:	0018      	movs	r0, r3
 8002fd8:	f7fe fa83 	bl	80014e2 <send_exception_msg>
 8002fdc:	0003      	movs	r3, r0
 8002fde:	e00d      	b.n	8002ffc <handle_write_multiple_registers+0x2c0>
        }
    }
    else {
        return recv_write_multiple_registers_res(nmbs, address, quantity);
 8002fe0:	1dfb      	adds	r3, r7, #7
 8002fe2:	33ff      	adds	r3, #255	; 0xff
 8002fe4:	881a      	ldrh	r2, [r3, #0]
 8002fe6:	2384      	movs	r3, #132	; 0x84
 8002fe8:	005b      	lsls	r3, r3, #1
 8002fea:	18fb      	adds	r3, r7, r3
 8002fec:	8819      	ldrh	r1, [r3, #0]
 8002fee:	687b      	ldr	r3, [r7, #4]
 8002ff0:	0018      	movs	r0, r3
 8002ff2:	f7fe fd9a 	bl	8001b2a <recv_write_multiple_registers_res>
 8002ff6:	0003      	movs	r3, r0
 8002ff8:	e000      	b.n	8002ffc <handle_write_multiple_registers+0x2c0>
    }

    return NMBS_ERROR_NONE;
 8002ffa:	2300      	movs	r3, #0
}
 8002ffc:	0018      	movs	r0, r3
 8002ffe:	46bd      	mov	sp, r7
 8003000:	b045      	add	sp, #276	; 0x114
 8003002:	bdf0      	pop	{r4, r5, r6, r7, pc}
 8003004:	fffffefc 	.word	0xfffffefc

08003008 <handle_read_file_record>:
#endif

#ifndef NMBS_SERVER_READ_FILE_RECORD_DISABLED
static nmbs_error handle_read_file_record(nmbs_t* nmbs) {
 8003008:	b5f0      	push	{r4, r5, r6, r7, lr}
 800300a:	46c6      	mov	lr, r8
 800300c:	b500      	push	{lr}
 800300e:	b090      	sub	sp, #64	; 0x40
 8003010:	af02      	add	r7, sp, #8
 8003012:	61f8      	str	r0, [r7, #28]
 8003014:	466b      	mov	r3, sp
 8003016:	4698      	mov	r8, r3
    nmbs_error err = recv(nmbs, 1);
 8003018:	221b      	movs	r2, #27
 800301a:	2118      	movs	r1, #24
 800301c:	1853      	adds	r3, r2, r1
 800301e:	19de      	adds	r6, r3, r7
 8003020:	69fb      	ldr	r3, [r7, #28]
 8003022:	2101      	movs	r1, #1
 8003024:	0018      	movs	r0, r3
 8003026:	f7fd fe7f 	bl	8000d28 <recv>
 800302a:	0003      	movs	r3, r0
 800302c:	7033      	strb	r3, [r6, #0]
    if (err != NMBS_ERROR_NONE)
 800302e:	221b      	movs	r2, #27
 8003030:	2118      	movs	r1, #24
 8003032:	1853      	adds	r3, r2, r1
 8003034:	19db      	adds	r3, r3, r7
 8003036:	781b      	ldrb	r3, [r3, #0]
 8003038:	b25b      	sxtb	r3, r3
 800303a:	2b00      	cmp	r3, #0
 800303c:	d004      	beq.n	8003048 <handle_read_file_record+0x40>
        return err;
 800303e:	1853      	adds	r3, r2, r1
 8003040:	19db      	adds	r3, r3, r7
 8003042:	781b      	ldrb	r3, [r3, #0]
 8003044:	b25b      	sxtb	r3, r3
 8003046:	e2a9      	b.n	800359c <handle_read_file_record+0x594>

    const uint8_t request_size = get_1(nmbs);
 8003048:	231a      	movs	r3, #26
 800304a:	2218      	movs	r2, #24
 800304c:	189b      	adds	r3, r3, r2
 800304e:	19de      	adds	r6, r3, r7
 8003050:	69fb      	ldr	r3, [r7, #28]
 8003052:	0018      	movs	r0, r3
 8003054:	f7fd fcc2 	bl	80009dc <get_1>
 8003058:	0003      	movs	r3, r0
 800305a:	7033      	strb	r3, [r6, #0]
    if (request_size > 245)
 800305c:	231a      	movs	r3, #26
 800305e:	2218      	movs	r2, #24
 8003060:	189b      	adds	r3, r3, r2
 8003062:	19db      	adds	r3, r3, r7
 8003064:	781b      	ldrb	r3, [r3, #0]
 8003066:	2bf5      	cmp	r3, #245	; 0xf5
 8003068:	d902      	bls.n	8003070 <handle_read_file_record+0x68>
        return NMBS_ERROR_INVALID_REQUEST;
 800306a:	2308      	movs	r3, #8
 800306c:	425b      	negs	r3, r3
 800306e:	e295      	b.n	800359c <handle_read_file_record+0x594>

    err = recv(nmbs, request_size);
 8003070:	231a      	movs	r3, #26
 8003072:	2118      	movs	r1, #24
 8003074:	185b      	adds	r3, r3, r1
 8003076:	19db      	adds	r3, r3, r7
 8003078:	781b      	ldrb	r3, [r3, #0]
 800307a:	b29a      	uxth	r2, r3
 800307c:	231b      	movs	r3, #27
 800307e:	185b      	adds	r3, r3, r1
 8003080:	19de      	adds	r6, r3, r7
 8003082:	69fb      	ldr	r3, [r7, #28]
 8003084:	0011      	movs	r1, r2
 8003086:	0018      	movs	r0, r3
 8003088:	f7fd fe4e 	bl	8000d28 <recv>
 800308c:	0003      	movs	r3, r0
 800308e:	7033      	strb	r3, [r6, #0]
    if (err != NMBS_ERROR_NONE)
 8003090:	221b      	movs	r2, #27
 8003092:	2118      	movs	r1, #24
 8003094:	1853      	adds	r3, r2, r1
 8003096:	19db      	adds	r3, r3, r7
 8003098:	781b      	ldrb	r3, [r3, #0]
 800309a:	b25b      	sxtb	r3, r3
 800309c:	2b00      	cmp	r3, #0
 800309e:	d004      	beq.n	80030aa <handle_read_file_record+0xa2>
        return err;
 80030a0:	1853      	adds	r3, r2, r1
 80030a2:	19db      	adds	r3, r3, r7
 80030a4:	781b      	ldrb	r3, [r3, #0]
 80030a6:	b25b      	sxtb	r3, r3
 80030a8:	e278      	b.n	800359c <handle_read_file_record+0x594>

    const uint8_t subreq_header_size = 7;
 80030aa:	2119      	movs	r1, #25
 80030ac:	2618      	movs	r6, #24
 80030ae:	198b      	adds	r3, r1, r6
 80030b0:	19db      	adds	r3, r3, r7
 80030b2:	2207      	movs	r2, #7
 80030b4:	701a      	strb	r2, [r3, #0]
    const uint8_t subreq_count = request_size / subreq_header_size;
 80030b6:	2018      	movs	r0, #24
 80030b8:	0032      	movs	r2, r6
 80030ba:	1883      	adds	r3, r0, r2
 80030bc:	19de      	adds	r6, r3, r7
 80030be:	231a      	movs	r3, #26
 80030c0:	0010      	movs	r0, r2
 80030c2:	189b      	adds	r3, r3, r2
 80030c4:	19da      	adds	r2, r3, r7
 80030c6:	180b      	adds	r3, r1, r0
 80030c8:	19db      	adds	r3, r3, r7
 80030ca:	7812      	ldrb	r2, [r2, #0]
 80030cc:	781b      	ldrb	r3, [r3, #0]
 80030ce:	0019      	movs	r1, r3
 80030d0:	0010      	movs	r0, r2
 80030d2:	f7fd f81d 	bl	8000110 <__udivsi3>
 80030d6:	0003      	movs	r3, r0
 80030d8:	7033      	strb	r3, [r6, #0]
        uint16_t record_length;
    }
#if defined(__STDC_NO_VLA__) || defined(_MSC_VER)
    subreq[35];    // 245 / subreq_header_size
#else
    subreq[subreq_count];
 80030da:	2018      	movs	r0, #24
 80030dc:	2118      	movs	r1, #24
 80030de:	1843      	adds	r3, r0, r1
 80030e0:	19db      	adds	r3, r3, r7
 80030e2:	781b      	ldrb	r3, [r3, #0]
 80030e4:	3b01      	subs	r3, #1
 80030e6:	62fb      	str	r3, [r7, #44]	; 0x2c
 80030e8:	1843      	adds	r3, r0, r1
 80030ea:	19db      	adds	r3, r3, r7
 80030ec:	781b      	ldrb	r3, [r3, #0]
 80030ee:	b2db      	uxtb	r3, r3
 80030f0:	60bb      	str	r3, [r7, #8]
 80030f2:	2300      	movs	r3, #0
 80030f4:	60fb      	str	r3, [r7, #12]
 80030f6:	68b9      	ldr	r1, [r7, #8]
 80030f8:	68fa      	ldr	r2, [r7, #12]
 80030fa:	000b      	movs	r3, r1
 80030fc:	0e9b      	lsrs	r3, r3, #26
 80030fe:	0016      	movs	r6, r2
 8003100:	01b6      	lsls	r6, r6, #6
 8003102:	617e      	str	r6, [r7, #20]
 8003104:	697e      	ldr	r6, [r7, #20]
 8003106:	431e      	orrs	r6, r3
 8003108:	617e      	str	r6, [r7, #20]
 800310a:	000b      	movs	r3, r1
 800310c:	019b      	lsls	r3, r3, #6
 800310e:	613b      	str	r3, [r7, #16]
 8003110:	2118      	movs	r1, #24
 8003112:	1843      	adds	r3, r0, r1
 8003114:	19db      	adds	r3, r3, r7
 8003116:	781b      	ldrb	r3, [r3, #0]
 8003118:	b2db      	uxtb	r3, r3
 800311a:	603b      	str	r3, [r7, #0]
 800311c:	2300      	movs	r3, #0
 800311e:	607b      	str	r3, [r7, #4]
 8003120:	6839      	ldr	r1, [r7, #0]
 8003122:	687a      	ldr	r2, [r7, #4]
 8003124:	000b      	movs	r3, r1
 8003126:	0e9b      	lsrs	r3, r3, #26
 8003128:	0016      	movs	r6, r2
 800312a:	01b5      	lsls	r5, r6, #6
 800312c:	431d      	orrs	r5, r3
 800312e:	000b      	movs	r3, r1
 8003130:	019c      	lsls	r4, r3, #6
 8003132:	2118      	movs	r1, #24
 8003134:	1843      	adds	r3, r0, r1
 8003136:	19db      	adds	r3, r3, r7
 8003138:	781b      	ldrb	r3, [r3, #0]
 800313a:	00db      	lsls	r3, r3, #3
 800313c:	3307      	adds	r3, #7
 800313e:	08db      	lsrs	r3, r3, #3
 8003140:	00db      	lsls	r3, r3, #3
 8003142:	466a      	mov	r2, sp
 8003144:	1ad3      	subs	r3, r2, r3
 8003146:	469d      	mov	sp, r3
 8003148:	ab02      	add	r3, sp, #8
 800314a:	3301      	adds	r3, #1
 800314c:	085b      	lsrs	r3, r3, #1
 800314e:	005b      	lsls	r3, r3, #1
 8003150:	62bb      	str	r3, [r7, #40]	; 0x28
#endif

    uint8_t response_data_size = 0;
 8003152:	231f      	movs	r3, #31
 8003154:	185b      	adds	r3, r3, r1
 8003156:	19db      	adds	r3, r3, r7
 8003158:	2200      	movs	r2, #0
 800315a:	701a      	strb	r2, [r3, #0]

    for (uint8_t i = 0; i < subreq_count; i++) {
 800315c:	231e      	movs	r3, #30
 800315e:	185b      	adds	r3, r3, r1
 8003160:	19db      	adds	r3, r3, r7
 8003162:	2200      	movs	r2, #0
 8003164:	701a      	strb	r2, [r3, #0]
 8003166:	e057      	b.n	8003218 <handle_read_file_record+0x210>
        subreq[i].reference_type = get_1(nmbs);
 8003168:	251e      	movs	r5, #30
 800316a:	2618      	movs	r6, #24
 800316c:	19ab      	adds	r3, r5, r6
 800316e:	19db      	adds	r3, r3, r7
 8003170:	781c      	ldrb	r4, [r3, #0]
 8003172:	69fb      	ldr	r3, [r7, #28]
 8003174:	0018      	movs	r0, r3
 8003176:	f7fd fc31 	bl	80009dc <get_1>
 800317a:	0003      	movs	r3, r0
 800317c:	0019      	movs	r1, r3
 800317e:	6abb      	ldr	r3, [r7, #40]	; 0x28
 8003180:	00e2      	lsls	r2, r4, #3
 8003182:	54d1      	strb	r1, [r2, r3]
        subreq[i].file_number = get_2(nmbs);
 8003184:	19ab      	adds	r3, r5, r6
 8003186:	19db      	adds	r3, r3, r7
 8003188:	781c      	ldrb	r4, [r3, #0]
 800318a:	69fb      	ldr	r3, [r7, #28]
 800318c:	0018      	movs	r0, r3
 800318e:	f7fd fc8a 	bl	8000aa6 <get_2>
 8003192:	0003      	movs	r3, r0
 8003194:	0019      	movs	r1, r3
 8003196:	6aba      	ldr	r2, [r7, #40]	; 0x28
 8003198:	00e3      	lsls	r3, r4, #3
 800319a:	18d3      	adds	r3, r2, r3
 800319c:	3302      	adds	r3, #2
 800319e:	1c0a      	adds	r2, r1, #0
 80031a0:	801a      	strh	r2, [r3, #0]
        subreq[i].record_number = get_2(nmbs);
 80031a2:	19ab      	adds	r3, r5, r6
 80031a4:	19db      	adds	r3, r3, r7
 80031a6:	781c      	ldrb	r4, [r3, #0]
 80031a8:	69fb      	ldr	r3, [r7, #28]
 80031aa:	0018      	movs	r0, r3
 80031ac:	f7fd fc7b 	bl	8000aa6 <get_2>
 80031b0:	0003      	movs	r3, r0
 80031b2:	0019      	movs	r1, r3
 80031b4:	6aba      	ldr	r2, [r7, #40]	; 0x28
 80031b6:	00e3      	lsls	r3, r4, #3
 80031b8:	18d3      	adds	r3, r2, r3
 80031ba:	3304      	adds	r3, #4
 80031bc:	1c0a      	adds	r2, r1, #0
 80031be:	801a      	strh	r2, [r3, #0]
        subreq[i].record_length = get_2(nmbs);
 80031c0:	19ab      	adds	r3, r5, r6
 80031c2:	19db      	adds	r3, r3, r7
 80031c4:	781c      	ldrb	r4, [r3, #0]
 80031c6:	69fb      	ldr	r3, [r7, #28]
 80031c8:	0018      	movs	r0, r3
 80031ca:	f7fd fc6c 	bl	8000aa6 <get_2>
 80031ce:	0003      	movs	r3, r0
 80031d0:	0019      	movs	r1, r3
 80031d2:	6aba      	ldr	r2, [r7, #40]	; 0x28
 80031d4:	00e3      	lsls	r3, r4, #3
 80031d6:	18d3      	adds	r3, r2, r3
 80031d8:	3306      	adds	r3, #6
 80031da:	1c0a      	adds	r2, r1, #0
 80031dc:	801a      	strh	r2, [r3, #0]

        response_data_size += 2 + (subreq[i].record_length * 2);
 80031de:	0028      	movs	r0, r5
 80031e0:	0034      	movs	r4, r6
 80031e2:	1903      	adds	r3, r0, r4
 80031e4:	19db      	adds	r3, r3, r7
 80031e6:	781b      	ldrb	r3, [r3, #0]
 80031e8:	6aba      	ldr	r2, [r7, #40]	; 0x28
 80031ea:	00db      	lsls	r3, r3, #3
 80031ec:	18d3      	adds	r3, r2, r3
 80031ee:	3306      	adds	r3, #6
 80031f0:	881b      	ldrh	r3, [r3, #0]
 80031f2:	3301      	adds	r3, #1
 80031f4:	b2db      	uxtb	r3, r3
 80031f6:	18db      	adds	r3, r3, r3
 80031f8:	b2d9      	uxtb	r1, r3
 80031fa:	221f      	movs	r2, #31
 80031fc:	1913      	adds	r3, r2, r4
 80031fe:	19db      	adds	r3, r3, r7
 8003200:	1912      	adds	r2, r2, r4
 8003202:	19d2      	adds	r2, r2, r7
 8003204:	7812      	ldrb	r2, [r2, #0]
 8003206:	188a      	adds	r2, r1, r2
 8003208:	701a      	strb	r2, [r3, #0]
    for (uint8_t i = 0; i < subreq_count; i++) {
 800320a:	1903      	adds	r3, r0, r4
 800320c:	19db      	adds	r3, r3, r7
 800320e:	781a      	ldrb	r2, [r3, #0]
 8003210:	1903      	adds	r3, r0, r4
 8003212:	19db      	adds	r3, r3, r7
 8003214:	3201      	adds	r2, #1
 8003216:	701a      	strb	r2, [r3, #0]
 8003218:	231e      	movs	r3, #30
 800321a:	2418      	movs	r4, #24
 800321c:	191b      	adds	r3, r3, r4
 800321e:	19da      	adds	r2, r3, r7
 8003220:	2318      	movs	r3, #24
 8003222:	191b      	adds	r3, r3, r4
 8003224:	19db      	adds	r3, r3, r7
 8003226:	7812      	ldrb	r2, [r2, #0]
 8003228:	781b      	ldrb	r3, [r3, #0]
 800322a:	429a      	cmp	r2, r3
 800322c:	d39c      	bcc.n	8003168 <handle_read_file_record+0x160>
    }

    discard_n(nmbs, request_size % subreq_header_size);
 800322e:	231a      	movs	r3, #26
 8003230:	191b      	adds	r3, r3, r4
 8003232:	19da      	adds	r2, r3, r7
 8003234:	2319      	movs	r3, #25
 8003236:	191b      	adds	r3, r3, r4
 8003238:	19db      	adds	r3, r3, r7
 800323a:	7812      	ldrb	r2, [r2, #0]
 800323c:	781b      	ldrb	r3, [r3, #0]
 800323e:	0019      	movs	r1, r3
 8003240:	0010      	movs	r0, r2
 8003242:	f7fc ffeb 	bl	800021c <__aeabi_uidivmod>
 8003246:	000b      	movs	r3, r1
 8003248:	b2db      	uxtb	r3, r3
 800324a:	b29a      	uxth	r2, r3
 800324c:	69fb      	ldr	r3, [r7, #28]
 800324e:	0011      	movs	r1, r2
 8003250:	0018      	movs	r0, r3
 8003252:	f7fd fc11 	bl	8000a78 <discard_n>

    err = recv_msg_footer(nmbs);
 8003256:	251b      	movs	r5, #27
 8003258:	0026      	movs	r6, r4
 800325a:	192b      	adds	r3, r5, r4
 800325c:	19dc      	adds	r4, r3, r7
 800325e:	69fb      	ldr	r3, [r7, #28]
 8003260:	0018      	movs	r0, r3
 8003262:	f7fd feff 	bl	8001064 <recv_msg_footer>
 8003266:	0003      	movs	r3, r0
 8003268:	7023      	strb	r3, [r4, #0]
    if (err != NMBS_ERROR_NONE)
 800326a:	19ab      	adds	r3, r5, r6
 800326c:	19db      	adds	r3, r3, r7
 800326e:	781b      	ldrb	r3, [r3, #0]
 8003270:	b25b      	sxtb	r3, r3
 8003272:	2b00      	cmp	r3, #0
 8003274:	d004      	beq.n	8003280 <handle_read_file_record+0x278>
        return err;
 8003276:	19ab      	adds	r3, r5, r6
 8003278:	19db      	adds	r3, r3, r7
 800327a:	781b      	ldrb	r3, [r3, #0]
 800327c:	b25b      	sxtb	r3, r3
 800327e:	e18d      	b.n	800359c <handle_read_file_record+0x594>

    if (!nmbs->msg.ignored) {
 8003280:	69fa      	ldr	r2, [r7, #28]
 8003282:	230c      	movs	r3, #12
 8003284:	33ff      	adds	r3, #255	; 0xff
 8003286:	5cd3      	ldrb	r3, [r2, r3]
 8003288:	2201      	movs	r2, #1
 800328a:	4053      	eors	r3, r2
 800328c:	b2db      	uxtb	r3, r3
 800328e:	2b00      	cmp	r3, #0
 8003290:	d100      	bne.n	8003294 <handle_read_file_record+0x28c>
 8003292:	e17a      	b.n	800358a <handle_read_file_record+0x582>
        if (request_size % subreq_header_size)
 8003294:	231a      	movs	r3, #26
 8003296:	2118      	movs	r1, #24
 8003298:	185b      	adds	r3, r3, r1
 800329a:	19da      	adds	r2, r3, r7
 800329c:	2319      	movs	r3, #25
 800329e:	185b      	adds	r3, r3, r1
 80032a0:	19db      	adds	r3, r3, r7
 80032a2:	7812      	ldrb	r2, [r2, #0]
 80032a4:	781b      	ldrb	r3, [r3, #0]
 80032a6:	0019      	movs	r1, r3
 80032a8:	0010      	movs	r0, r2
 80032aa:	f7fc ffb7 	bl	800021c <__aeabi_uidivmod>
 80032ae:	000b      	movs	r3, r1
 80032b0:	b2db      	uxtb	r3, r3
 80032b2:	2b00      	cmp	r3, #0
 80032b4:	d006      	beq.n	80032c4 <handle_read_file_record+0x2bc>
            return send_exception_msg(nmbs, NMBS_EXCEPTION_ILLEGAL_DATA_VALUE);
 80032b6:	69fb      	ldr	r3, [r7, #28]
 80032b8:	2103      	movs	r1, #3
 80032ba:	0018      	movs	r0, r3
 80032bc:	f7fe f911 	bl	80014e2 <send_exception_msg>
 80032c0:	0003      	movs	r3, r0
 80032c2:	e16b      	b.n	800359c <handle_read_file_record+0x594>

        if (request_size < 0x07 || request_size > 0xF5)
 80032c4:	221a      	movs	r2, #26
 80032c6:	2118      	movs	r1, #24
 80032c8:	1853      	adds	r3, r2, r1
 80032ca:	19db      	adds	r3, r3, r7
 80032cc:	781b      	ldrb	r3, [r3, #0]
 80032ce:	2b06      	cmp	r3, #6
 80032d0:	d904      	bls.n	80032dc <handle_read_file_record+0x2d4>
 80032d2:	1853      	adds	r3, r2, r1
 80032d4:	19db      	adds	r3, r3, r7
 80032d6:	781b      	ldrb	r3, [r3, #0]
 80032d8:	2bf5      	cmp	r3, #245	; 0xf5
 80032da:	d906      	bls.n	80032ea <handle_read_file_record+0x2e2>
            return send_exception_msg(nmbs, NMBS_EXCEPTION_ILLEGAL_DATA_VALUE);
 80032dc:	69fb      	ldr	r3, [r7, #28]
 80032de:	2103      	movs	r1, #3
 80032e0:	0018      	movs	r0, r3
 80032e2:	f7fe f8fe 	bl	80014e2 <send_exception_msg>
 80032e6:	0003      	movs	r3, r0
 80032e8:	e158      	b.n	800359c <handle_read_file_record+0x594>

        for (uint8_t i = 0; i < subreq_count; i++) {
 80032ea:	231d      	movs	r3, #29
 80032ec:	2218      	movs	r2, #24
 80032ee:	189b      	adds	r3, r3, r2
 80032f0:	19db      	adds	r3, r3, r7
 80032f2:	2200      	movs	r2, #0
 80032f4:	701a      	strb	r2, [r3, #0]
 80032f6:	e053      	b.n	80033a0 <handle_read_file_record+0x398>
            if (subreq[i].reference_type != 0x06)
 80032f8:	231d      	movs	r3, #29
 80032fa:	2218      	movs	r2, #24
 80032fc:	189b      	adds	r3, r3, r2
 80032fe:	19db      	adds	r3, r3, r7
 8003300:	781a      	ldrb	r2, [r3, #0]
 8003302:	6abb      	ldr	r3, [r7, #40]	; 0x28
 8003304:	00d2      	lsls	r2, r2, #3
 8003306:	5cd3      	ldrb	r3, [r2, r3]
 8003308:	2b06      	cmp	r3, #6
 800330a:	d006      	beq.n	800331a <handle_read_file_record+0x312>
                return send_exception_msg(nmbs, NMBS_EXCEPTION_ILLEGAL_DATA_ADDRESS);
 800330c:	69fb      	ldr	r3, [r7, #28]
 800330e:	2102      	movs	r1, #2
 8003310:	0018      	movs	r0, r3
 8003312:	f7fe f8e6 	bl	80014e2 <send_exception_msg>
 8003316:	0003      	movs	r3, r0
 8003318:	e140      	b.n	800359c <handle_read_file_record+0x594>

            if (subreq[i].file_number == 0x0000)
 800331a:	231d      	movs	r3, #29
 800331c:	2218      	movs	r2, #24
 800331e:	189b      	adds	r3, r3, r2
 8003320:	19db      	adds	r3, r3, r7
 8003322:	781b      	ldrb	r3, [r3, #0]
 8003324:	6aba      	ldr	r2, [r7, #40]	; 0x28
 8003326:	00db      	lsls	r3, r3, #3
 8003328:	18d3      	adds	r3, r2, r3
 800332a:	3302      	adds	r3, #2
 800332c:	881b      	ldrh	r3, [r3, #0]
 800332e:	2b00      	cmp	r3, #0
 8003330:	d106      	bne.n	8003340 <handle_read_file_record+0x338>
                return send_exception_msg(nmbs, NMBS_EXCEPTION_ILLEGAL_DATA_ADDRESS);
 8003332:	69fb      	ldr	r3, [r7, #28]
 8003334:	2102      	movs	r1, #2
 8003336:	0018      	movs	r0, r3
 8003338:	f7fe f8d3 	bl	80014e2 <send_exception_msg>
 800333c:	0003      	movs	r3, r0
 800333e:	e12d      	b.n	800359c <handle_read_file_record+0x594>

            if (subreq[i].record_number > 0x270F)
 8003340:	231d      	movs	r3, #29
 8003342:	2218      	movs	r2, #24
 8003344:	189b      	adds	r3, r3, r2
 8003346:	19db      	adds	r3, r3, r7
 8003348:	781b      	ldrb	r3, [r3, #0]
 800334a:	6aba      	ldr	r2, [r7, #40]	; 0x28
 800334c:	00db      	lsls	r3, r3, #3
 800334e:	18d3      	adds	r3, r2, r3
 8003350:	3304      	adds	r3, #4
 8003352:	881b      	ldrh	r3, [r3, #0]
 8003354:	4a95      	ldr	r2, [pc, #596]	; (80035ac <handle_read_file_record+0x5a4>)
 8003356:	4293      	cmp	r3, r2
 8003358:	d906      	bls.n	8003368 <handle_read_file_record+0x360>
                return send_exception_msg(nmbs, NMBS_EXCEPTION_ILLEGAL_DATA_ADDRESS);
 800335a:	69fb      	ldr	r3, [r7, #28]
 800335c:	2102      	movs	r1, #2
 800335e:	0018      	movs	r0, r3
 8003360:	f7fe f8bf 	bl	80014e2 <send_exception_msg>
 8003364:	0003      	movs	r3, r0
 8003366:	e119      	b.n	800359c <handle_read_file_record+0x594>

            if (subreq[i].record_length > 124)
 8003368:	231d      	movs	r3, #29
 800336a:	2218      	movs	r2, #24
 800336c:	189b      	adds	r3, r3, r2
 800336e:	19db      	adds	r3, r3, r7
 8003370:	781b      	ldrb	r3, [r3, #0]
 8003372:	6aba      	ldr	r2, [r7, #40]	; 0x28
 8003374:	00db      	lsls	r3, r3, #3
 8003376:	18d3      	adds	r3, r2, r3
 8003378:	3306      	adds	r3, #6
 800337a:	881b      	ldrh	r3, [r3, #0]
 800337c:	2b7c      	cmp	r3, #124	; 0x7c
 800337e:	d906      	bls.n	800338e <handle_read_file_record+0x386>
                return send_exception_msg(nmbs, NMBS_EXCEPTION_ILLEGAL_DATA_ADDRESS);
 8003380:	69fb      	ldr	r3, [r7, #28]
 8003382:	2102      	movs	r1, #2
 8003384:	0018      	movs	r0, r3
 8003386:	f7fe f8ac 	bl	80014e2 <send_exception_msg>
 800338a:	0003      	movs	r3, r0
 800338c:	e106      	b.n	800359c <handle_read_file_record+0x594>
        for (uint8_t i = 0; i < subreq_count; i++) {
 800338e:	211d      	movs	r1, #29
 8003390:	2018      	movs	r0, #24
 8003392:	180b      	adds	r3, r1, r0
 8003394:	19db      	adds	r3, r3, r7
 8003396:	781a      	ldrb	r2, [r3, #0]
 8003398:	180b      	adds	r3, r1, r0
 800339a:	19db      	adds	r3, r3, r7
 800339c:	3201      	adds	r2, #1
 800339e:	701a      	strb	r2, [r3, #0]
 80033a0:	231d      	movs	r3, #29
 80033a2:	2518      	movs	r5, #24
 80033a4:	195b      	adds	r3, r3, r5
 80033a6:	19da      	adds	r2, r3, r7
 80033a8:	2318      	movs	r3, #24
 80033aa:	195b      	adds	r3, r3, r5
 80033ac:	19db      	adds	r3, r3, r7
 80033ae:	7812      	ldrb	r2, [r2, #0]
 80033b0:	781b      	ldrb	r3, [r3, #0]
 80033b2:	429a      	cmp	r2, r3
 80033b4:	d3a0      	bcc.n	80032f8 <handle_read_file_record+0x2f0>

            NMBS_DEBUG_PRINT("a %d\tr %d\tl %d\t fread ", subreq[i].file_number, subreq[i].record_number,
                             subreq[i].record_length);
        }

        put_res_header(nmbs, 1 + response_data_size);
 80033b6:	241f      	movs	r4, #31
 80033b8:	1963      	adds	r3, r4, r5
 80033ba:	19db      	adds	r3, r3, r7
 80033bc:	781b      	ldrb	r3, [r3, #0]
 80033be:	b29b      	uxth	r3, r3
 80033c0:	3301      	adds	r3, #1
 80033c2:	b29a      	uxth	r2, r3
 80033c4:	69fb      	ldr	r3, [r7, #28]
 80033c6:	0011      	movs	r1, r2
 80033c8:	0018      	movs	r0, r3
 80033ca:	f7fe f878 	bl	80014be <put_res_header>
        put_1(nmbs, response_data_size);
 80033ce:	1963      	adds	r3, r4, r5
 80033d0:	19db      	adds	r3, r3, r7
 80033d2:	781a      	ldrb	r2, [r3, #0]
 80033d4:	69fb      	ldr	r3, [r7, #28]
 80033d6:	0011      	movs	r1, r2
 80033d8:	0018      	movs	r0, r3
 80033da:	f7fd fb1d 	bl	8000a18 <put_1>

        if (nmbs->callbacks.read_file_record) {
 80033de:	69fa      	ldr	r2, [r7, #28]
 80033e0:	2398      	movs	r3, #152	; 0x98
 80033e2:	005b      	lsls	r3, r3, #1
 80033e4:	58d3      	ldr	r3, [r2, r3]
 80033e6:	2b00      	cmp	r3, #0
 80033e8:	d100      	bne.n	80033ec <handle_read_file_record+0x3e4>
 80033ea:	e0a9      	b.n	8003540 <handle_read_file_record+0x538>
            for (uint8_t i = 0; i < subreq_count; i++) {
 80033ec:	231c      	movs	r3, #28
 80033ee:	195b      	adds	r3, r3, r5
 80033f0:	19db      	adds	r3, r3, r7
 80033f2:	2200      	movs	r2, #0
 80033f4:	701a      	strb	r2, [r3, #0]
 80033f6:	e096      	b.n	8003526 <handle_read_file_record+0x51e>
                uint16_t subreq_data_size = subreq[i].record_length * 2;
 80033f8:	241c      	movs	r4, #28
 80033fa:	2618      	movs	r6, #24
 80033fc:	19a3      	adds	r3, r4, r6
 80033fe:	19db      	adds	r3, r3, r7
 8003400:	781b      	ldrb	r3, [r3, #0]
 8003402:	6aba      	ldr	r2, [r7, #40]	; 0x28
 8003404:	00db      	lsls	r3, r3, #3
 8003406:	18d3      	adds	r3, r2, r3
 8003408:	3306      	adds	r3, #6
 800340a:	881b      	ldrh	r3, [r3, #0]
 800340c:	250e      	movs	r5, #14
 800340e:	19aa      	adds	r2, r5, r6
 8003410:	19d2      	adds	r2, r2, r7
 8003412:	18db      	adds	r3, r3, r3
 8003414:	8013      	strh	r3, [r2, #0]
                put_1(nmbs, subreq_data_size + 1);
 8003416:	19ab      	adds	r3, r5, r6
 8003418:	19db      	adds	r3, r3, r7
 800341a:	881b      	ldrh	r3, [r3, #0]
 800341c:	b2db      	uxtb	r3, r3
 800341e:	3301      	adds	r3, #1
 8003420:	b2da      	uxtb	r2, r3
 8003422:	69fb      	ldr	r3, [r7, #28]
 8003424:	0011      	movs	r1, r2
 8003426:	0018      	movs	r0, r3
 8003428:	f7fd faf6 	bl	8000a18 <put_1>
                put_1(nmbs, 0x06);    // add Reference Type const
 800342c:	69fb      	ldr	r3, [r7, #28]
 800342e:	2106      	movs	r1, #6
 8003430:	0018      	movs	r0, r3
 8003432:	f7fd faf1 	bl	8000a18 <put_1>
                uint16_t* subreq_data = (uint16_t*) get_n(nmbs, subreq_data_size);
 8003436:	19ab      	adds	r3, r5, r6
 8003438:	19db      	adds	r3, r3, r7
 800343a:	881a      	ldrh	r2, [r3, #0]
 800343c:	69fb      	ldr	r3, [r7, #28]
 800343e:	0011      	movs	r1, r2
 8003440:	0018      	movs	r0, r3
 8003442:	f7fd fbbc 	bl	8000bbe <get_n>
 8003446:	0003      	movs	r3, r0
 8003448:	623b      	str	r3, [r7, #32]

                err = nmbs->callbacks.read_file_record(subreq[i].file_number, subreq[i].record_number, subreq_data,
 800344a:	69fa      	ldr	r2, [r7, #28]
 800344c:	2398      	movs	r3, #152	; 0x98
 800344e:	005b      	lsls	r3, r3, #1
 8003450:	58d5      	ldr	r5, [r2, r3]
 8003452:	0031      	movs	r1, r6
 8003454:	1863      	adds	r3, r4, r1
 8003456:	19db      	adds	r3, r3, r7
 8003458:	781b      	ldrb	r3, [r3, #0]
 800345a:	6aba      	ldr	r2, [r7, #40]	; 0x28
 800345c:	00db      	lsls	r3, r3, #3
 800345e:	18d3      	adds	r3, r2, r3
 8003460:	3302      	adds	r3, #2
 8003462:	8818      	ldrh	r0, [r3, #0]
 8003464:	1863      	adds	r3, r4, r1
 8003466:	19db      	adds	r3, r3, r7
 8003468:	781b      	ldrb	r3, [r3, #0]
 800346a:	6aba      	ldr	r2, [r7, #40]	; 0x28
 800346c:	00db      	lsls	r3, r3, #3
 800346e:	18d3      	adds	r3, r2, r3
 8003470:	3304      	adds	r3, #4
 8003472:	881e      	ldrh	r6, [r3, #0]
 8003474:	1863      	adds	r3, r4, r1
 8003476:	19db      	adds	r3, r3, r7
 8003478:	781b      	ldrb	r3, [r3, #0]
 800347a:	6aba      	ldr	r2, [r7, #40]	; 0x28
 800347c:	00db      	lsls	r3, r3, #3
 800347e:	18d3      	adds	r3, r2, r3
 8003480:	3306      	adds	r3, #6
 8003482:	881b      	ldrh	r3, [r3, #0]
 8003484:	469c      	mov	ip, r3
 8003486:	69fa      	ldr	r2, [r7, #28]
 8003488:	2383      	movs	r3, #131	; 0x83
 800348a:	005b      	lsls	r3, r3, #1
 800348c:	5cd3      	ldrb	r3, [r2, r3]
 800348e:	69f9      	ldr	r1, [r7, #28]
 8003490:	22a0      	movs	r2, #160	; 0xa0
 8003492:	0052      	lsls	r2, r2, #1
 8003494:	588a      	ldr	r2, [r1, r2]
 8003496:	211b      	movs	r1, #27
 8003498:	2418      	movs	r4, #24
 800349a:	190c      	adds	r4, r1, r4
 800349c:	19e4      	adds	r4, r4, r7
 800349e:	6a39      	ldr	r1, [r7, #32]
 80034a0:	9201      	str	r2, [sp, #4]
 80034a2:	9300      	str	r3, [sp, #0]
 80034a4:	4663      	mov	r3, ip
 80034a6:	000a      	movs	r2, r1
 80034a8:	0031      	movs	r1, r6
 80034aa:	47a8      	blx	r5
 80034ac:	0003      	movs	r3, r0
 80034ae:	7023      	strb	r3, [r4, #0]
                                                       subreq[i].record_length, nmbs->msg.unit_id, nmbs->callbacks.arg);
                if (err != NMBS_ERROR_NONE) {
 80034b0:	221b      	movs	r2, #27
 80034b2:	2118      	movs	r1, #24
 80034b4:	1853      	adds	r3, r2, r1
 80034b6:	19db      	adds	r3, r3, r7
 80034b8:	781b      	ldrb	r3, [r3, #0]
 80034ba:	b25b      	sxtb	r3, r3
 80034bc:	2b00      	cmp	r3, #0
 80034be:	d01c      	beq.n	80034fa <handle_read_file_record+0x4f2>
                    if (nmbs_error_is_exception(err))
 80034c0:	1853      	adds	r3, r2, r1
 80034c2:	19db      	adds	r3, r3, r7
 80034c4:	781b      	ldrb	r3, [r3, #0]
 80034c6:	b25b      	sxtb	r3, r3
 80034c8:	2b00      	cmp	r3, #0
 80034ca:	dd0f      	ble.n	80034ec <handle_read_file_record+0x4e4>
 80034cc:	1853      	adds	r3, r2, r1
 80034ce:	19db      	adds	r3, r3, r7
 80034d0:	781b      	ldrb	r3, [r3, #0]
 80034d2:	b25b      	sxtb	r3, r3
 80034d4:	2b04      	cmp	r3, #4
 80034d6:	dc09      	bgt.n	80034ec <handle_read_file_record+0x4e4>
                        return send_exception_msg(nmbs, err);
 80034d8:	1853      	adds	r3, r2, r1
 80034da:	19db      	adds	r3, r3, r7
 80034dc:	781a      	ldrb	r2, [r3, #0]
 80034de:	69fb      	ldr	r3, [r7, #28]
 80034e0:	0011      	movs	r1, r2
 80034e2:	0018      	movs	r0, r3
 80034e4:	f7fd fffd 	bl	80014e2 <send_exception_msg>
 80034e8:	0003      	movs	r3, r0
 80034ea:	e057      	b.n	800359c <handle_read_file_record+0x594>

                    return send_exception_msg(nmbs, NMBS_EXCEPTION_SERVER_DEVICE_FAILURE);
 80034ec:	69fb      	ldr	r3, [r7, #28]
 80034ee:	2104      	movs	r1, #4
 80034f0:	0018      	movs	r0, r3
 80034f2:	f7fd fff6 	bl	80014e2 <send_exception_msg>
 80034f6:	0003      	movs	r3, r0
 80034f8:	e050      	b.n	800359c <handle_read_file_record+0x594>
                }

                swap_regs(subreq_data, subreq[i].record_length);
 80034fa:	241c      	movs	r4, #28
 80034fc:	2518      	movs	r5, #24
 80034fe:	1963      	adds	r3, r4, r5
 8003500:	19db      	adds	r3, r3, r7
 8003502:	781b      	ldrb	r3, [r3, #0]
 8003504:	6aba      	ldr	r2, [r7, #40]	; 0x28
 8003506:	00db      	lsls	r3, r3, #3
 8003508:	18d3      	adds	r3, r2, r3
 800350a:	3306      	adds	r3, #6
 800350c:	881a      	ldrh	r2, [r3, #0]
 800350e:	6a3b      	ldr	r3, [r7, #32]
 8003510:	0011      	movs	r1, r2
 8003512:	0018      	movs	r0, r3
 8003514:	f7fd fbda 	bl	8000ccc <swap_regs>
            for (uint8_t i = 0; i < subreq_count; i++) {
 8003518:	1963      	adds	r3, r4, r5
 800351a:	19db      	adds	r3, r3, r7
 800351c:	781a      	ldrb	r2, [r3, #0]
 800351e:	1963      	adds	r3, r4, r5
 8003520:	19db      	adds	r3, r3, r7
 8003522:	3201      	adds	r2, #1
 8003524:	701a      	strb	r2, [r3, #0]
 8003526:	231c      	movs	r3, #28
 8003528:	2118      	movs	r1, #24
 800352a:	185b      	adds	r3, r3, r1
 800352c:	19da      	adds	r2, r3, r7
 800352e:	2318      	movs	r3, #24
 8003530:	185b      	adds	r3, r3, r1
 8003532:	19db      	adds	r3, r3, r7
 8003534:	7812      	ldrb	r2, [r2, #0]
 8003536:	781b      	ldrb	r3, [r3, #0]
 8003538:	429a      	cmp	r2, r3
 800353a:	d200      	bcs.n	800353e <handle_read_file_record+0x536>
 800353c:	e75c      	b.n	80033f8 <handle_read_file_record+0x3f0>
 800353e:	e006      	b.n	800354e <handle_read_file_record+0x546>
            }
        }
        else {
            return send_exception_msg(nmbs, NMBS_EXCEPTION_ILLEGAL_FUNCTION);
 8003540:	69fb      	ldr	r3, [r7, #28]
 8003542:	2101      	movs	r1, #1
 8003544:	0018      	movs	r0, r3
 8003546:	f7fd ffcc 	bl	80014e2 <send_exception_msg>
 800354a:	0003      	movs	r3, r0
 800354c:	e026      	b.n	800359c <handle_read_file_record+0x594>
        }

        if (!nmbs->msg.broadcast) {
 800354e:	69fa      	ldr	r2, [r7, #28]
 8003550:	2385      	movs	r3, #133	; 0x85
 8003552:	005b      	lsls	r3, r3, #1
 8003554:	5cd3      	ldrb	r3, [r2, r3]
 8003556:	2201      	movs	r2, #1
 8003558:	4053      	eors	r3, r2
 800355a:	b2db      	uxtb	r3, r3
 800355c:	2b00      	cmp	r3, #0
 800355e:	d01c      	beq.n	800359a <handle_read_file_record+0x592>
            err = send_msg(nmbs);
 8003560:	251b      	movs	r5, #27
 8003562:	2618      	movs	r6, #24
 8003564:	19ab      	adds	r3, r5, r6
 8003566:	19dc      	adds	r4, r3, r7
 8003568:	69fb      	ldr	r3, [r7, #28]
 800356a:	0018      	movs	r0, r3
 800356c:	f7fd ff29 	bl	80013c2 <send_msg>
 8003570:	0003      	movs	r3, r0
 8003572:	7023      	strb	r3, [r4, #0]
            if (err != NMBS_ERROR_NONE)
 8003574:	19ab      	adds	r3, r5, r6
 8003576:	19db      	adds	r3, r3, r7
 8003578:	781b      	ldrb	r3, [r3, #0]
 800357a:	b25b      	sxtb	r3, r3
 800357c:	2b00      	cmp	r3, #0
 800357e:	d00c      	beq.n	800359a <handle_read_file_record+0x592>
                return err;
 8003580:	19ab      	adds	r3, r5, r6
 8003582:	19db      	adds	r3, r3, r7
 8003584:	781b      	ldrb	r3, [r3, #0]
 8003586:	b25b      	sxtb	r3, r3
 8003588:	e008      	b.n	800359c <handle_read_file_record+0x594>
        }
    }
    else {
        return recv_read_file_record_res(nmbs, NULL, 0);
 800358a:	69fb      	ldr	r3, [r7, #28]
 800358c:	2200      	movs	r2, #0
 800358e:	2100      	movs	r1, #0
 8003590:	0018      	movs	r0, r3
 8003592:	f7fe fb33 	bl	8001bfc <recv_read_file_record_res>
 8003596:	0003      	movs	r3, r0
 8003598:	e000      	b.n	800359c <handle_read_file_record+0x594>
    }

    return NMBS_ERROR_NONE;
 800359a:	2300      	movs	r3, #0
 800359c:	46c5      	mov	sp, r8
}
 800359e:	0018      	movs	r0, r3
 80035a0:	46bd      	mov	sp, r7
 80035a2:	b00e      	add	sp, #56	; 0x38
 80035a4:	bc80      	pop	{r7}
 80035a6:	46b8      	mov	r8, r7
 80035a8:	bdf0      	pop	{r4, r5, r6, r7, pc}
 80035aa:	46c0      	nop			; (mov r8, r8)
 80035ac:	0000270f 	.word	0x0000270f

080035b0 <handle_write_file_record>:
#endif

#ifndef NMBS_SERVER_WRITE_FILE_RECORD_DISABLED
static nmbs_error handle_write_file_record(nmbs_t* nmbs) {
 80035b0:	b5f0      	push	{r4, r5, r6, r7, lr}
 80035b2:	46c6      	mov	lr, r8
 80035b4:	b500      	push	{lr}
 80035b6:	b08a      	sub	sp, #40	; 0x28
 80035b8:	af02      	add	r7, sp, #8
 80035ba:	6078      	str	r0, [r7, #4]
    nmbs_error err = recv(nmbs, 1);
 80035bc:	251d      	movs	r5, #29
 80035be:	197c      	adds	r4, r7, r5
 80035c0:	687b      	ldr	r3, [r7, #4]
 80035c2:	2101      	movs	r1, #1
 80035c4:	0018      	movs	r0, r3
 80035c6:	f7fd fbaf 	bl	8000d28 <recv>
 80035ca:	0003      	movs	r3, r0
 80035cc:	7023      	strb	r3, [r4, #0]
    if (err != NMBS_ERROR_NONE)
 80035ce:	197b      	adds	r3, r7, r5
 80035d0:	781b      	ldrb	r3, [r3, #0]
 80035d2:	b25b      	sxtb	r3, r3
 80035d4:	2b00      	cmp	r3, #0
 80035d6:	d003      	beq.n	80035e0 <handle_write_file_record+0x30>
        return err;
 80035d8:	197b      	adds	r3, r7, r5
 80035da:	781b      	ldrb	r3, [r3, #0]
 80035dc:	b25b      	sxtb	r3, r3
 80035de:	e1be      	b.n	800395e <handle_write_file_record+0x3ae>

    const uint8_t request_size = get_1(nmbs);
 80035e0:	251c      	movs	r5, #28
 80035e2:	197c      	adds	r4, r7, r5
 80035e4:	687b      	ldr	r3, [r7, #4]
 80035e6:	0018      	movs	r0, r3
 80035e8:	f7fd f9f8 	bl	80009dc <get_1>
 80035ec:	0003      	movs	r3, r0
 80035ee:	7023      	strb	r3, [r4, #0]
    if (request_size > 251) {
 80035f0:	197b      	adds	r3, r7, r5
 80035f2:	781b      	ldrb	r3, [r3, #0]
 80035f4:	2bfb      	cmp	r3, #251	; 0xfb
 80035f6:	d902      	bls.n	80035fe <handle_write_file_record+0x4e>
        return NMBS_ERROR_INVALID_REQUEST;
 80035f8:	2308      	movs	r3, #8
 80035fa:	425b      	negs	r3, r3
 80035fc:	e1af      	b.n	800395e <handle_write_file_record+0x3ae>
    }

    err = recv(nmbs, request_size);
 80035fe:	231c      	movs	r3, #28
 8003600:	18fb      	adds	r3, r7, r3
 8003602:	781b      	ldrb	r3, [r3, #0]
 8003604:	b29a      	uxth	r2, r3
 8003606:	251d      	movs	r5, #29
 8003608:	197c      	adds	r4, r7, r5
 800360a:	687b      	ldr	r3, [r7, #4]
 800360c:	0011      	movs	r1, r2
 800360e:	0018      	movs	r0, r3
 8003610:	f7fd fb8a 	bl	8000d28 <recv>
 8003614:	0003      	movs	r3, r0
 8003616:	7023      	strb	r3, [r4, #0]
    if (err != NMBS_ERROR_NONE)
 8003618:	197b      	adds	r3, r7, r5
 800361a:	781b      	ldrb	r3, [r3, #0]
 800361c:	b25b      	sxtb	r3, r3
 800361e:	2b00      	cmp	r3, #0
 8003620:	d003      	beq.n	800362a <handle_write_file_record+0x7a>
        return err;
 8003622:	197b      	adds	r3, r7, r5
 8003624:	781b      	ldrb	r3, [r3, #0]
 8003626:	b25b      	sxtb	r3, r3
 8003628:	e199      	b.n	800395e <handle_write_file_record+0x3ae>

    // We can save the msg.buf index and use it later for context recovery.
    const uint16_t msg_buf_idx = nmbs->msg.buf_idx;
 800362a:	231a      	movs	r3, #26
 800362c:	18fb      	adds	r3, r7, r3
 800362e:	6879      	ldr	r1, [r7, #4]
 8003630:	2282      	movs	r2, #130	; 0x82
 8003632:	0052      	lsls	r2, r2, #1
 8003634:	5a8a      	ldrh	r2, [r1, r2]
 8003636:	801a      	strh	r2, [r3, #0]
    discard_n(nmbs, request_size);
 8003638:	231c      	movs	r3, #28
 800363a:	18fb      	adds	r3, r7, r3
 800363c:	781b      	ldrb	r3, [r3, #0]
 800363e:	b29a      	uxth	r2, r3
 8003640:	687b      	ldr	r3, [r7, #4]
 8003642:	0011      	movs	r1, r2
 8003644:	0018      	movs	r0, r3
 8003646:	f7fd fa17 	bl	8000a78 <discard_n>

    err = recv_msg_footer(nmbs);
 800364a:	251d      	movs	r5, #29
 800364c:	197c      	adds	r4, r7, r5
 800364e:	687b      	ldr	r3, [r7, #4]
 8003650:	0018      	movs	r0, r3
 8003652:	f7fd fd07 	bl	8001064 <recv_msg_footer>
 8003656:	0003      	movs	r3, r0
 8003658:	7023      	strb	r3, [r4, #0]
    if (err != NMBS_ERROR_NONE)
 800365a:	197b      	adds	r3, r7, r5
 800365c:	781b      	ldrb	r3, [r3, #0]
 800365e:	b25b      	sxtb	r3, r3
 8003660:	2b00      	cmp	r3, #0
 8003662:	d003      	beq.n	800366c <handle_write_file_record+0xbc>
        return err;
 8003664:	197b      	adds	r3, r7, r5
 8003666:	781b      	ldrb	r3, [r3, #0]
 8003668:	b25b      	sxtb	r3, r3
 800366a:	e178      	b.n	800395e <handle_write_file_record+0x3ae>

    if (!nmbs->msg.ignored) {
 800366c:	687a      	ldr	r2, [r7, #4]
 800366e:	230c      	movs	r3, #12
 8003670:	33ff      	adds	r3, #255	; 0xff
 8003672:	5cd3      	ldrb	r3, [r2, r3]
 8003674:	2201      	movs	r2, #1
 8003676:	4053      	eors	r3, r2
 8003678:	b2db      	uxtb	r3, r3
 800367a:	2b00      	cmp	r3, #0
 800367c:	d100      	bne.n	8003680 <handle_write_file_record+0xd0>
 800367e:	e163      	b.n	8003948 <handle_write_file_record+0x398>
        const uint8_t subreq_header_size = 7;
 8003680:	2319      	movs	r3, #25
 8003682:	18fb      	adds	r3, r7, r3
 8003684:	2207      	movs	r2, #7
 8003686:	701a      	strb	r2, [r3, #0]
        uint16_t size = request_size;
 8003688:	231e      	movs	r3, #30
 800368a:	18fb      	adds	r3, r7, r3
 800368c:	201c      	movs	r0, #28
 800368e:	183a      	adds	r2, r7, r0
 8003690:	7812      	ldrb	r2, [r2, #0]
 8003692:	801a      	strh	r2, [r3, #0]
        nmbs->msg.buf_idx = msg_buf_idx;    // restore context
 8003694:	687a      	ldr	r2, [r7, #4]
 8003696:	231a      	movs	r3, #26
 8003698:	18f9      	adds	r1, r7, r3
 800369a:	2382      	movs	r3, #130	; 0x82
 800369c:	005b      	lsls	r3, r3, #1
 800369e:	8809      	ldrh	r1, [r1, #0]
 80036a0:	52d1      	strh	r1, [r2, r3]

        if (request_size < 7)
 80036a2:	183b      	adds	r3, r7, r0
 80036a4:	781b      	ldrb	r3, [r3, #0]
 80036a6:	2b06      	cmp	r3, #6
 80036a8:	d806      	bhi.n	80036b8 <handle_write_file_record+0x108>
            return send_exception_msg(nmbs, NMBS_EXCEPTION_ILLEGAL_DATA_VALUE);
 80036aa:	687b      	ldr	r3, [r7, #4]
 80036ac:	2103      	movs	r1, #3
 80036ae:	0018      	movs	r0, r3
 80036b0:	f7fd ff17 	bl	80014e2 <send_exception_msg>
 80036b4:	0003      	movs	r3, r0
 80036b6:	e152      	b.n	800395e <handle_write_file_record+0x3ae>

        do {
            const uint8_t subreq_reference_type = get_1(nmbs);
 80036b8:	2518      	movs	r5, #24
 80036ba:	197c      	adds	r4, r7, r5
 80036bc:	687b      	ldr	r3, [r7, #4]
 80036be:	0018      	movs	r0, r3
 80036c0:	f7fd f98c 	bl	80009dc <get_1>
 80036c4:	0003      	movs	r3, r0
 80036c6:	7023      	strb	r3, [r4, #0]
            const uint16_t subreq_file_number_c = get_2(nmbs);
 80036c8:	2316      	movs	r3, #22
 80036ca:	18fc      	adds	r4, r7, r3
 80036cc:	687b      	ldr	r3, [r7, #4]
 80036ce:	0018      	movs	r0, r3
 80036d0:	f7fd f9e9 	bl	8000aa6 <get_2>
 80036d4:	0003      	movs	r3, r0
 80036d6:	8023      	strh	r3, [r4, #0]
            const uint16_t subreq_record_number_c = get_2(nmbs);
 80036d8:	2314      	movs	r3, #20
 80036da:	18fc      	adds	r4, r7, r3
 80036dc:	687b      	ldr	r3, [r7, #4]
 80036de:	0018      	movs	r0, r3
 80036e0:	f7fd f9e1 	bl	8000aa6 <get_2>
 80036e4:	0003      	movs	r3, r0
 80036e6:	8023      	strh	r3, [r4, #0]
            const uint16_t subreq_record_length_c = get_2(nmbs);
 80036e8:	2612      	movs	r6, #18
 80036ea:	19bc      	adds	r4, r7, r6
 80036ec:	687b      	ldr	r3, [r7, #4]
 80036ee:	0018      	movs	r0, r3
 80036f0:	f7fd f9d9 	bl	8000aa6 <get_2>
 80036f4:	0003      	movs	r3, r0
 80036f6:	8023      	strh	r3, [r4, #0]
            discard_n(nmbs, subreq_record_length_c * 2);
 80036f8:	19bb      	adds	r3, r7, r6
 80036fa:	881b      	ldrh	r3, [r3, #0]
 80036fc:	18db      	adds	r3, r3, r3
 80036fe:	b29a      	uxth	r2, r3
 8003700:	687b      	ldr	r3, [r7, #4]
 8003702:	0011      	movs	r1, r2
 8003704:	0018      	movs	r0, r3
 8003706:	f7fd f9b7 	bl	8000a78 <discard_n>

            if (subreq_reference_type != 0x06)
 800370a:	197b      	adds	r3, r7, r5
 800370c:	781b      	ldrb	r3, [r3, #0]
 800370e:	2b06      	cmp	r3, #6
 8003710:	d006      	beq.n	8003720 <handle_write_file_record+0x170>
                return send_exception_msg(nmbs, NMBS_EXCEPTION_ILLEGAL_DATA_ADDRESS);
 8003712:	687b      	ldr	r3, [r7, #4]
 8003714:	2102      	movs	r1, #2
 8003716:	0018      	movs	r0, r3
 8003718:	f7fd fee3 	bl	80014e2 <send_exception_msg>
 800371c:	0003      	movs	r3, r0
 800371e:	e11e      	b.n	800395e <handle_write_file_record+0x3ae>

            if (subreq_file_number_c == 0x0000)
 8003720:	2316      	movs	r3, #22
 8003722:	18fb      	adds	r3, r7, r3
 8003724:	881b      	ldrh	r3, [r3, #0]
 8003726:	2b00      	cmp	r3, #0
 8003728:	d106      	bne.n	8003738 <handle_write_file_record+0x188>
                return send_exception_msg(nmbs, NMBS_EXCEPTION_ILLEGAL_DATA_ADDRESS);
 800372a:	687b      	ldr	r3, [r7, #4]
 800372c:	2102      	movs	r1, #2
 800372e:	0018      	movs	r0, r3
 8003730:	f7fd fed7 	bl	80014e2 <send_exception_msg>
 8003734:	0003      	movs	r3, r0
 8003736:	e112      	b.n	800395e <handle_write_file_record+0x3ae>

            if (subreq_record_number_c > 0x270F)
 8003738:	2314      	movs	r3, #20
 800373a:	18fb      	adds	r3, r7, r3
 800373c:	881b      	ldrh	r3, [r3, #0]
 800373e:	4a8b      	ldr	r2, [pc, #556]	; (800396c <handle_write_file_record+0x3bc>)
 8003740:	4293      	cmp	r3, r2
 8003742:	d906      	bls.n	8003752 <handle_write_file_record+0x1a2>
                return send_exception_msg(nmbs, NMBS_EXCEPTION_ILLEGAL_DATA_ADDRESS);
 8003744:	687b      	ldr	r3, [r7, #4]
 8003746:	2102      	movs	r1, #2
 8003748:	0018      	movs	r0, r3
 800374a:	f7fd feca 	bl	80014e2 <send_exception_msg>
 800374e:	0003      	movs	r3, r0
 8003750:	e105      	b.n	800395e <handle_write_file_record+0x3ae>

            if (subreq_record_length_c > 122)
 8003752:	2312      	movs	r3, #18
 8003754:	18fb      	adds	r3, r7, r3
 8003756:	881b      	ldrh	r3, [r3, #0]
 8003758:	2b7a      	cmp	r3, #122	; 0x7a
 800375a:	d906      	bls.n	800376a <handle_write_file_record+0x1ba>
                return send_exception_msg(nmbs, NMBS_EXCEPTION_ILLEGAL_DATA_ADDRESS);
 800375c:	687b      	ldr	r3, [r7, #4]
 800375e:	2102      	movs	r1, #2
 8003760:	0018      	movs	r0, r3
 8003762:	f7fd febe 	bl	80014e2 <send_exception_msg>
 8003766:	0003      	movs	r3, r0
 8003768:	e0f9      	b.n	800395e <handle_write_file_record+0x3ae>

            NMBS_DEBUG_PRINT("a %d\tr %d\tl %d\t fwrite ", subreq_file_number_c, subreq_record_number_c,
                             subreq_record_length_c);
            size -= (subreq_header_size + (subreq_record_length_c * 2));
 800376a:	2419      	movs	r4, #25
 800376c:	193b      	adds	r3, r7, r4
 800376e:	781b      	ldrb	r3, [r3, #0]
 8003770:	b29a      	uxth	r2, r3
 8003772:	2312      	movs	r3, #18
 8003774:	18fb      	adds	r3, r7, r3
 8003776:	881b      	ldrh	r3, [r3, #0]
 8003778:	18db      	adds	r3, r3, r3
 800377a:	b29b      	uxth	r3, r3
 800377c:	18d3      	adds	r3, r2, r3
 800377e:	b29a      	uxth	r2, r3
 8003780:	201e      	movs	r0, #30
 8003782:	183b      	adds	r3, r7, r0
 8003784:	1839      	adds	r1, r7, r0
 8003786:	8809      	ldrh	r1, [r1, #0]
 8003788:	1a8a      	subs	r2, r1, r2
 800378a:	801a      	strh	r2, [r3, #0]
        } while (size >= subreq_header_size);
 800378c:	193b      	adds	r3, r7, r4
 800378e:	781b      	ldrb	r3, [r3, #0]
 8003790:	b29b      	uxth	r3, r3
 8003792:	183a      	adds	r2, r7, r0
 8003794:	8812      	ldrh	r2, [r2, #0]
 8003796:	429a      	cmp	r2, r3
 8003798:	d28e      	bcs.n	80036b8 <handle_write_file_record+0x108>

        if (size)
 800379a:	183b      	adds	r3, r7, r0
 800379c:	881b      	ldrh	r3, [r3, #0]
 800379e:	2b00      	cmp	r3, #0
 80037a0:	d006      	beq.n	80037b0 <handle_write_file_record+0x200>
            return send_exception_msg(nmbs, NMBS_EXCEPTION_ILLEGAL_DATA_VALUE);
 80037a2:	687b      	ldr	r3, [r7, #4]
 80037a4:	2103      	movs	r1, #3
 80037a6:	0018      	movs	r0, r3
 80037a8:	f7fd fe9b 	bl	80014e2 <send_exception_msg>
 80037ac:	0003      	movs	r3, r0
 80037ae:	e0d6      	b.n	800395e <handle_write_file_record+0x3ae>

        // checks completed

        size = request_size;
 80037b0:	231e      	movs	r3, #30
 80037b2:	18fb      	adds	r3, r7, r3
 80037b4:	221c      	movs	r2, #28
 80037b6:	18ba      	adds	r2, r7, r2
 80037b8:	7812      	ldrb	r2, [r2, #0]
 80037ba:	801a      	strh	r2, [r3, #0]
        nmbs->msg.buf_idx = msg_buf_idx;    // restore context
 80037bc:	687a      	ldr	r2, [r7, #4]
 80037be:	231a      	movs	r3, #26
 80037c0:	18f9      	adds	r1, r7, r3
 80037c2:	2382      	movs	r3, #130	; 0x82
 80037c4:	005b      	lsls	r3, r3, #1
 80037c6:	8809      	ldrh	r1, [r1, #0]
 80037c8:	52d1      	strh	r1, [r2, r3]

        do {
            discard_1(nmbs);
 80037ca:	687b      	ldr	r3, [r7, #4]
 80037cc:	0018      	movs	r0, r3
 80037ce:	f7fd f941 	bl	8000a54 <discard_1>
            const uint16_t subreq_file_number = get_2(nmbs);
 80037d2:	2310      	movs	r3, #16
 80037d4:	18fc      	adds	r4, r7, r3
 80037d6:	687b      	ldr	r3, [r7, #4]
 80037d8:	0018      	movs	r0, r3
 80037da:	f7fd f964 	bl	8000aa6 <get_2>
 80037de:	0003      	movs	r3, r0
 80037e0:	8023      	strh	r3, [r4, #0]
            const uint16_t subreq_record_number = get_2(nmbs);
 80037e2:	220e      	movs	r2, #14
 80037e4:	18bc      	adds	r4, r7, r2
 80037e6:	687b      	ldr	r3, [r7, #4]
 80037e8:	0018      	movs	r0, r3
 80037ea:	f7fd f95c 	bl	8000aa6 <get_2>
 80037ee:	0003      	movs	r3, r0
 80037f0:	8023      	strh	r3, [r4, #0]
            const uint16_t subreq_record_length = get_2(nmbs);
 80037f2:	260c      	movs	r6, #12
 80037f4:	19bc      	adds	r4, r7, r6
 80037f6:	687b      	ldr	r3, [r7, #4]
 80037f8:	0018      	movs	r0, r3
 80037fa:	f7fd f954 	bl	8000aa6 <get_2>
 80037fe:	0003      	movs	r3, r0
 8003800:	8023      	strh	r3, [r4, #0]
            uint16_t* subreq_data = get_regs(nmbs, subreq_record_length);
 8003802:	19bb      	adds	r3, r7, r6
 8003804:	881a      	ldrh	r2, [r3, #0]
 8003806:	687b      	ldr	r3, [r7, #4]
 8003808:	0011      	movs	r1, r2
 800380a:	0018      	movs	r0, r3
 800380c:	f7fd fa1b 	bl	8000c46 <get_regs>
 8003810:	0003      	movs	r3, r0
 8003812:	60bb      	str	r3, [r7, #8]

            if (nmbs->callbacks.write_file_record) {
 8003814:	687a      	ldr	r2, [r7, #4]
 8003816:	239a      	movs	r3, #154	; 0x9a
 8003818:	005b      	lsls	r3, r3, #1
 800381a:	58d3      	ldr	r3, [r2, r3]
 800381c:	2b00      	cmp	r3, #0
 800381e:	d049      	beq.n	80038b4 <handle_write_file_record+0x304>
                err = nmbs->callbacks.write_file_record(subreq_file_number, subreq_record_number, subreq_data,
 8003820:	687a      	ldr	r2, [r7, #4]
 8003822:	239a      	movs	r3, #154	; 0x9a
 8003824:	005b      	lsls	r3, r3, #1
 8003826:	58d5      	ldr	r5, [r2, r3]
 8003828:	687a      	ldr	r2, [r7, #4]
 800382a:	2383      	movs	r3, #131	; 0x83
 800382c:	005b      	lsls	r3, r3, #1
 800382e:	5cd3      	ldrb	r3, [r2, r3]
 8003830:	6879      	ldr	r1, [r7, #4]
 8003832:	22a0      	movs	r2, #160	; 0xa0
 8003834:	0052      	lsls	r2, r2, #1
 8003836:	588a      	ldr	r2, [r1, r2]
 8003838:	211d      	movs	r1, #29
 800383a:	187c      	adds	r4, r7, r1
 800383c:	19b9      	adds	r1, r7, r6
 800383e:	8809      	ldrh	r1, [r1, #0]
 8003840:	4688      	mov	r8, r1
 8003842:	68b9      	ldr	r1, [r7, #8]
 8003844:	468c      	mov	ip, r1
 8003846:	260e      	movs	r6, #14
 8003848:	19b9      	adds	r1, r7, r6
 800384a:	880e      	ldrh	r6, [r1, #0]
 800384c:	2010      	movs	r0, #16
 800384e:	1839      	adds	r1, r7, r0
 8003850:	8808      	ldrh	r0, [r1, #0]
 8003852:	9201      	str	r2, [sp, #4]
 8003854:	9300      	str	r3, [sp, #0]
 8003856:	4643      	mov	r3, r8
 8003858:	4662      	mov	r2, ip
 800385a:	0031      	movs	r1, r6
 800385c:	47a8      	blx	r5
 800385e:	0003      	movs	r3, r0
 8003860:	7023      	strb	r3, [r4, #0]
                                                        subreq_record_length, nmbs->msg.unit_id, nmbs->callbacks.arg);
                if (err != NMBS_ERROR_NONE) {
 8003862:	221d      	movs	r2, #29
 8003864:	18bb      	adds	r3, r7, r2
 8003866:	781b      	ldrb	r3, [r3, #0]
 8003868:	b25b      	sxtb	r3, r3
 800386a:	2b00      	cmp	r3, #0
 800386c:	d019      	beq.n	80038a2 <handle_write_file_record+0x2f2>
                    if (nmbs_error_is_exception(err))
 800386e:	18bb      	adds	r3, r7, r2
 8003870:	781b      	ldrb	r3, [r3, #0]
 8003872:	b25b      	sxtb	r3, r3
 8003874:	2b00      	cmp	r3, #0
 8003876:	dd0d      	ble.n	8003894 <handle_write_file_record+0x2e4>
 8003878:	18bb      	adds	r3, r7, r2
 800387a:	781b      	ldrb	r3, [r3, #0]
 800387c:	b25b      	sxtb	r3, r3
 800387e:	2b04      	cmp	r3, #4
 8003880:	dc08      	bgt.n	8003894 <handle_write_file_record+0x2e4>
                        return send_exception_msg(nmbs, err);
 8003882:	18bb      	adds	r3, r7, r2
 8003884:	781a      	ldrb	r2, [r3, #0]
 8003886:	687b      	ldr	r3, [r7, #4]
 8003888:	0011      	movs	r1, r2
 800388a:	0018      	movs	r0, r3
 800388c:	f7fd fe29 	bl	80014e2 <send_exception_msg>
 8003890:	0003      	movs	r3, r0
 8003892:	e064      	b.n	800395e <handle_write_file_record+0x3ae>

                    return send_exception_msg(nmbs, NMBS_EXCEPTION_SERVER_DEVICE_FAILURE);
 8003894:	687b      	ldr	r3, [r7, #4]
 8003896:	2104      	movs	r1, #4
 8003898:	0018      	movs	r0, r3
 800389a:	f7fd fe22 	bl	80014e2 <send_exception_msg>
 800389e:	0003      	movs	r3, r0
 80038a0:	e05d      	b.n	800395e <handle_write_file_record+0x3ae>
                }

                swap_regs(subreq_data, subreq_record_length);    // restore swapping
 80038a2:	230c      	movs	r3, #12
 80038a4:	18fb      	adds	r3, r7, r3
 80038a6:	881a      	ldrh	r2, [r3, #0]
 80038a8:	68bb      	ldr	r3, [r7, #8]
 80038aa:	0011      	movs	r1, r2
 80038ac:	0018      	movs	r0, r3
 80038ae:	f7fd fa0d 	bl	8000ccc <swap_regs>
 80038b2:	e006      	b.n	80038c2 <handle_write_file_record+0x312>
            }
            else {
                return send_exception_msg(nmbs, NMBS_EXCEPTION_ILLEGAL_FUNCTION);
 80038b4:	687b      	ldr	r3, [r7, #4]
 80038b6:	2101      	movs	r1, #1
 80038b8:	0018      	movs	r0, r3
 80038ba:	f7fd fe12 	bl	80014e2 <send_exception_msg>
 80038be:	0003      	movs	r3, r0
 80038c0:	e04d      	b.n	800395e <handle_write_file_record+0x3ae>
            }

            size -= (subreq_header_size + (subreq_record_length * 2));
 80038c2:	2419      	movs	r4, #25
 80038c4:	193b      	adds	r3, r7, r4
 80038c6:	781b      	ldrb	r3, [r3, #0]
 80038c8:	b29a      	uxth	r2, r3
 80038ca:	230c      	movs	r3, #12
 80038cc:	18fb      	adds	r3, r7, r3
 80038ce:	881b      	ldrh	r3, [r3, #0]
 80038d0:	18db      	adds	r3, r3, r3
 80038d2:	b29b      	uxth	r3, r3
 80038d4:	18d3      	adds	r3, r2, r3
 80038d6:	b29a      	uxth	r2, r3
 80038d8:	201e      	movs	r0, #30
 80038da:	183b      	adds	r3, r7, r0
 80038dc:	1839      	adds	r1, r7, r0
 80038de:	8809      	ldrh	r1, [r1, #0]
 80038e0:	1a8a      	subs	r2, r1, r2
 80038e2:	801a      	strh	r2, [r3, #0]
        } while (size >= subreq_header_size);
 80038e4:	193b      	adds	r3, r7, r4
 80038e6:	781b      	ldrb	r3, [r3, #0]
 80038e8:	b29b      	uxth	r3, r3
 80038ea:	183a      	adds	r2, r7, r0
 80038ec:	8812      	ldrh	r2, [r2, #0]
 80038ee:	429a      	cmp	r2, r3
 80038f0:	d300      	bcc.n	80038f4 <handle_write_file_record+0x344>
 80038f2:	e76a      	b.n	80037ca <handle_write_file_record+0x21a>

        if (!nmbs->msg.broadcast) {
 80038f4:	687a      	ldr	r2, [r7, #4]
 80038f6:	2385      	movs	r3, #133	; 0x85
 80038f8:	005b      	lsls	r3, r3, #1
 80038fa:	5cd3      	ldrb	r3, [r2, r3]
 80038fc:	2201      	movs	r2, #1
 80038fe:	4053      	eors	r3, r2
 8003900:	b2db      	uxtb	r3, r3
 8003902:	2b00      	cmp	r3, #0
 8003904:	d02a      	beq.n	800395c <handle_write_file_record+0x3ac>
            // The normal response to 'Write File' is an echo of the request.
            // We can restore the buffer index and response msg.
            nmbs->msg.buf_idx = msg_buf_idx;
 8003906:	687a      	ldr	r2, [r7, #4]
 8003908:	231a      	movs	r3, #26
 800390a:	18f9      	adds	r1, r7, r3
 800390c:	2382      	movs	r3, #130	; 0x82
 800390e:	005b      	lsls	r3, r3, #1
 8003910:	8809      	ldrh	r1, [r1, #0]
 8003912:	52d1      	strh	r1, [r2, r3]
            discard_n(nmbs, request_size);
 8003914:	231c      	movs	r3, #28
 8003916:	18fb      	adds	r3, r7, r3
 8003918:	781b      	ldrb	r3, [r3, #0]
 800391a:	b29a      	uxth	r2, r3
 800391c:	687b      	ldr	r3, [r7, #4]
 800391e:	0011      	movs	r1, r2
 8003920:	0018      	movs	r0, r3
 8003922:	f7fd f8a9 	bl	8000a78 <discard_n>

            err = send_msg(nmbs);
 8003926:	251d      	movs	r5, #29
 8003928:	197c      	adds	r4, r7, r5
 800392a:	687b      	ldr	r3, [r7, #4]
 800392c:	0018      	movs	r0, r3
 800392e:	f7fd fd48 	bl	80013c2 <send_msg>
 8003932:	0003      	movs	r3, r0
 8003934:	7023      	strb	r3, [r4, #0]
            if (err != NMBS_ERROR_NONE)
 8003936:	197b      	adds	r3, r7, r5
 8003938:	781b      	ldrb	r3, [r3, #0]
 800393a:	b25b      	sxtb	r3, r3
 800393c:	2b00      	cmp	r3, #0
 800393e:	d00d      	beq.n	800395c <handle_write_file_record+0x3ac>
                return err;
 8003940:	197b      	adds	r3, r7, r5
 8003942:	781b      	ldrb	r3, [r3, #0]
 8003944:	b25b      	sxtb	r3, r3
 8003946:	e00a      	b.n	800395e <handle_write_file_record+0x3ae>
        }
    }
    else {
        return recv_write_file_record_res(nmbs, 0, 0, NULL, 0);
 8003948:	6878      	ldr	r0, [r7, #4]
 800394a:	2300      	movs	r3, #0
 800394c:	9300      	str	r3, [sp, #0]
 800394e:	2300      	movs	r3, #0
 8003950:	2200      	movs	r2, #0
 8003952:	2100      	movs	r1, #0
 8003954:	f7fe f9fd 	bl	8001d52 <recv_write_file_record_res>
 8003958:	0003      	movs	r3, r0
 800395a:	e000      	b.n	800395e <handle_write_file_record+0x3ae>
    }

    return NMBS_ERROR_NONE;
 800395c:	2300      	movs	r3, #0
}
 800395e:	0018      	movs	r0, r3
 8003960:	46bd      	mov	sp, r7
 8003962:	b008      	add	sp, #32
 8003964:	bc80      	pop	{r7}
 8003966:	46b8      	mov	r8, r7
 8003968:	bdf0      	pop	{r4, r5, r6, r7, pc}
 800396a:	46c0      	nop			; (mov r8, r8)
 800396c:	0000270f 	.word	0x0000270f

08003970 <handle_read_write_registers>:
#endif

#ifndef NMBS_SERVER_READ_WRITE_REGISTERS_DISABLED
static nmbs_error handle_read_write_registers(nmbs_t* nmbs) {
 8003970:	b5f0      	push	{r4, r5, r6, r7, lr}
 8003972:	46ce      	mov	lr, r9
 8003974:	4647      	mov	r7, r8
 8003976:	b580      	push	{r7, lr}
 8003978:	b09d      	sub	sp, #116	; 0x74
 800397a:	af02      	add	r7, sp, #8
 800397c:	63f8      	str	r0, [r7, #60]	; 0x3c
 800397e:	466b      	mov	r3, sp
 8003980:	4699      	mov	r9, r3
    nmbs_error err = recv(nmbs, 9);
 8003982:	2227      	movs	r2, #39	; 0x27
 8003984:	2138      	movs	r1, #56	; 0x38
 8003986:	1853      	adds	r3, r2, r1
 8003988:	19dc      	adds	r4, r3, r7
 800398a:	6bfb      	ldr	r3, [r7, #60]	; 0x3c
 800398c:	2109      	movs	r1, #9
 800398e:	0018      	movs	r0, r3
 8003990:	f7fd f9ca 	bl	8000d28 <recv>
 8003994:	0003      	movs	r3, r0
 8003996:	7023      	strb	r3, [r4, #0]
    if (err != NMBS_ERROR_NONE)
 8003998:	2227      	movs	r2, #39	; 0x27
 800399a:	2138      	movs	r1, #56	; 0x38
 800399c:	1853      	adds	r3, r2, r1
 800399e:	19db      	adds	r3, r3, r7
 80039a0:	781b      	ldrb	r3, [r3, #0]
 80039a2:	b25b      	sxtb	r3, r3
 80039a4:	2b00      	cmp	r3, #0
 80039a6:	d004      	beq.n	80039b2 <handle_read_write_registers+0x42>
        return err;
 80039a8:	1853      	adds	r3, r2, r1
 80039aa:	19db      	adds	r3, r3, r7
 80039ac:	781b      	ldrb	r3, [r3, #0]
 80039ae:	b25b      	sxtb	r3, r3
 80039b0:	e27f      	b.n	8003eb2 <handle_read_write_registers+0x542>

    const uint16_t read_address = get_2(nmbs);
 80039b2:	2324      	movs	r3, #36	; 0x24
 80039b4:	2238      	movs	r2, #56	; 0x38
 80039b6:	189b      	adds	r3, r3, r2
 80039b8:	19dc      	adds	r4, r3, r7
 80039ba:	6bfb      	ldr	r3, [r7, #60]	; 0x3c
 80039bc:	0018      	movs	r0, r3
 80039be:	f7fd f872 	bl	8000aa6 <get_2>
 80039c2:	0003      	movs	r3, r0
 80039c4:	8023      	strh	r3, [r4, #0]
    const uint16_t read_quantity = get_2(nmbs);
 80039c6:	2322      	movs	r3, #34	; 0x22
 80039c8:	2238      	movs	r2, #56	; 0x38
 80039ca:	189b      	adds	r3, r3, r2
 80039cc:	19dc      	adds	r4, r3, r7
 80039ce:	6bfb      	ldr	r3, [r7, #60]	; 0x3c
 80039d0:	0018      	movs	r0, r3
 80039d2:	f7fd f868 	bl	8000aa6 <get_2>
 80039d6:	0003      	movs	r3, r0
 80039d8:	8023      	strh	r3, [r4, #0]
    const uint16_t write_address = get_2(nmbs);
 80039da:	2320      	movs	r3, #32
 80039dc:	2238      	movs	r2, #56	; 0x38
 80039de:	189b      	adds	r3, r3, r2
 80039e0:	19dc      	adds	r4, r3, r7
 80039e2:	6bfb      	ldr	r3, [r7, #60]	; 0x3c
 80039e4:	0018      	movs	r0, r3
 80039e6:	f7fd f85e 	bl	8000aa6 <get_2>
 80039ea:	0003      	movs	r3, r0
 80039ec:	8023      	strh	r3, [r4, #0]
    const uint16_t write_quantity = get_2(nmbs);
 80039ee:	231e      	movs	r3, #30
 80039f0:	2238      	movs	r2, #56	; 0x38
 80039f2:	189b      	adds	r3, r3, r2
 80039f4:	19dc      	adds	r4, r3, r7
 80039f6:	6bfb      	ldr	r3, [r7, #60]	; 0x3c
 80039f8:	0018      	movs	r0, r3
 80039fa:	f7fd f854 	bl	8000aa6 <get_2>
 80039fe:	0003      	movs	r3, r0
 8003a00:	8023      	strh	r3, [r4, #0]

    const uint8_t byte_count_write = get_1(nmbs);
 8003a02:	231d      	movs	r3, #29
 8003a04:	2238      	movs	r2, #56	; 0x38
 8003a06:	189b      	adds	r3, r3, r2
 8003a08:	19dc      	adds	r4, r3, r7
 8003a0a:	6bfb      	ldr	r3, [r7, #60]	; 0x3c
 8003a0c:	0018      	movs	r0, r3
 8003a0e:	f7fc ffe5 	bl	80009dc <get_1>
 8003a12:	0003      	movs	r3, r0
 8003a14:	7023      	strb	r3, [r4, #0]

    NMBS_DEBUG_PRINT("ra %d\trq %d\t wa %d\t wq %d\t b %d\tregs ", read_address, read_quantity, write_address,
                     write_quantity, byte_count_write);

    if (byte_count_write > 242)
 8003a16:	231d      	movs	r3, #29
 8003a18:	2238      	movs	r2, #56	; 0x38
 8003a1a:	189b      	adds	r3, r3, r2
 8003a1c:	19db      	adds	r3, r3, r7
 8003a1e:	781b      	ldrb	r3, [r3, #0]
 8003a20:	2bf2      	cmp	r3, #242	; 0xf2
 8003a22:	d902      	bls.n	8003a2a <handle_read_write_registers+0xba>
        return NMBS_ERROR_INVALID_REQUEST;
 8003a24:	2308      	movs	r3, #8
 8003a26:	425b      	negs	r3, r3
 8003a28:	e243      	b.n	8003eb2 <handle_read_write_registers+0x542>

    err = recv(nmbs, byte_count_write);
 8003a2a:	231d      	movs	r3, #29
 8003a2c:	2138      	movs	r1, #56	; 0x38
 8003a2e:	185b      	adds	r3, r3, r1
 8003a30:	19db      	adds	r3, r3, r7
 8003a32:	781b      	ldrb	r3, [r3, #0]
 8003a34:	b29a      	uxth	r2, r3
 8003a36:	2327      	movs	r3, #39	; 0x27
 8003a38:	185b      	adds	r3, r3, r1
 8003a3a:	19dc      	adds	r4, r3, r7
 8003a3c:	6bfb      	ldr	r3, [r7, #60]	; 0x3c
 8003a3e:	0011      	movs	r1, r2
 8003a40:	0018      	movs	r0, r3
 8003a42:	f7fd f971 	bl	8000d28 <recv>
 8003a46:	0003      	movs	r3, r0
 8003a48:	7023      	strb	r3, [r4, #0]
    if (err != NMBS_ERROR_NONE)
 8003a4a:	2227      	movs	r2, #39	; 0x27
 8003a4c:	2138      	movs	r1, #56	; 0x38
 8003a4e:	1853      	adds	r3, r2, r1
 8003a50:	19db      	adds	r3, r3, r7
 8003a52:	781b      	ldrb	r3, [r3, #0]
 8003a54:	b25b      	sxtb	r3, r3
 8003a56:	2b00      	cmp	r3, #0
 8003a58:	d004      	beq.n	8003a64 <handle_read_write_registers+0xf4>
        return err;
 8003a5a:	1853      	adds	r3, r2, r1
 8003a5c:	19db      	adds	r3, r3, r7
 8003a5e:	781b      	ldrb	r3, [r3, #0]
 8003a60:	b25b      	sxtb	r3, r3
 8003a62:	e226      	b.n	8003eb2 <handle_read_write_registers+0x542>

#if defined(__STDC_NO_VLA__) || defined(_MSC_VER)
    uint16_t registers[0x007B];
#else
    uint16_t registers[byte_count_write / 2];
 8003a64:	201d      	movs	r0, #29
 8003a66:	2238      	movs	r2, #56	; 0x38
 8003a68:	1883      	adds	r3, r0, r2
 8003a6a:	19db      	adds	r3, r3, r7
 8003a6c:	781b      	ldrb	r3, [r3, #0]
 8003a6e:	085b      	lsrs	r3, r3, #1
 8003a70:	b2db      	uxtb	r3, r3
 8003a72:	3b01      	subs	r3, #1
 8003a74:	653b      	str	r3, [r7, #80]	; 0x50
 8003a76:	1883      	adds	r3, r0, r2
 8003a78:	19db      	adds	r3, r3, r7
 8003a7a:	781b      	ldrb	r3, [r3, #0]
 8003a7c:	085b      	lsrs	r3, r3, #1
 8003a7e:	b2db      	uxtb	r3, r3
 8003a80:	61bb      	str	r3, [r7, #24]
 8003a82:	2300      	movs	r3, #0
 8003a84:	61fb      	str	r3, [r7, #28]
 8003a86:	69b9      	ldr	r1, [r7, #24]
 8003a88:	69fa      	ldr	r2, [r7, #28]
 8003a8a:	000b      	movs	r3, r1
 8003a8c:	0f1b      	lsrs	r3, r3, #28
 8003a8e:	0014      	movs	r4, r2
 8003a90:	0126      	lsls	r6, r4, #4
 8003a92:	431e      	orrs	r6, r3
 8003a94:	000b      	movs	r3, r1
 8003a96:	011d      	lsls	r5, r3, #4
 8003a98:	2538      	movs	r5, #56	; 0x38
 8003a9a:	1943      	adds	r3, r0, r5
 8003a9c:	19db      	adds	r3, r3, r7
 8003a9e:	781b      	ldrb	r3, [r3, #0]
 8003aa0:	085b      	lsrs	r3, r3, #1
 8003aa2:	b2db      	uxtb	r3, r3
 8003aa4:	613b      	str	r3, [r7, #16]
 8003aa6:	2300      	movs	r3, #0
 8003aa8:	617b      	str	r3, [r7, #20]
 8003aaa:	6939      	ldr	r1, [r7, #16]
 8003aac:	697a      	ldr	r2, [r7, #20]
 8003aae:	000b      	movs	r3, r1
 8003ab0:	0f1b      	lsrs	r3, r3, #28
 8003ab2:	0014      	movs	r4, r2
 8003ab4:	0124      	lsls	r4, r4, #4
 8003ab6:	637c      	str	r4, [r7, #52]	; 0x34
 8003ab8:	6b7c      	ldr	r4, [r7, #52]	; 0x34
 8003aba:	431c      	orrs	r4, r3
 8003abc:	637c      	str	r4, [r7, #52]	; 0x34
 8003abe:	000b      	movs	r3, r1
 8003ac0:	011b      	lsls	r3, r3, #4
 8003ac2:	633b      	str	r3, [r7, #48]	; 0x30
 8003ac4:	1943      	adds	r3, r0, r5
 8003ac6:	19db      	adds	r3, r3, r7
 8003ac8:	781b      	ldrb	r3, [r3, #0]
 8003aca:	085b      	lsrs	r3, r3, #1
 8003acc:	b2db      	uxtb	r3, r3
 8003ace:	005b      	lsls	r3, r3, #1
 8003ad0:	3307      	adds	r3, #7
 8003ad2:	08db      	lsrs	r3, r3, #3
 8003ad4:	00db      	lsls	r3, r3, #3
 8003ad6:	466a      	mov	r2, sp
 8003ad8:	1ad3      	subs	r3, r2, r3
 8003ada:	469d      	mov	sp, r3
 8003adc:	ab02      	add	r3, sp, #8
 8003ade:	3301      	adds	r3, #1
 8003ae0:	085b      	lsrs	r3, r3, #1
 8003ae2:	005b      	lsls	r3, r3, #1
 8003ae4:	64fb      	str	r3, [r7, #76]	; 0x4c
#endif
    for (uint_fast8_t i = 0; i < byte_count_write / 2; i++) {
 8003ae6:	2300      	movs	r3, #0
 8003ae8:	667b      	str	r3, [r7, #100]	; 0x64
 8003aea:	e00c      	b.n	8003b06 <handle_read_write_registers+0x196>
        registers[i] = get_2(nmbs);
 8003aec:	6bfb      	ldr	r3, [r7, #60]	; 0x3c
 8003aee:	0018      	movs	r0, r3
 8003af0:	f7fc ffd9 	bl	8000aa6 <get_2>
 8003af4:	0003      	movs	r3, r0
 8003af6:	0019      	movs	r1, r3
 8003af8:	6cfb      	ldr	r3, [r7, #76]	; 0x4c
 8003afa:	6e7a      	ldr	r2, [r7, #100]	; 0x64
 8003afc:	0052      	lsls	r2, r2, #1
 8003afe:	52d1      	strh	r1, [r2, r3]
    for (uint_fast8_t i = 0; i < byte_count_write / 2; i++) {
 8003b00:	6e7b      	ldr	r3, [r7, #100]	; 0x64
 8003b02:	3301      	adds	r3, #1
 8003b04:	667b      	str	r3, [r7, #100]	; 0x64
 8003b06:	231d      	movs	r3, #29
 8003b08:	2138      	movs	r1, #56	; 0x38
 8003b0a:	185b      	adds	r3, r3, r1
 8003b0c:	19db      	adds	r3, r3, r7
 8003b0e:	781b      	ldrb	r3, [r3, #0]
 8003b10:	085b      	lsrs	r3, r3, #1
 8003b12:	b2db      	uxtb	r3, r3
 8003b14:	001a      	movs	r2, r3
 8003b16:	6e7b      	ldr	r3, [r7, #100]	; 0x64
 8003b18:	4293      	cmp	r3, r2
 8003b1a:	d3e7      	bcc.n	8003aec <handle_read_write_registers+0x17c>
        NMBS_DEBUG_PRINT("%d ", registers[i]);
    }

    err = recv_msg_footer(nmbs);
 8003b1c:	2527      	movs	r5, #39	; 0x27
 8003b1e:	000e      	movs	r6, r1
 8003b20:	186b      	adds	r3, r5, r1
 8003b22:	19dc      	adds	r4, r3, r7
 8003b24:	6bfb      	ldr	r3, [r7, #60]	; 0x3c
 8003b26:	0018      	movs	r0, r3
 8003b28:	f7fd fa9c 	bl	8001064 <recv_msg_footer>
 8003b2c:	0003      	movs	r3, r0
 8003b2e:	7023      	strb	r3, [r4, #0]
    if (err != NMBS_ERROR_NONE)
 8003b30:	19ab      	adds	r3, r5, r6
 8003b32:	19db      	adds	r3, r3, r7
 8003b34:	781b      	ldrb	r3, [r3, #0]
 8003b36:	b25b      	sxtb	r3, r3
 8003b38:	2b00      	cmp	r3, #0
 8003b3a:	d004      	beq.n	8003b46 <handle_read_write_registers+0x1d6>
        return err;
 8003b3c:	19ab      	adds	r3, r5, r6
 8003b3e:	19db      	adds	r3, r3, r7
 8003b40:	781b      	ldrb	r3, [r3, #0]
 8003b42:	b25b      	sxtb	r3, r3
 8003b44:	e1b5      	b.n	8003eb2 <handle_read_write_registers+0x542>

    if (!nmbs->msg.ignored) {
 8003b46:	6bfa      	ldr	r2, [r7, #60]	; 0x3c
 8003b48:	230c      	movs	r3, #12
 8003b4a:	33ff      	adds	r3, #255	; 0xff
 8003b4c:	5cd3      	ldrb	r3, [r2, r3]
 8003b4e:	2201      	movs	r2, #1
 8003b50:	4053      	eors	r3, r2
 8003b52:	b2db      	uxtb	r3, r3
 8003b54:	2b00      	cmp	r3, #0
 8003b56:	d100      	bne.n	8003b5a <handle_read_write_registers+0x1ea>
 8003b58:	e19b      	b.n	8003e92 <handle_read_write_registers+0x522>
        if (read_quantity < 1 || read_quantity > 0x007D)
 8003b5a:	2222      	movs	r2, #34	; 0x22
 8003b5c:	2138      	movs	r1, #56	; 0x38
 8003b5e:	1853      	adds	r3, r2, r1
 8003b60:	19db      	adds	r3, r3, r7
 8003b62:	881b      	ldrh	r3, [r3, #0]
 8003b64:	2b00      	cmp	r3, #0
 8003b66:	d004      	beq.n	8003b72 <handle_read_write_registers+0x202>
 8003b68:	1853      	adds	r3, r2, r1
 8003b6a:	19db      	adds	r3, r3, r7
 8003b6c:	881b      	ldrh	r3, [r3, #0]
 8003b6e:	2b7d      	cmp	r3, #125	; 0x7d
 8003b70:	d906      	bls.n	8003b80 <handle_read_write_registers+0x210>
            return send_exception_msg(nmbs, NMBS_EXCEPTION_ILLEGAL_DATA_VALUE);
 8003b72:	6bfb      	ldr	r3, [r7, #60]	; 0x3c
 8003b74:	2103      	movs	r1, #3
 8003b76:	0018      	movs	r0, r3
 8003b78:	f7fd fcb3 	bl	80014e2 <send_exception_msg>
 8003b7c:	0003      	movs	r3, r0
 8003b7e:	e198      	b.n	8003eb2 <handle_read_write_registers+0x542>

        if (write_quantity < 1 || write_quantity > 0x007B)
 8003b80:	221e      	movs	r2, #30
 8003b82:	2138      	movs	r1, #56	; 0x38
 8003b84:	1853      	adds	r3, r2, r1
 8003b86:	19db      	adds	r3, r3, r7
 8003b88:	881b      	ldrh	r3, [r3, #0]
 8003b8a:	2b00      	cmp	r3, #0
 8003b8c:	d004      	beq.n	8003b98 <handle_read_write_registers+0x228>
 8003b8e:	1853      	adds	r3, r2, r1
 8003b90:	19db      	adds	r3, r3, r7
 8003b92:	881b      	ldrh	r3, [r3, #0]
 8003b94:	2b7b      	cmp	r3, #123	; 0x7b
 8003b96:	d906      	bls.n	8003ba6 <handle_read_write_registers+0x236>
            return send_exception_msg(nmbs, NMBS_EXCEPTION_ILLEGAL_DATA_VALUE);
 8003b98:	6bfb      	ldr	r3, [r7, #60]	; 0x3c
 8003b9a:	2103      	movs	r1, #3
 8003b9c:	0018      	movs	r0, r3
 8003b9e:	f7fd fca0 	bl	80014e2 <send_exception_msg>
 8003ba2:	0003      	movs	r3, r0
 8003ba4:	e185      	b.n	8003eb2 <handle_read_write_registers+0x542>

        if (byte_count_write != write_quantity * 2)
 8003ba6:	231d      	movs	r3, #29
 8003ba8:	2138      	movs	r1, #56	; 0x38
 8003baa:	185b      	adds	r3, r3, r1
 8003bac:	19db      	adds	r3, r3, r7
 8003bae:	781a      	ldrb	r2, [r3, #0]
 8003bb0:	231e      	movs	r3, #30
 8003bb2:	185b      	adds	r3, r3, r1
 8003bb4:	19db      	adds	r3, r3, r7
 8003bb6:	881b      	ldrh	r3, [r3, #0]
 8003bb8:	005b      	lsls	r3, r3, #1
 8003bba:	429a      	cmp	r2, r3
 8003bbc:	d006      	beq.n	8003bcc <handle_read_write_registers+0x25c>
            return send_exception_msg(nmbs, NMBS_EXCEPTION_ILLEGAL_DATA_VALUE);
 8003bbe:	6bfb      	ldr	r3, [r7, #60]	; 0x3c
 8003bc0:	2103      	movs	r1, #3
 8003bc2:	0018      	movs	r0, r3
 8003bc4:	f7fd fc8d 	bl	80014e2 <send_exception_msg>
 8003bc8:	0003      	movs	r3, r0
 8003bca:	e172      	b.n	8003eb2 <handle_read_write_registers+0x542>

        if ((uint32_t) read_address + (uint32_t) read_quantity > ((uint32_t) 0xFFFF) + 1)
 8003bcc:	2324      	movs	r3, #36	; 0x24
 8003bce:	2138      	movs	r1, #56	; 0x38
 8003bd0:	185b      	adds	r3, r3, r1
 8003bd2:	19db      	adds	r3, r3, r7
 8003bd4:	881a      	ldrh	r2, [r3, #0]
 8003bd6:	2322      	movs	r3, #34	; 0x22
 8003bd8:	185b      	adds	r3, r3, r1
 8003bda:	19db      	adds	r3, r3, r7
 8003bdc:	881b      	ldrh	r3, [r3, #0]
 8003bde:	18d2      	adds	r2, r2, r3
 8003be0:	2380      	movs	r3, #128	; 0x80
 8003be2:	025b      	lsls	r3, r3, #9
 8003be4:	429a      	cmp	r2, r3
 8003be6:	d906      	bls.n	8003bf6 <handle_read_write_registers+0x286>
            return send_exception_msg(nmbs, NMBS_EXCEPTION_ILLEGAL_DATA_ADDRESS);
 8003be8:	6bfb      	ldr	r3, [r7, #60]	; 0x3c
 8003bea:	2102      	movs	r1, #2
 8003bec:	0018      	movs	r0, r3
 8003bee:	f7fd fc78 	bl	80014e2 <send_exception_msg>
 8003bf2:	0003      	movs	r3, r0
 8003bf4:	e15d      	b.n	8003eb2 <handle_read_write_registers+0x542>

        if ((uint32_t) write_address + (uint32_t) write_quantity > ((uint32_t) 0xFFFF) + 1)
 8003bf6:	2320      	movs	r3, #32
 8003bf8:	2138      	movs	r1, #56	; 0x38
 8003bfa:	185b      	adds	r3, r3, r1
 8003bfc:	19db      	adds	r3, r3, r7
 8003bfe:	881a      	ldrh	r2, [r3, #0]
 8003c00:	231e      	movs	r3, #30
 8003c02:	185b      	adds	r3, r3, r1
 8003c04:	19db      	adds	r3, r3, r7
 8003c06:	881b      	ldrh	r3, [r3, #0]
 8003c08:	18d2      	adds	r2, r2, r3
 8003c0a:	2380      	movs	r3, #128	; 0x80
 8003c0c:	025b      	lsls	r3, r3, #9
 8003c0e:	429a      	cmp	r2, r3
 8003c10:	d906      	bls.n	8003c20 <handle_read_write_registers+0x2b0>
            return send_exception_msg(nmbs, NMBS_EXCEPTION_ILLEGAL_DATA_ADDRESS);
 8003c12:	6bfb      	ldr	r3, [r7, #60]	; 0x3c
 8003c14:	2102      	movs	r1, #2
 8003c16:	0018      	movs	r0, r3
 8003c18:	f7fd fc63 	bl	80014e2 <send_exception_msg>
 8003c1c:	0003      	movs	r3, r0
 8003c1e:	e148      	b.n	8003eb2 <handle_read_write_registers+0x542>

        if (!nmbs->callbacks.write_multiple_registers || !nmbs->callbacks.read_holding_registers)
 8003c20:	6bfa      	ldr	r2, [r7, #60]	; 0x3c
 8003c22:	2396      	movs	r3, #150	; 0x96
 8003c24:	005b      	lsls	r3, r3, #1
 8003c26:	58d3      	ldr	r3, [r2, r3]
 8003c28:	2b00      	cmp	r3, #0
 8003c2a:	d005      	beq.n	8003c38 <handle_read_write_registers+0x2c8>
 8003c2c:	6bfa      	ldr	r2, [r7, #60]	; 0x3c
 8003c2e:	238c      	movs	r3, #140	; 0x8c
 8003c30:	005b      	lsls	r3, r3, #1
 8003c32:	58d3      	ldr	r3, [r2, r3]
 8003c34:	2b00      	cmp	r3, #0
 8003c36:	d106      	bne.n	8003c46 <handle_read_write_registers+0x2d6>
            return send_exception_msg(nmbs, NMBS_EXCEPTION_ILLEGAL_FUNCTION);
 8003c38:	6bfb      	ldr	r3, [r7, #60]	; 0x3c
 8003c3a:	2101      	movs	r1, #1
 8003c3c:	0018      	movs	r0, r3
 8003c3e:	f7fd fc50 	bl	80014e2 <send_exception_msg>
 8003c42:	0003      	movs	r3, r0
 8003c44:	e135      	b.n	8003eb2 <handle_read_write_registers+0x542>

        err = nmbs->callbacks.write_multiple_registers(write_address, write_quantity, registers, nmbs->msg.unit_id,
 8003c46:	6bfa      	ldr	r2, [r7, #60]	; 0x3c
 8003c48:	2396      	movs	r3, #150	; 0x96
 8003c4a:	005b      	lsls	r3, r3, #1
 8003c4c:	58d3      	ldr	r3, [r2, r3]
 8003c4e:	4698      	mov	r8, r3
 8003c50:	6bfa      	ldr	r2, [r7, #60]	; 0x3c
 8003c52:	2383      	movs	r3, #131	; 0x83
 8003c54:	005b      	lsls	r3, r3, #1
 8003c56:	5cd5      	ldrb	r5, [r2, r3]
 8003c58:	6bfa      	ldr	r2, [r7, #60]	; 0x3c
 8003c5a:	23a0      	movs	r3, #160	; 0xa0
 8003c5c:	005b      	lsls	r3, r3, #1
 8003c5e:	58d2      	ldr	r2, [r2, r3]
 8003c60:	2327      	movs	r3, #39	; 0x27
 8003c62:	2038      	movs	r0, #56	; 0x38
 8003c64:	181b      	adds	r3, r3, r0
 8003c66:	19de      	adds	r6, r3, r7
 8003c68:	6cfc      	ldr	r4, [r7, #76]	; 0x4c
 8003c6a:	211e      	movs	r1, #30
 8003c6c:	1809      	adds	r1, r1, r0
 8003c6e:	19cb      	adds	r3, r1, r7
 8003c70:	8819      	ldrh	r1, [r3, #0]
 8003c72:	2020      	movs	r0, #32
 8003c74:	2338      	movs	r3, #56	; 0x38
 8003c76:	18c0      	adds	r0, r0, r3
 8003c78:	19c3      	adds	r3, r0, r7
 8003c7a:	8818      	ldrh	r0, [r3, #0]
 8003c7c:	9200      	str	r2, [sp, #0]
 8003c7e:	002b      	movs	r3, r5
 8003c80:	0022      	movs	r2, r4
 8003c82:	47c0      	blx	r8
 8003c84:	0003      	movs	r3, r0
 8003c86:	7033      	strb	r3, [r6, #0]
                                                       nmbs->callbacks.arg);
        if (err != NMBS_ERROR_NONE) {
 8003c88:	2227      	movs	r2, #39	; 0x27
 8003c8a:	2138      	movs	r1, #56	; 0x38
 8003c8c:	1853      	adds	r3, r2, r1
 8003c8e:	19db      	adds	r3, r3, r7
 8003c90:	781b      	ldrb	r3, [r3, #0]
 8003c92:	b25b      	sxtb	r3, r3
 8003c94:	2b00      	cmp	r3, #0
 8003c96:	d01c      	beq.n	8003cd2 <handle_read_write_registers+0x362>
            if (nmbs_error_is_exception(err))
 8003c98:	1853      	adds	r3, r2, r1
 8003c9a:	19db      	adds	r3, r3, r7
 8003c9c:	781b      	ldrb	r3, [r3, #0]
 8003c9e:	b25b      	sxtb	r3, r3
 8003ca0:	2b00      	cmp	r3, #0
 8003ca2:	dd0f      	ble.n	8003cc4 <handle_read_write_registers+0x354>
 8003ca4:	1853      	adds	r3, r2, r1
 8003ca6:	19db      	adds	r3, r3, r7
 8003ca8:	781b      	ldrb	r3, [r3, #0]
 8003caa:	b25b      	sxtb	r3, r3
 8003cac:	2b04      	cmp	r3, #4
 8003cae:	dc09      	bgt.n	8003cc4 <handle_read_write_registers+0x354>
                return send_exception_msg(nmbs, err);
 8003cb0:	1853      	adds	r3, r2, r1
 8003cb2:	19db      	adds	r3, r3, r7
 8003cb4:	781a      	ldrb	r2, [r3, #0]
 8003cb6:	6bfb      	ldr	r3, [r7, #60]	; 0x3c
 8003cb8:	0011      	movs	r1, r2
 8003cba:	0018      	movs	r0, r3
 8003cbc:	f7fd fc11 	bl	80014e2 <send_exception_msg>
 8003cc0:	0003      	movs	r3, r0
 8003cc2:	e0f6      	b.n	8003eb2 <handle_read_write_registers+0x542>

            return send_exception_msg(nmbs, NMBS_EXCEPTION_SERVER_DEVICE_FAILURE);
 8003cc4:	6bfb      	ldr	r3, [r7, #60]	; 0x3c
 8003cc6:	2104      	movs	r1, #4
 8003cc8:	0018      	movs	r0, r3
 8003cca:	f7fd fc0a 	bl	80014e2 <send_exception_msg>
 8003cce:	0003      	movs	r3, r0
 8003cd0:	e0ef      	b.n	8003eb2 <handle_read_write_registers+0x542>
        }

        if (!nmbs->msg.broadcast) {
 8003cd2:	6bfa      	ldr	r2, [r7, #60]	; 0x3c
 8003cd4:	2385      	movs	r3, #133	; 0x85
 8003cd6:	005b      	lsls	r3, r3, #1
 8003cd8:	5cd3      	ldrb	r3, [r2, r3]
 8003cda:	2201      	movs	r2, #1
 8003cdc:	4053      	eors	r3, r2
 8003cde:	b2db      	uxtb	r3, r3
 8003ce0:	2b00      	cmp	r3, #0
 8003ce2:	d100      	bne.n	8003ce6 <handle_read_write_registers+0x376>
 8003ce4:	e0e4      	b.n	8003eb0 <handle_read_write_registers+0x540>
 8003ce6:	466b      	mov	r3, sp
 8003ce8:	001c      	movs	r4, r3
#if defined(__STDC_NO_VLA__) || defined(_MSC_VER)
            uint16_t regs[125];
#else
            uint16_t regs[read_quantity];
 8003cea:	2022      	movs	r0, #34	; 0x22
 8003cec:	2638      	movs	r6, #56	; 0x38
 8003cee:	1983      	adds	r3, r0, r6
 8003cf0:	19db      	adds	r3, r3, r7
 8003cf2:	881b      	ldrh	r3, [r3, #0]
 8003cf4:	3b01      	subs	r3, #1
 8003cf6:	64bb      	str	r3, [r7, #72]	; 0x48
 8003cf8:	1983      	adds	r3, r0, r6
 8003cfa:	19db      	adds	r3, r3, r7
 8003cfc:	881b      	ldrh	r3, [r3, #0]
 8003cfe:	b29b      	uxth	r3, r3
 8003d00:	60bb      	str	r3, [r7, #8]
 8003d02:	2300      	movs	r3, #0
 8003d04:	60fb      	str	r3, [r7, #12]
 8003d06:	68b9      	ldr	r1, [r7, #8]
 8003d08:	68fa      	ldr	r2, [r7, #12]
 8003d0a:	000b      	movs	r3, r1
 8003d0c:	0f1b      	lsrs	r3, r3, #28
 8003d0e:	0015      	movs	r5, r2
 8003d10:	012d      	lsls	r5, r5, #4
 8003d12:	62fd      	str	r5, [r7, #44]	; 0x2c
 8003d14:	6afd      	ldr	r5, [r7, #44]	; 0x2c
 8003d16:	431d      	orrs	r5, r3
 8003d18:	62fd      	str	r5, [r7, #44]	; 0x2c
 8003d1a:	000b      	movs	r3, r1
 8003d1c:	011b      	lsls	r3, r3, #4
 8003d1e:	62bb      	str	r3, [r7, #40]	; 0x28
 8003d20:	1983      	adds	r3, r0, r6
 8003d22:	19db      	adds	r3, r3, r7
 8003d24:	881b      	ldrh	r3, [r3, #0]
 8003d26:	b29b      	uxth	r3, r3
 8003d28:	603b      	str	r3, [r7, #0]
 8003d2a:	2300      	movs	r3, #0
 8003d2c:	607b      	str	r3, [r7, #4]
 8003d2e:	6839      	ldr	r1, [r7, #0]
 8003d30:	687a      	ldr	r2, [r7, #4]
 8003d32:	000b      	movs	r3, r1
 8003d34:	0f1b      	lsrs	r3, r3, #28
 8003d36:	0015      	movs	r5, r2
 8003d38:	012d      	lsls	r5, r5, #4
 8003d3a:	627d      	str	r5, [r7, #36]	; 0x24
 8003d3c:	6a7d      	ldr	r5, [r7, #36]	; 0x24
 8003d3e:	431d      	orrs	r5, r3
 8003d40:	627d      	str	r5, [r7, #36]	; 0x24
 8003d42:	000b      	movs	r3, r1
 8003d44:	011b      	lsls	r3, r3, #4
 8003d46:	623b      	str	r3, [r7, #32]
 8003d48:	0001      	movs	r1, r0
 8003d4a:	0030      	movs	r0, r6
 8003d4c:	180b      	adds	r3, r1, r0
 8003d4e:	19db      	adds	r3, r3, r7
 8003d50:	881b      	ldrh	r3, [r3, #0]
 8003d52:	005b      	lsls	r3, r3, #1
 8003d54:	3307      	adds	r3, #7
 8003d56:	08db      	lsrs	r3, r3, #3
 8003d58:	00db      	lsls	r3, r3, #3
 8003d5a:	466a      	mov	r2, sp
 8003d5c:	1ad3      	subs	r3, r2, r3
 8003d5e:	469d      	mov	sp, r3
 8003d60:	ab02      	add	r3, sp, #8
 8003d62:	3301      	adds	r3, #1
 8003d64:	085b      	lsrs	r3, r3, #1
 8003d66:	005b      	lsls	r3, r3, #1
 8003d68:	647b      	str	r3, [r7, #68]	; 0x44
#endif
            err = nmbs->callbacks.read_holding_registers(read_address, read_quantity, regs, nmbs->msg.unit_id,
 8003d6a:	6bfa      	ldr	r2, [r7, #60]	; 0x3c
 8003d6c:	238c      	movs	r3, #140	; 0x8c
 8003d6e:	005b      	lsls	r3, r3, #1
 8003d70:	58d6      	ldr	r6, [r2, r3]
 8003d72:	6bfa      	ldr	r2, [r7, #60]	; 0x3c
 8003d74:	2383      	movs	r3, #131	; 0x83
 8003d76:	005b      	lsls	r3, r3, #1
 8003d78:	5cd3      	ldrb	r3, [r2, r3]
 8003d7a:	4698      	mov	r8, r3
 8003d7c:	6bfa      	ldr	r2, [r7, #60]	; 0x3c
 8003d7e:	23a0      	movs	r3, #160	; 0xa0
 8003d80:	005b      	lsls	r3, r3, #1
 8003d82:	58d3      	ldr	r3, [r2, r3]
 8003d84:	2227      	movs	r2, #39	; 0x27
 8003d86:	1815      	adds	r5, r2, r0
 8003d88:	19ed      	adds	r5, r5, r7
 8003d8a:	6c78      	ldr	r0, [r7, #68]	; 0x44
 8003d8c:	4684      	mov	ip, r0
 8003d8e:	2238      	movs	r2, #56	; 0x38
 8003d90:	1888      	adds	r0, r1, r2
 8003d92:	19c2      	adds	r2, r0, r7
 8003d94:	8811      	ldrh	r1, [r2, #0]
 8003d96:	2024      	movs	r0, #36	; 0x24
 8003d98:	2238      	movs	r2, #56	; 0x38
 8003d9a:	1880      	adds	r0, r0, r2
 8003d9c:	19c2      	adds	r2, r0, r7
 8003d9e:	8810      	ldrh	r0, [r2, #0]
 8003da0:	9300      	str	r3, [sp, #0]
 8003da2:	4643      	mov	r3, r8
 8003da4:	4662      	mov	r2, ip
 8003da6:	47b0      	blx	r6
 8003da8:	0003      	movs	r3, r0
 8003daa:	702b      	strb	r3, [r5, #0]
                                                         nmbs->callbacks.arg);
            if (err != NMBS_ERROR_NONE) {
 8003dac:	2227      	movs	r2, #39	; 0x27
 8003dae:	2138      	movs	r1, #56	; 0x38
 8003db0:	1853      	adds	r3, r2, r1
 8003db2:	19db      	adds	r3, r3, r7
 8003db4:	781b      	ldrb	r3, [r3, #0]
 8003db6:	b25b      	sxtb	r3, r3
 8003db8:	2b00      	cmp	r3, #0
 8003dba:	d01c      	beq.n	8003df6 <handle_read_write_registers+0x486>
                if (nmbs_error_is_exception(err))
 8003dbc:	1853      	adds	r3, r2, r1
 8003dbe:	19db      	adds	r3, r3, r7
 8003dc0:	781b      	ldrb	r3, [r3, #0]
 8003dc2:	b25b      	sxtb	r3, r3
 8003dc4:	2b00      	cmp	r3, #0
 8003dc6:	dd0f      	ble.n	8003de8 <handle_read_write_registers+0x478>
 8003dc8:	1853      	adds	r3, r2, r1
 8003dca:	19db      	adds	r3, r3, r7
 8003dcc:	781b      	ldrb	r3, [r3, #0]
 8003dce:	b25b      	sxtb	r3, r3
 8003dd0:	2b04      	cmp	r3, #4
 8003dd2:	dc09      	bgt.n	8003de8 <handle_read_write_registers+0x478>
                    return send_exception_msg(nmbs, err);
 8003dd4:	1853      	adds	r3, r2, r1
 8003dd6:	19db      	adds	r3, r3, r7
 8003dd8:	781a      	ldrb	r2, [r3, #0]
 8003dda:	6bfb      	ldr	r3, [r7, #60]	; 0x3c
 8003ddc:	0011      	movs	r1, r2
 8003dde:	0018      	movs	r0, r3
 8003de0:	f7fd fb7f 	bl	80014e2 <send_exception_msg>
 8003de4:	0003      	movs	r3, r0
 8003de6:	e052      	b.n	8003e8e <handle_read_write_registers+0x51e>

                return send_exception_msg(nmbs, NMBS_EXCEPTION_SERVER_DEVICE_FAILURE);
 8003de8:	6bfb      	ldr	r3, [r7, #60]	; 0x3c
 8003dea:	2104      	movs	r1, #4
 8003dec:	0018      	movs	r0, r3
 8003dee:	f7fd fb78 	bl	80014e2 <send_exception_msg>
 8003df2:	0003      	movs	r3, r0
 8003df4:	e04b      	b.n	8003e8e <handle_read_write_registers+0x51e>
            }

            const uint8_t regs_bytes = read_quantity * 2;
 8003df6:	2322      	movs	r3, #34	; 0x22
 8003df8:	2638      	movs	r6, #56	; 0x38
 8003dfa:	199b      	adds	r3, r3, r6
 8003dfc:	19db      	adds	r3, r3, r7
 8003dfe:	881b      	ldrh	r3, [r3, #0]
 8003e00:	b2db      	uxtb	r3, r3
 8003e02:	250b      	movs	r5, #11
 8003e04:	19aa      	adds	r2, r5, r6
 8003e06:	19d2      	adds	r2, r2, r7
 8003e08:	18db      	adds	r3, r3, r3
 8003e0a:	7013      	strb	r3, [r2, #0]
            put_res_header(nmbs, 1 + regs_bytes);
 8003e0c:	19ab      	adds	r3, r5, r6
 8003e0e:	19db      	adds	r3, r3, r7
 8003e10:	781b      	ldrb	r3, [r3, #0]
 8003e12:	b29b      	uxth	r3, r3
 8003e14:	3301      	adds	r3, #1
 8003e16:	b29a      	uxth	r2, r3
 8003e18:	6bfb      	ldr	r3, [r7, #60]	; 0x3c
 8003e1a:	0011      	movs	r1, r2
 8003e1c:	0018      	movs	r0, r3
 8003e1e:	f7fd fb4e 	bl	80014be <put_res_header>

            put_1(nmbs, regs_bytes);
 8003e22:	19ab      	adds	r3, r5, r6
 8003e24:	19db      	adds	r3, r3, r7
 8003e26:	781a      	ldrb	r2, [r3, #0]
 8003e28:	6bfb      	ldr	r3, [r7, #60]	; 0x3c
 8003e2a:	0011      	movs	r1, r2
 8003e2c:	0018      	movs	r0, r3
 8003e2e:	f7fc fdf3 	bl	8000a18 <put_1>

            NMBS_DEBUG_PRINT("b %d\t", regs_bytes);

            NMBS_DEBUG_PRINT("regs ");
            for (uint_fast16_t i = 0; i < read_quantity; i++) {
 8003e32:	2300      	movs	r3, #0
 8003e34:	663b      	str	r3, [r7, #96]	; 0x60
 8003e36:	e00b      	b.n	8003e50 <handle_read_write_registers+0x4e0>
                put_2(nmbs, regs[i]);
 8003e38:	6c7b      	ldr	r3, [r7, #68]	; 0x44
 8003e3a:	6e3a      	ldr	r2, [r7, #96]	; 0x60
 8003e3c:	0052      	lsls	r2, r2, #1
 8003e3e:	5ad2      	ldrh	r2, [r2, r3]
 8003e40:	6bfb      	ldr	r3, [r7, #60]	; 0x3c
 8003e42:	0011      	movs	r1, r2
 8003e44:	0018      	movs	r0, r3
 8003e46:	f7fc fe58 	bl	8000afa <put_2>
            for (uint_fast16_t i = 0; i < read_quantity; i++) {
 8003e4a:	6e3b      	ldr	r3, [r7, #96]	; 0x60
 8003e4c:	3301      	adds	r3, #1
 8003e4e:	663b      	str	r3, [r7, #96]	; 0x60
 8003e50:	2322      	movs	r3, #34	; 0x22
 8003e52:	2138      	movs	r1, #56	; 0x38
 8003e54:	185b      	adds	r3, r3, r1
 8003e56:	19db      	adds	r3, r3, r7
 8003e58:	881b      	ldrh	r3, [r3, #0]
 8003e5a:	6e3a      	ldr	r2, [r7, #96]	; 0x60
 8003e5c:	429a      	cmp	r2, r3
 8003e5e:	d3eb      	bcc.n	8003e38 <handle_read_write_registers+0x4c8>
                NMBS_DEBUG_PRINT("%d ", regs[i]);
            }

            err = send_msg(nmbs);
 8003e60:	2627      	movs	r6, #39	; 0x27
 8003e62:	1873      	adds	r3, r6, r1
 8003e64:	19dd      	adds	r5, r3, r7
 8003e66:	6bfb      	ldr	r3, [r7, #60]	; 0x3c
 8003e68:	0018      	movs	r0, r3
 8003e6a:	f7fd faaa 	bl	80013c2 <send_msg>
 8003e6e:	0003      	movs	r3, r0
 8003e70:	702b      	strb	r3, [r5, #0]
            if (err != NMBS_ERROR_NONE)
 8003e72:	2238      	movs	r2, #56	; 0x38
 8003e74:	18b3      	adds	r3, r6, r2
 8003e76:	19db      	adds	r3, r3, r7
 8003e78:	781b      	ldrb	r3, [r3, #0]
 8003e7a:	b25b      	sxtb	r3, r3
 8003e7c:	2b00      	cmp	r3, #0
 8003e7e:	d004      	beq.n	8003e8a <handle_read_write_registers+0x51a>
                return err;
 8003e80:	18b3      	adds	r3, r6, r2
 8003e82:	19db      	adds	r3, r3, r7
 8003e84:	781b      	ldrb	r3, [r3, #0]
 8003e86:	b25b      	sxtb	r3, r3
 8003e88:	e001      	b.n	8003e8e <handle_read_write_registers+0x51e>
 8003e8a:	46a5      	mov	sp, r4
 8003e8c:	e010      	b.n	8003eb0 <handle_read_write_registers+0x540>
                    return send_exception_msg(nmbs, err);
 8003e8e:	46a5      	mov	sp, r4
 8003e90:	e00f      	b.n	8003eb2 <handle_read_write_registers+0x542>
        }
    }
    else {
        return recv_write_multiple_registers_res(nmbs, write_address, write_quantity);
 8003e92:	231e      	movs	r3, #30
 8003e94:	2138      	movs	r1, #56	; 0x38
 8003e96:	185b      	adds	r3, r3, r1
 8003e98:	19db      	adds	r3, r3, r7
 8003e9a:	881a      	ldrh	r2, [r3, #0]
 8003e9c:	2320      	movs	r3, #32
 8003e9e:	185b      	adds	r3, r3, r1
 8003ea0:	19db      	adds	r3, r3, r7
 8003ea2:	8819      	ldrh	r1, [r3, #0]
 8003ea4:	6bfb      	ldr	r3, [r7, #60]	; 0x3c
 8003ea6:	0018      	movs	r0, r3
 8003ea8:	f7fd fe3f 	bl	8001b2a <recv_write_multiple_registers_res>
 8003eac:	0003      	movs	r3, r0
 8003eae:	e000      	b.n	8003eb2 <handle_read_write_registers+0x542>
    }

    return NMBS_ERROR_NONE;
 8003eb0:	2300      	movs	r3, #0
 8003eb2:	46cd      	mov	sp, r9
}
 8003eb4:	0018      	movs	r0, r3
 8003eb6:	46bd      	mov	sp, r7
 8003eb8:	b01b      	add	sp, #108	; 0x6c
 8003eba:	bcc0      	pop	{r6, r7}
 8003ebc:	46b9      	mov	r9, r7
 8003ebe:	46b0      	mov	r8, r6
 8003ec0:	bdf0      	pop	{r4, r5, r6, r7, pc}

08003ec2 <handle_read_device_identification>:
#endif

#ifndef NMBS_SERVER_READ_DEVICE_IDENTIFICATION_DISABLED
static nmbs_error handle_read_device_identification(nmbs_t* nmbs) {
 8003ec2:	b5f0      	push	{r4, r5, r6, r7, lr}
 8003ec4:	b0b5      	sub	sp, #212	; 0xd4
 8003ec6:	af04      	add	r7, sp, #16
 8003ec8:	6078      	str	r0, [r7, #4]
    nmbs_error err = recv(nmbs, 3);
 8003eca:	25b5      	movs	r5, #181	; 0xb5
 8003ecc:	197c      	adds	r4, r7, r5
 8003ece:	687b      	ldr	r3, [r7, #4]
 8003ed0:	2103      	movs	r1, #3
 8003ed2:	0018      	movs	r0, r3
 8003ed4:	f7fc ff28 	bl	8000d28 <recv>
 8003ed8:	0003      	movs	r3, r0
 8003eda:	7023      	strb	r3, [r4, #0]
    if (err != NMBS_ERROR_NONE)
 8003edc:	197b      	adds	r3, r7, r5
 8003ede:	781b      	ldrb	r3, [r3, #0]
 8003ee0:	b25b      	sxtb	r3, r3
 8003ee2:	2b00      	cmp	r3, #0
 8003ee4:	d003      	beq.n	8003eee <handle_read_device_identification+0x2c>
        return err;
 8003ee6:	197b      	adds	r3, r7, r5
 8003ee8:	781b      	ldrb	r3, [r3, #0]
 8003eea:	b25b      	sxtb	r3, r3
 8003eec:	e2cc      	b.n	8004488 <handle_read_device_identification+0x5c6>

    const uint8_t mei_type = get_1(nmbs);
 8003eee:	23b4      	movs	r3, #180	; 0xb4
 8003ef0:	18fc      	adds	r4, r7, r3
 8003ef2:	687b      	ldr	r3, [r7, #4]
 8003ef4:	0018      	movs	r0, r3
 8003ef6:	f7fc fd71 	bl	80009dc <get_1>
 8003efa:	0003      	movs	r3, r0
 8003efc:	7023      	strb	r3, [r4, #0]
    const uint8_t read_device_id_code = get_1(nmbs);
 8003efe:	23b3      	movs	r3, #179	; 0xb3
 8003f00:	18fc      	adds	r4, r7, r3
 8003f02:	687b      	ldr	r3, [r7, #4]
 8003f04:	0018      	movs	r0, r3
 8003f06:	f7fc fd69 	bl	80009dc <get_1>
 8003f0a:	0003      	movs	r3, r0
 8003f0c:	7023      	strb	r3, [r4, #0]
    const uint8_t object_id = get_1(nmbs);
 8003f0e:	23b2      	movs	r3, #178	; 0xb2
 8003f10:	18fc      	adds	r4, r7, r3
 8003f12:	687b      	ldr	r3, [r7, #4]
 8003f14:	0018      	movs	r0, r3
 8003f16:	f7fc fd61 	bl	80009dc <get_1>
 8003f1a:	0003      	movs	r3, r0
 8003f1c:	7023      	strb	r3, [r4, #0]

    NMBS_DEBUG_PRINT("c %d\to %d", read_device_id_code, object_id);

    err = recv_msg_footer(nmbs);
 8003f1e:	25b5      	movs	r5, #181	; 0xb5
 8003f20:	197c      	adds	r4, r7, r5
 8003f22:	687b      	ldr	r3, [r7, #4]
 8003f24:	0018      	movs	r0, r3
 8003f26:	f7fd f89d 	bl	8001064 <recv_msg_footer>
 8003f2a:	0003      	movs	r3, r0
 8003f2c:	7023      	strb	r3, [r4, #0]
    if (err != NMBS_ERROR_NONE)
 8003f2e:	197b      	adds	r3, r7, r5
 8003f30:	781b      	ldrb	r3, [r3, #0]
 8003f32:	b25b      	sxtb	r3, r3
 8003f34:	2b00      	cmp	r3, #0
 8003f36:	d003      	beq.n	8003f40 <handle_read_device_identification+0x7e>
        return err;
 8003f38:	197b      	adds	r3, r7, r5
 8003f3a:	781b      	ldrb	r3, [r3, #0]
 8003f3c:	b25b      	sxtb	r3, r3
 8003f3e:	e2a3      	b.n	8004488 <handle_read_device_identification+0x5c6>

    if (!nmbs->msg.ignored) {
 8003f40:	687a      	ldr	r2, [r7, #4]
 8003f42:	230c      	movs	r3, #12
 8003f44:	33ff      	adds	r3, #255	; 0xff
 8003f46:	5cd3      	ldrb	r3, [r2, r3]
 8003f48:	2201      	movs	r2, #1
 8003f4a:	4053      	eors	r3, r2
 8003f4c:	b2db      	uxtb	r3, r3
 8003f4e:	2b00      	cmp	r3, #0
 8003f50:	d100      	bne.n	8003f54 <handle_read_device_identification+0x92>
 8003f52:	e288      	b.n	8004466 <handle_read_device_identification+0x5a4>
        if (!nmbs->callbacks.read_device_identification_map || !nmbs->callbacks.read_device_identification)
 8003f54:	687a      	ldr	r2, [r7, #4]
 8003f56:	239e      	movs	r3, #158	; 0x9e
 8003f58:	005b      	lsls	r3, r3, #1
 8003f5a:	58d3      	ldr	r3, [r2, r3]
 8003f5c:	2b00      	cmp	r3, #0
 8003f5e:	d005      	beq.n	8003f6c <handle_read_device_identification+0xaa>
 8003f60:	687a      	ldr	r2, [r7, #4]
 8003f62:	239c      	movs	r3, #156	; 0x9c
 8003f64:	005b      	lsls	r3, r3, #1
 8003f66:	58d3      	ldr	r3, [r2, r3]
 8003f68:	2b00      	cmp	r3, #0
 8003f6a:	d106      	bne.n	8003f7a <handle_read_device_identification+0xb8>
            return send_exception_msg(nmbs, NMBS_EXCEPTION_ILLEGAL_FUNCTION);
 8003f6c:	687b      	ldr	r3, [r7, #4]
 8003f6e:	2101      	movs	r1, #1
 8003f70:	0018      	movs	r0, r3
 8003f72:	f7fd fab6 	bl	80014e2 <send_exception_msg>
 8003f76:	0003      	movs	r3, r0
 8003f78:	e286      	b.n	8004488 <handle_read_device_identification+0x5c6>

        if (mei_type != 0x0E)
 8003f7a:	23b4      	movs	r3, #180	; 0xb4
 8003f7c:	18fb      	adds	r3, r7, r3
 8003f7e:	781b      	ldrb	r3, [r3, #0]
 8003f80:	2b0e      	cmp	r3, #14
 8003f82:	d006      	beq.n	8003f92 <handle_read_device_identification+0xd0>
            return send_exception_msg(nmbs, NMBS_EXCEPTION_ILLEGAL_FUNCTION);
 8003f84:	687b      	ldr	r3, [r7, #4]
 8003f86:	2101      	movs	r1, #1
 8003f88:	0018      	movs	r0, r3
 8003f8a:	f7fd faaa 	bl	80014e2 <send_exception_msg>
 8003f8e:	0003      	movs	r3, r0
 8003f90:	e27a      	b.n	8004488 <handle_read_device_identification+0x5c6>

        if (read_device_id_code < 1 || read_device_id_code > 4)
 8003f92:	22b3      	movs	r2, #179	; 0xb3
 8003f94:	18bb      	adds	r3, r7, r2
 8003f96:	781b      	ldrb	r3, [r3, #0]
 8003f98:	2b00      	cmp	r3, #0
 8003f9a:	d003      	beq.n	8003fa4 <handle_read_device_identification+0xe2>
 8003f9c:	18bb      	adds	r3, r7, r2
 8003f9e:	781b      	ldrb	r3, [r3, #0]
 8003fa0:	2b04      	cmp	r3, #4
 8003fa2:	d906      	bls.n	8003fb2 <handle_read_device_identification+0xf0>
            return send_exception_msg(nmbs, NMBS_EXCEPTION_ILLEGAL_DATA_VALUE);
 8003fa4:	687b      	ldr	r3, [r7, #4]
 8003fa6:	2103      	movs	r1, #3
 8003fa8:	0018      	movs	r0, r3
 8003faa:	f7fd fa9a 	bl	80014e2 <send_exception_msg>
 8003fae:	0003      	movs	r3, r0
 8003fb0:	e26a      	b.n	8004488 <handle_read_device_identification+0x5c6>

        if (object_id > 6 && object_id < 0x80)
 8003fb2:	22b2      	movs	r2, #178	; 0xb2
 8003fb4:	18bb      	adds	r3, r7, r2
 8003fb6:	781b      	ldrb	r3, [r3, #0]
 8003fb8:	2b06      	cmp	r3, #6
 8003fba:	d90b      	bls.n	8003fd4 <handle_read_device_identification+0x112>
 8003fbc:	18bb      	adds	r3, r7, r2
 8003fbe:	781b      	ldrb	r3, [r3, #0]
 8003fc0:	b25b      	sxtb	r3, r3
 8003fc2:	2b00      	cmp	r3, #0
 8003fc4:	db06      	blt.n	8003fd4 <handle_read_device_identification+0x112>
            return send_exception_msg(nmbs, NMBS_EXCEPTION_ILLEGAL_DATA_ADDRESS);
 8003fc6:	687b      	ldr	r3, [r7, #4]
 8003fc8:	2102      	movs	r1, #2
 8003fca:	0018      	movs	r0, r3
 8003fcc:	f7fd fa89 	bl	80014e2 <send_exception_msg>
 8003fd0:	0003      	movs	r3, r0
 8003fd2:	e259      	b.n	8004488 <handle_read_device_identification+0x5c6>

        if (!nmbs->msg.broadcast) {
 8003fd4:	687a      	ldr	r2, [r7, #4]
 8003fd6:	2385      	movs	r3, #133	; 0x85
 8003fd8:	005b      	lsls	r3, r3, #1
 8003fda:	5cd3      	ldrb	r3, [r2, r3]
 8003fdc:	2201      	movs	r2, #1
 8003fde:	4053      	eors	r3, r2
 8003fe0:	b2db      	uxtb	r3, r3
 8003fe2:	2b00      	cmp	r3, #0
 8003fe4:	d100      	bne.n	8003fe8 <handle_read_device_identification+0x126>
 8003fe6:	e24e      	b.n	8004486 <handle_read_device_identification+0x5c4>
            char str[NMBS_DEVICE_IDENTIFICATION_STRING_LENGTH];

            nmbs_bitfield_256 map;
            nmbs_bitfield_reset(map);
 8003fe8:	2608      	movs	r6, #8
 8003fea:	19bb      	adds	r3, r7, r6
 8003fec:	2220      	movs	r2, #32
 8003fee:	2100      	movs	r1, #0
 8003ff0:	0018      	movs	r0, r3
 8003ff2:	f003 fcb3 	bl	800795c <memset>

            err = nmbs->callbacks.read_device_identification_map(map);
 8003ff6:	687a      	ldr	r2, [r7, #4]
 8003ff8:	239e      	movs	r3, #158	; 0x9e
 8003ffa:	005b      	lsls	r3, r3, #1
 8003ffc:	58d3      	ldr	r3, [r2, r3]
 8003ffe:	25b5      	movs	r5, #181	; 0xb5
 8004000:	197c      	adds	r4, r7, r5
 8004002:	19ba      	adds	r2, r7, r6
 8004004:	0010      	movs	r0, r2
 8004006:	4798      	blx	r3
 8004008:	0003      	movs	r3, r0
 800400a:	7023      	strb	r3, [r4, #0]
            if (err != NMBS_ERROR_NONE) {
 800400c:	197b      	adds	r3, r7, r5
 800400e:	781b      	ldrb	r3, [r3, #0]
 8004010:	b25b      	sxtb	r3, r3
 8004012:	2b00      	cmp	r3, #0
 8004014:	d019      	beq.n	800404a <handle_read_device_identification+0x188>
                if (nmbs_error_is_exception(err))
 8004016:	197b      	adds	r3, r7, r5
 8004018:	781b      	ldrb	r3, [r3, #0]
 800401a:	b25b      	sxtb	r3, r3
 800401c:	2b00      	cmp	r3, #0
 800401e:	dd0d      	ble.n	800403c <handle_read_device_identification+0x17a>
 8004020:	197b      	adds	r3, r7, r5
 8004022:	781b      	ldrb	r3, [r3, #0]
 8004024:	b25b      	sxtb	r3, r3
 8004026:	2b04      	cmp	r3, #4
 8004028:	dc08      	bgt.n	800403c <handle_read_device_identification+0x17a>
                    return send_exception_msg(nmbs, err);
 800402a:	197b      	adds	r3, r7, r5
 800402c:	781a      	ldrb	r2, [r3, #0]
 800402e:	687b      	ldr	r3, [r7, #4]
 8004030:	0011      	movs	r1, r2
 8004032:	0018      	movs	r0, r3
 8004034:	f7fd fa55 	bl	80014e2 <send_exception_msg>
 8004038:	0003      	movs	r3, r0
 800403a:	e225      	b.n	8004488 <handle_read_device_identification+0x5c6>

                return send_exception_msg(nmbs, NMBS_EXCEPTION_SERVER_DEVICE_FAILURE);
 800403c:	687b      	ldr	r3, [r7, #4]
 800403e:	2104      	movs	r1, #4
 8004040:	0018      	movs	r0, r3
 8004042:	f7fd fa4e 	bl	80014e2 <send_exception_msg>
 8004046:	0003      	movs	r3, r0
 8004048:	e21e      	b.n	8004488 <handle_read_device_identification+0x5c6>
            }

            put_res_header(nmbs, 0);    // Length will be set later
 800404a:	687b      	ldr	r3, [r7, #4]
 800404c:	2100      	movs	r1, #0
 800404e:	0018      	movs	r0, r3
 8004050:	f7fd fa35 	bl	80014be <put_res_header>
            put_1(nmbs, 0x0E);
 8004054:	687b      	ldr	r3, [r7, #4]
 8004056:	210e      	movs	r1, #14
 8004058:	0018      	movs	r0, r3
 800405a:	f7fc fcdd 	bl	8000a18 <put_1>
            put_1(nmbs, read_device_id_code);
 800405e:	24b3      	movs	r4, #179	; 0xb3
 8004060:	193b      	adds	r3, r7, r4
 8004062:	781a      	ldrb	r2, [r3, #0]
 8004064:	687b      	ldr	r3, [r7, #4]
 8004066:	0011      	movs	r1, r2
 8004068:	0018      	movs	r0, r3
 800406a:	f7fc fcd5 	bl	8000a18 <put_1>
            put_1(nmbs, 0x83);
 800406e:	687b      	ldr	r3, [r7, #4]
 8004070:	2183      	movs	r1, #131	; 0x83
 8004072:	0018      	movs	r0, r3
 8004074:	f7fc fcd0 	bl	8000a18 <put_1>

            if (read_device_id_code == 4) {
 8004078:	193b      	adds	r3, r7, r4
 800407a:	781b      	ldrb	r3, [r3, #0]
 800407c:	2b04      	cmp	r3, #4
 800407e:	d000      	beq.n	8004082 <handle_read_device_identification+0x1c0>
 8004080:	e08a      	b.n	8004198 <handle_read_device_identification+0x2d6>
                if (!nmbs_bitfield_read(map, object_id))
 8004082:	20b2      	movs	r0, #178	; 0xb2
 8004084:	183b      	adds	r3, r7, r0
 8004086:	781b      	ldrb	r3, [r3, #0]
 8004088:	08db      	lsrs	r3, r3, #3
 800408a:	b2db      	uxtb	r3, r3
 800408c:	001a      	movs	r2, r3
 800408e:	2308      	movs	r3, #8
 8004090:	18fb      	adds	r3, r7, r3
 8004092:	5c9b      	ldrb	r3, [r3, r2]
 8004094:	0019      	movs	r1, r3
 8004096:	183b      	adds	r3, r7, r0
 8004098:	781b      	ldrb	r3, [r3, #0]
 800409a:	2207      	movs	r2, #7
 800409c:	4013      	ands	r3, r2
 800409e:	4119      	asrs	r1, r3
 80040a0:	000b      	movs	r3, r1
 80040a2:	2201      	movs	r2, #1
 80040a4:	4013      	ands	r3, r2
 80040a6:	d106      	bne.n	80040b6 <handle_read_device_identification+0x1f4>
                    return send_exception_msg(nmbs, NMBS_EXCEPTION_ILLEGAL_DATA_ADDRESS);
 80040a8:	687b      	ldr	r3, [r7, #4]
 80040aa:	2102      	movs	r1, #2
 80040ac:	0018      	movs	r0, r3
 80040ae:	f7fd fa18 	bl	80014e2 <send_exception_msg>
 80040b2:	0003      	movs	r3, r0
 80040b4:	e1e8      	b.n	8004488 <handle_read_device_identification+0x5c6>

                put_1(nmbs, 0);    // More follows
 80040b6:	687b      	ldr	r3, [r7, #4]
 80040b8:	2100      	movs	r1, #0
 80040ba:	0018      	movs	r0, r3
 80040bc:	f7fc fcac 	bl	8000a18 <put_1>
                put_1(nmbs, 0);    // Next Object Id
 80040c0:	687b      	ldr	r3, [r7, #4]
 80040c2:	2100      	movs	r1, #0
 80040c4:	0018      	movs	r0, r3
 80040c6:	f7fc fca7 	bl	8000a18 <put_1>
                put_1(nmbs, 1);    // Number of objects
 80040ca:	687b      	ldr	r3, [r7, #4]
 80040cc:	2101      	movs	r1, #1
 80040ce:	0018      	movs	r0, r3
 80040d0:	f7fc fca2 	bl	8000a18 <put_1>

                str[0] = 0;
 80040d4:	2128      	movs	r1, #40	; 0x28
 80040d6:	187b      	adds	r3, r7, r1
 80040d8:	2200      	movs	r2, #0
 80040da:	701a      	strb	r2, [r3, #0]
                err = nmbs->callbacks.read_device_identification(object_id, str);
 80040dc:	687a      	ldr	r2, [r7, #4]
 80040de:	239c      	movs	r3, #156	; 0x9c
 80040e0:	005b      	lsls	r3, r3, #1
 80040e2:	58d3      	ldr	r3, [r2, r3]
 80040e4:	25b5      	movs	r5, #181	; 0xb5
 80040e6:	197c      	adds	r4, r7, r5
 80040e8:	1879      	adds	r1, r7, r1
 80040ea:	22b2      	movs	r2, #178	; 0xb2
 80040ec:	18ba      	adds	r2, r7, r2
 80040ee:	7812      	ldrb	r2, [r2, #0]
 80040f0:	0010      	movs	r0, r2
 80040f2:	4798      	blx	r3
 80040f4:	0003      	movs	r3, r0
 80040f6:	7023      	strb	r3, [r4, #0]
                if (err != NMBS_ERROR_NONE) {
 80040f8:	197b      	adds	r3, r7, r5
 80040fa:	781b      	ldrb	r3, [r3, #0]
 80040fc:	b25b      	sxtb	r3, r3
 80040fe:	2b00      	cmp	r3, #0
 8004100:	d019      	beq.n	8004136 <handle_read_device_identification+0x274>
                    if (nmbs_error_is_exception(err))
 8004102:	197b      	adds	r3, r7, r5
 8004104:	781b      	ldrb	r3, [r3, #0]
 8004106:	b25b      	sxtb	r3, r3
 8004108:	2b00      	cmp	r3, #0
 800410a:	dd0d      	ble.n	8004128 <handle_read_device_identification+0x266>
 800410c:	197b      	adds	r3, r7, r5
 800410e:	781b      	ldrb	r3, [r3, #0]
 8004110:	b25b      	sxtb	r3, r3
 8004112:	2b04      	cmp	r3, #4
 8004114:	dc08      	bgt.n	8004128 <handle_read_device_identification+0x266>
                        return send_exception_msg(nmbs, err);
 8004116:	197b      	adds	r3, r7, r5
 8004118:	781a      	ldrb	r2, [r3, #0]
 800411a:	687b      	ldr	r3, [r7, #4]
 800411c:	0011      	movs	r1, r2
 800411e:	0018      	movs	r0, r3
 8004120:	f7fd f9df 	bl	80014e2 <send_exception_msg>
 8004124:	0003      	movs	r3, r0
 8004126:	e1af      	b.n	8004488 <handle_read_device_identification+0x5c6>

                    return send_exception_msg(nmbs, NMBS_EXCEPTION_SERVER_DEVICE_FAILURE);
 8004128:	687b      	ldr	r3, [r7, #4]
 800412a:	2104      	movs	r1, #4
 800412c:	0018      	movs	r0, r3
 800412e:	f7fd f9d8 	bl	80014e2 <send_exception_msg>
 8004132:	0003      	movs	r3, r0
 8004134:	e1a8      	b.n	8004488 <handle_read_device_identification+0x5c6>
                }

                const size_t str_len = strlen(str);
 8004136:	2528      	movs	r5, #40	; 0x28
 8004138:	197b      	adds	r3, r7, r5
 800413a:	0018      	movs	r0, r3
 800413c:	f7fb ffe0 	bl	8000100 <strlen>
 8004140:	0003      	movs	r3, r0
 8004142:	24a8      	movs	r4, #168	; 0xa8
 8004144:	193a      	adds	r2, r7, r4
 8004146:	6013      	str	r3, [r2, #0]

                put_1(nmbs, object_id);    // Object id
 8004148:	23b2      	movs	r3, #178	; 0xb2
 800414a:	18fb      	adds	r3, r7, r3
 800414c:	781a      	ldrb	r2, [r3, #0]
 800414e:	687b      	ldr	r3, [r7, #4]
 8004150:	0011      	movs	r1, r2
 8004152:	0018      	movs	r0, r3
 8004154:	f7fc fc60 	bl	8000a18 <put_1>
                put_1(nmbs, str_len);      // Object length
 8004158:	193b      	adds	r3, r7, r4
 800415a:	681b      	ldr	r3, [r3, #0]
 800415c:	b2da      	uxtb	r2, r3
 800415e:	687b      	ldr	r3, [r7, #4]
 8004160:	0011      	movs	r1, r2
 8004162:	0018      	movs	r0, r3
 8004164:	f7fc fc58 	bl	8000a18 <put_1>
                put_n(nmbs, (uint8_t*) str, str_len);
 8004168:	193b      	adds	r3, r7, r4
 800416a:	681b      	ldr	r3, [r3, #0]
 800416c:	b2da      	uxtb	r2, r3
 800416e:	1979      	adds	r1, r7, r5
 8004170:	687b      	ldr	r3, [r7, #4]
 8004172:	0018      	movs	r0, r3
 8004174:	f7fc fd42 	bl	8000bfc <put_n>

                set_msg_header_size(nmbs, 6 + 2 + str_len);
 8004178:	193b      	adds	r3, r7, r4
 800417a:	681b      	ldr	r3, [r3, #0]
 800417c:	b29b      	uxth	r3, r3
 800417e:	3308      	adds	r3, #8
 8004180:	b29a      	uxth	r2, r3
 8004182:	687b      	ldr	r3, [r7, #4]
 8004184:	0011      	movs	r1, r2
 8004186:	0018      	movs	r0, r3
 8004188:	f7fd f8fe 	bl	8001388 <set_msg_header_size>

                return send_msg(nmbs);
 800418c:	687b      	ldr	r3, [r7, #4]
 800418e:	0018      	movs	r0, r3
 8004190:	f7fd f917 	bl	80013c2 <send_msg>
 8004194:	0003      	movs	r3, r0
 8004196:	e177      	b.n	8004488 <handle_read_device_identification+0x5c6>
            }

            const uint8_t more_follows_idx = nmbs->msg.buf_idx;
 8004198:	687a      	ldr	r2, [r7, #4]
 800419a:	2382      	movs	r3, #130	; 0x82
 800419c:	005b      	lsls	r3, r3, #1
 800419e:	5ad2      	ldrh	r2, [r2, r3]
 80041a0:	23b1      	movs	r3, #177	; 0xb1
 80041a2:	18fb      	adds	r3, r7, r3
 80041a4:	701a      	strb	r2, [r3, #0]
            put_1(nmbs, 0);
 80041a6:	687b      	ldr	r3, [r7, #4]
 80041a8:	2100      	movs	r1, #0
 80041aa:	0018      	movs	r0, r3
 80041ac:	f7fc fc34 	bl	8000a18 <put_1>
            const uint8_t next_object_id_idx = nmbs->msg.buf_idx;
 80041b0:	687a      	ldr	r2, [r7, #4]
 80041b2:	2382      	movs	r3, #130	; 0x82
 80041b4:	005b      	lsls	r3, r3, #1
 80041b6:	5ad2      	ldrh	r2, [r2, r3]
 80041b8:	23b0      	movs	r3, #176	; 0xb0
 80041ba:	18fb      	adds	r3, r7, r3
 80041bc:	701a      	strb	r2, [r3, #0]
            put_1(nmbs, 0);
 80041be:	687b      	ldr	r3, [r7, #4]
 80041c0:	2100      	movs	r1, #0
 80041c2:	0018      	movs	r0, r3
 80041c4:	f7fc fc28 	bl	8000a18 <put_1>
            const uint8_t number_of_objects_idx = nmbs->msg.buf_idx;
 80041c8:	687a      	ldr	r2, [r7, #4]
 80041ca:	2382      	movs	r3, #130	; 0x82
 80041cc:	005b      	lsls	r3, r3, #1
 80041ce:	5ad2      	ldrh	r2, [r2, r3]
 80041d0:	23af      	movs	r3, #175	; 0xaf
 80041d2:	18fb      	adds	r3, r7, r3
 80041d4:	701a      	strb	r2, [r3, #0]
            put_1(nmbs, 0);
 80041d6:	687b      	ldr	r3, [r7, #4]
 80041d8:	2100      	movs	r1, #0
 80041da:	0018      	movs	r0, r3
 80041dc:	f7fc fc1c 	bl	8000a18 <put_1>

            int16_t res_size_left = 253 - 7;
 80041e0:	23be      	movs	r3, #190	; 0xbe
 80041e2:	18fb      	adds	r3, r7, r3
 80041e4:	22f6      	movs	r2, #246	; 0xf6
 80041e6:	801a      	strh	r2, [r3, #0]

            uint8_t last_id = 0;
 80041e8:	23bd      	movs	r3, #189	; 0xbd
 80041ea:	18fb      	adds	r3, r7, r3
 80041ec:	2200      	movs	r2, #0
 80041ee:	701a      	strb	r2, [r3, #0]
            uint8_t msg_size = 6;
 80041f0:	23bc      	movs	r3, #188	; 0xbc
 80041f2:	18fb      	adds	r3, r7, r3
 80041f4:	2206      	movs	r2, #6
 80041f6:	701a      	strb	r2, [r3, #0]
            uint8_t res_more_follows = 0;
 80041f8:	23bb      	movs	r3, #187	; 0xbb
 80041fa:	18fb      	adds	r3, r7, r3
 80041fc:	2200      	movs	r2, #0
 80041fe:	701a      	strb	r2, [r3, #0]
            uint8_t res_next_object_id = 0;
 8004200:	23ba      	movs	r3, #186	; 0xba
 8004202:	18fb      	adds	r3, r7, r3
 8004204:	2200      	movs	r2, #0
 8004206:	701a      	strb	r2, [r3, #0]
            uint8_t res_number_of_objects = 0;
 8004208:	23b9      	movs	r3, #185	; 0xb9
 800420a:	18fb      	adds	r3, r7, r3
 800420c:	2200      	movs	r2, #0
 800420e:	701a      	strb	r2, [r3, #0]

            switch (read_device_id_code) {
 8004210:	23b3      	movs	r3, #179	; 0xb3
 8004212:	18fb      	adds	r3, r7, r3
 8004214:	781b      	ldrb	r3, [r3, #0]
 8004216:	2b03      	cmp	r3, #3
 8004218:	d02b      	beq.n	8004272 <handle_read_device_identification+0x3b0>
 800421a:	dc3c      	bgt.n	8004296 <handle_read_device_identification+0x3d4>
 800421c:	2b01      	cmp	r3, #1
 800421e:	d002      	beq.n	8004226 <handle_read_device_identification+0x364>
 8004220:	2b02      	cmp	r3, #2
 8004222:	d011      	beq.n	8004248 <handle_read_device_identification+0x386>
                        return send_exception_msg(nmbs, NMBS_EXCEPTION_ILLEGAL_DATA_ADDRESS);
                    last_id = 0xFF;
                    break;
                default:
                    // Unreachable
                    break;
 8004224:	e037      	b.n	8004296 <handle_read_device_identification+0x3d4>
                    if (object_id > 0x02)
 8004226:	23b2      	movs	r3, #178	; 0xb2
 8004228:	18fb      	adds	r3, r7, r3
 800422a:	781b      	ldrb	r3, [r3, #0]
 800422c:	2b02      	cmp	r3, #2
 800422e:	d906      	bls.n	800423e <handle_read_device_identification+0x37c>
                        return send_exception_msg(nmbs, NMBS_EXCEPTION_ILLEGAL_DATA_ADDRESS);
 8004230:	687b      	ldr	r3, [r7, #4]
 8004232:	2102      	movs	r1, #2
 8004234:	0018      	movs	r0, r3
 8004236:	f7fd f954 	bl	80014e2 <send_exception_msg>
 800423a:	0003      	movs	r3, r0
 800423c:	e124      	b.n	8004488 <handle_read_device_identification+0x5c6>
                    last_id = 0x02;
 800423e:	23bd      	movs	r3, #189	; 0xbd
 8004240:	18fb      	adds	r3, r7, r3
 8004242:	2202      	movs	r2, #2
 8004244:	701a      	strb	r2, [r3, #0]
                    break;
 8004246:	e027      	b.n	8004298 <handle_read_device_identification+0x3d6>
                    if (object_id < 0x03 || object_id > 0x06)
 8004248:	22b2      	movs	r2, #178	; 0xb2
 800424a:	18bb      	adds	r3, r7, r2
 800424c:	781b      	ldrb	r3, [r3, #0]
 800424e:	2b02      	cmp	r3, #2
 8004250:	d903      	bls.n	800425a <handle_read_device_identification+0x398>
 8004252:	18bb      	adds	r3, r7, r2
 8004254:	781b      	ldrb	r3, [r3, #0]
 8004256:	2b06      	cmp	r3, #6
 8004258:	d906      	bls.n	8004268 <handle_read_device_identification+0x3a6>
                        return send_exception_msg(nmbs, NMBS_EXCEPTION_ILLEGAL_DATA_ADDRESS);
 800425a:	687b      	ldr	r3, [r7, #4]
 800425c:	2102      	movs	r1, #2
 800425e:	0018      	movs	r0, r3
 8004260:	f7fd f93f 	bl	80014e2 <send_exception_msg>
 8004264:	0003      	movs	r3, r0
 8004266:	e10f      	b.n	8004488 <handle_read_device_identification+0x5c6>
                    last_id = 0x06;
 8004268:	23bd      	movs	r3, #189	; 0xbd
 800426a:	18fb      	adds	r3, r7, r3
 800426c:	2206      	movs	r2, #6
 800426e:	701a      	strb	r2, [r3, #0]
                    break;
 8004270:	e012      	b.n	8004298 <handle_read_device_identification+0x3d6>
                    if (object_id < 0x80)
 8004272:	23b2      	movs	r3, #178	; 0xb2
 8004274:	18fb      	adds	r3, r7, r3
 8004276:	781b      	ldrb	r3, [r3, #0]
 8004278:	b25b      	sxtb	r3, r3
 800427a:	2b00      	cmp	r3, #0
 800427c:	db06      	blt.n	800428c <handle_read_device_identification+0x3ca>
                        return send_exception_msg(nmbs, NMBS_EXCEPTION_ILLEGAL_DATA_ADDRESS);
 800427e:	687b      	ldr	r3, [r7, #4]
 8004280:	2102      	movs	r1, #2
 8004282:	0018      	movs	r0, r3
 8004284:	f7fd f92d 	bl	80014e2 <send_exception_msg>
 8004288:	0003      	movs	r3, r0
 800428a:	e0fd      	b.n	8004488 <handle_read_device_identification+0x5c6>
                    last_id = 0xFF;
 800428c:	23bd      	movs	r3, #189	; 0xbd
 800428e:	18fb      	adds	r3, r7, r3
 8004290:	22ff      	movs	r2, #255	; 0xff
 8004292:	701a      	strb	r2, [r3, #0]
                    break;
 8004294:	e000      	b.n	8004298 <handle_read_device_identification+0x3d6>
                    break;
 8004296:	46c0      	nop			; (mov r8, r8)
            }

            for (uint16_t id = object_id; id <= last_id; id++) {
 8004298:	23b6      	movs	r3, #182	; 0xb6
 800429a:	18fb      	adds	r3, r7, r3
 800429c:	22b2      	movs	r2, #178	; 0xb2
 800429e:	18ba      	adds	r2, r7, r2
 80042a0:	7812      	ldrb	r2, [r2, #0]
 80042a2:	801a      	strh	r2, [r3, #0]
 80042a4:	e0a8      	b.n	80043f8 <handle_read_device_identification+0x536>
                if (!nmbs_bitfield_read(map, id)) {
 80042a6:	20b6      	movs	r0, #182	; 0xb6
 80042a8:	183b      	adds	r3, r7, r0
 80042aa:	881b      	ldrh	r3, [r3, #0]
 80042ac:	08db      	lsrs	r3, r3, #3
 80042ae:	b29b      	uxth	r3, r3
 80042b0:	001a      	movs	r2, r3
 80042b2:	2308      	movs	r3, #8
 80042b4:	18fb      	adds	r3, r7, r3
 80042b6:	5c9b      	ldrb	r3, [r3, r2]
 80042b8:	0019      	movs	r1, r3
 80042ba:	183b      	adds	r3, r7, r0
 80042bc:	881b      	ldrh	r3, [r3, #0]
 80042be:	2207      	movs	r2, #7
 80042c0:	4013      	ands	r3, r2
 80042c2:	4119      	asrs	r1, r3
 80042c4:	000b      	movs	r3, r1
 80042c6:	2201      	movs	r2, #1
 80042c8:	4013      	ands	r3, r2
 80042ca:	d10b      	bne.n	80042e4 <handle_read_device_identification+0x422>
                    if (id < 0x03)
 80042cc:	183b      	adds	r3, r7, r0
 80042ce:	881b      	ldrh	r3, [r3, #0]
 80042d0:	2b02      	cmp	r3, #2
 80042d2:	d900      	bls.n	80042d6 <handle_read_device_identification+0x414>
 80042d4:	e089      	b.n	80043ea <handle_read_device_identification+0x528>
                        return send_exception_msg(nmbs, NMBS_EXCEPTION_SERVER_DEVICE_FAILURE);
 80042d6:	687b      	ldr	r3, [r7, #4]
 80042d8:	2104      	movs	r1, #4
 80042da:	0018      	movs	r0, r3
 80042dc:	f7fd f901 	bl	80014e2 <send_exception_msg>
 80042e0:	0003      	movs	r3, r0
 80042e2:	e0d1      	b.n	8004488 <handle_read_device_identification+0x5c6>
                    continue;
                }

                str[0] = 0;
 80042e4:	2128      	movs	r1, #40	; 0x28
 80042e6:	187b      	adds	r3, r7, r1
 80042e8:	2200      	movs	r2, #0
 80042ea:	701a      	strb	r2, [r3, #0]
                err = nmbs->callbacks.read_device_identification((uint8_t) id, str);
 80042ec:	687a      	ldr	r2, [r7, #4]
 80042ee:	239c      	movs	r3, #156	; 0x9c
 80042f0:	005b      	lsls	r3, r3, #1
 80042f2:	58d3      	ldr	r3, [r2, r3]
 80042f4:	22b6      	movs	r2, #182	; 0xb6
 80042f6:	18ba      	adds	r2, r7, r2
 80042f8:	8812      	ldrh	r2, [r2, #0]
 80042fa:	b2d2      	uxtb	r2, r2
 80042fc:	25b5      	movs	r5, #181	; 0xb5
 80042fe:	197c      	adds	r4, r7, r5
 8004300:	1879      	adds	r1, r7, r1
 8004302:	0010      	movs	r0, r2
 8004304:	4798      	blx	r3
 8004306:	0003      	movs	r3, r0
 8004308:	7023      	strb	r3, [r4, #0]
                if (err != NMBS_ERROR_NONE) {
 800430a:	197b      	adds	r3, r7, r5
 800430c:	781b      	ldrb	r3, [r3, #0]
 800430e:	b25b      	sxtb	r3, r3
 8004310:	2b00      	cmp	r3, #0
 8004312:	d019      	beq.n	8004348 <handle_read_device_identification+0x486>
                    if (nmbs_error_is_exception(err))
 8004314:	197b      	adds	r3, r7, r5
 8004316:	781b      	ldrb	r3, [r3, #0]
 8004318:	b25b      	sxtb	r3, r3
 800431a:	2b00      	cmp	r3, #0
 800431c:	dd0d      	ble.n	800433a <handle_read_device_identification+0x478>
 800431e:	197b      	adds	r3, r7, r5
 8004320:	781b      	ldrb	r3, [r3, #0]
 8004322:	b25b      	sxtb	r3, r3
 8004324:	2b04      	cmp	r3, #4
 8004326:	dc08      	bgt.n	800433a <handle_read_device_identification+0x478>
                        return send_exception_msg(nmbs, err);
 8004328:	197b      	adds	r3, r7, r5
 800432a:	781a      	ldrb	r2, [r3, #0]
 800432c:	687b      	ldr	r3, [r7, #4]
 800432e:	0011      	movs	r1, r2
 8004330:	0018      	movs	r0, r3
 8004332:	f7fd f8d6 	bl	80014e2 <send_exception_msg>
 8004336:	0003      	movs	r3, r0
 8004338:	e0a6      	b.n	8004488 <handle_read_device_identification+0x5c6>

                    return send_exception_msg(nmbs, NMBS_EXCEPTION_SERVER_DEVICE_FAILURE);
 800433a:	687b      	ldr	r3, [r7, #4]
 800433c:	2104      	movs	r1, #4
 800433e:	0018      	movs	r0, r3
 8004340:	f7fd f8cf 	bl	80014e2 <send_exception_msg>
 8004344:	0003      	movs	r3, r0
 8004346:	e09f      	b.n	8004488 <handle_read_device_identification+0x5c6>
                }

                const int16_t str_len = (int16_t) strlen(str);
 8004348:	2328      	movs	r3, #40	; 0x28
 800434a:	18fb      	adds	r3, r7, r3
 800434c:	0018      	movs	r0, r3
 800434e:	f7fb fed7 	bl	8000100 <strlen>
 8004352:	0002      	movs	r2, r0
 8004354:	20ac      	movs	r0, #172	; 0xac
 8004356:	183b      	adds	r3, r7, r0
 8004358:	801a      	strh	r2, [r3, #0]

                res_size_left = (int16_t) (res_size_left - 2 - str_len);
 800435a:	21be      	movs	r1, #190	; 0xbe
 800435c:	187b      	adds	r3, r7, r1
 800435e:	881a      	ldrh	r2, [r3, #0]
 8004360:	183b      	adds	r3, r7, r0
 8004362:	881b      	ldrh	r3, [r3, #0]
 8004364:	1ad3      	subs	r3, r2, r3
 8004366:	b29b      	uxth	r3, r3
 8004368:	3b02      	subs	r3, #2
 800436a:	b29a      	uxth	r2, r3
 800436c:	187b      	adds	r3, r7, r1
 800436e:	801a      	strh	r2, [r3, #0]
                if (res_size_left < 0) {
 8004370:	187b      	adds	r3, r7, r1
 8004372:	2200      	movs	r2, #0
 8004374:	5e9b      	ldrsh	r3, [r3, r2]
 8004376:	2b00      	cmp	r3, #0
 8004378:	da0a      	bge.n	8004390 <handle_read_device_identification+0x4ce>
                    res_more_follows = 0xFF;
 800437a:	23bb      	movs	r3, #187	; 0xbb
 800437c:	18fb      	adds	r3, r7, r3
 800437e:	22ff      	movs	r2, #255	; 0xff
 8004380:	701a      	strb	r2, [r3, #0]
                    res_next_object_id = id;
 8004382:	23ba      	movs	r3, #186	; 0xba
 8004384:	18fb      	adds	r3, r7, r3
 8004386:	22b6      	movs	r2, #182	; 0xb6
 8004388:	18ba      	adds	r2, r7, r2
 800438a:	8812      	ldrh	r2, [r2, #0]
 800438c:	701a      	strb	r2, [r3, #0]
                    break;
 800438e:	e03d      	b.n	800440c <handle_read_device_identification+0x54a>
                }

                put_1(nmbs, (uint8_t) id);    // Object id
 8004390:	23b6      	movs	r3, #182	; 0xb6
 8004392:	18fb      	adds	r3, r7, r3
 8004394:	881b      	ldrh	r3, [r3, #0]
 8004396:	b2da      	uxtb	r2, r3
 8004398:	687b      	ldr	r3, [r7, #4]
 800439a:	0011      	movs	r1, r2
 800439c:	0018      	movs	r0, r3
 800439e:	f7fc fb3b 	bl	8000a18 <put_1>
                put_1(nmbs, str_len);         // Object length
 80043a2:	24ac      	movs	r4, #172	; 0xac
 80043a4:	193b      	adds	r3, r7, r4
 80043a6:	881b      	ldrh	r3, [r3, #0]
 80043a8:	b2da      	uxtb	r2, r3
 80043aa:	687b      	ldr	r3, [r7, #4]
 80043ac:	0011      	movs	r1, r2
 80043ae:	0018      	movs	r0, r3
 80043b0:	f7fc fb32 	bl	8000a18 <put_1>
                put_n(nmbs, (uint8_t*) str, str_len);
 80043b4:	193b      	adds	r3, r7, r4
 80043b6:	881b      	ldrh	r3, [r3, #0]
 80043b8:	b2da      	uxtb	r2, r3
 80043ba:	2328      	movs	r3, #40	; 0x28
 80043bc:	18f9      	adds	r1, r7, r3
 80043be:	687b      	ldr	r3, [r7, #4]
 80043c0:	0018      	movs	r0, r3
 80043c2:	f7fc fc1b 	bl	8000bfc <put_n>

                msg_size += (2 + str_len);
 80043c6:	193b      	adds	r3, r7, r4
 80043c8:	881b      	ldrh	r3, [r3, #0]
 80043ca:	b2da      	uxtb	r2, r3
 80043cc:	21bc      	movs	r1, #188	; 0xbc
 80043ce:	187b      	adds	r3, r7, r1
 80043d0:	781b      	ldrb	r3, [r3, #0]
 80043d2:	18d3      	adds	r3, r2, r3
 80043d4:	b2da      	uxtb	r2, r3
 80043d6:	187b      	adds	r3, r7, r1
 80043d8:	3202      	adds	r2, #2
 80043da:	701a      	strb	r2, [r3, #0]

                res_number_of_objects++;
 80043dc:	21b9      	movs	r1, #185	; 0xb9
 80043de:	187b      	adds	r3, r7, r1
 80043e0:	781a      	ldrb	r2, [r3, #0]
 80043e2:	187b      	adds	r3, r7, r1
 80043e4:	3201      	adds	r2, #1
 80043e6:	701a      	strb	r2, [r3, #0]
 80043e8:	e000      	b.n	80043ec <handle_read_device_identification+0x52a>
                    continue;
 80043ea:	46c0      	nop			; (mov r8, r8)
            for (uint16_t id = object_id; id <= last_id; id++) {
 80043ec:	21b6      	movs	r1, #182	; 0xb6
 80043ee:	187b      	adds	r3, r7, r1
 80043f0:	881a      	ldrh	r2, [r3, #0]
 80043f2:	187b      	adds	r3, r7, r1
 80043f4:	3201      	adds	r2, #1
 80043f6:	801a      	strh	r2, [r3, #0]
 80043f8:	23bd      	movs	r3, #189	; 0xbd
 80043fa:	18fb      	adds	r3, r7, r3
 80043fc:	781b      	ldrb	r3, [r3, #0]
 80043fe:	b29b      	uxth	r3, r3
 8004400:	22b6      	movs	r2, #182	; 0xb6
 8004402:	18ba      	adds	r2, r7, r2
 8004404:	8812      	ldrh	r2, [r2, #0]
 8004406:	429a      	cmp	r2, r3
 8004408:	d800      	bhi.n	800440c <handle_read_device_identification+0x54a>
 800440a:	e74c      	b.n	80042a6 <handle_read_device_identification+0x3e4>
            }

            set_1(nmbs, res_more_follows, more_follows_idx);
 800440c:	23b1      	movs	r3, #177	; 0xb1
 800440e:	18fb      	adds	r3, r7, r3
 8004410:	781a      	ldrb	r2, [r3, #0]
 8004412:	23bb      	movs	r3, #187	; 0xbb
 8004414:	18fb      	adds	r3, r7, r3
 8004416:	7819      	ldrb	r1, [r3, #0]
 8004418:	687b      	ldr	r3, [r7, #4]
 800441a:	0018      	movs	r0, r3
 800441c:	f7fc fb98 	bl	8000b50 <set_1>
            set_1(nmbs, res_next_object_id, next_object_id_idx);
 8004420:	23b0      	movs	r3, #176	; 0xb0
 8004422:	18fb      	adds	r3, r7, r3
 8004424:	781a      	ldrb	r2, [r3, #0]
 8004426:	23ba      	movs	r3, #186	; 0xba
 8004428:	18fb      	adds	r3, r7, r3
 800442a:	7819      	ldrb	r1, [r3, #0]
 800442c:	687b      	ldr	r3, [r7, #4]
 800442e:	0018      	movs	r0, r3
 8004430:	f7fc fb8e 	bl	8000b50 <set_1>
            set_1(nmbs, res_number_of_objects, number_of_objects_idx);
 8004434:	23af      	movs	r3, #175	; 0xaf
 8004436:	18fb      	adds	r3, r7, r3
 8004438:	781a      	ldrb	r2, [r3, #0]
 800443a:	23b9      	movs	r3, #185	; 0xb9
 800443c:	18fb      	adds	r3, r7, r3
 800443e:	7819      	ldrb	r1, [r3, #0]
 8004440:	687b      	ldr	r3, [r7, #4]
 8004442:	0018      	movs	r0, r3
 8004444:	f7fc fb84 	bl	8000b50 <set_1>

            set_msg_header_size(nmbs, msg_size);
 8004448:	23bc      	movs	r3, #188	; 0xbc
 800444a:	18fb      	adds	r3, r7, r3
 800444c:	781b      	ldrb	r3, [r3, #0]
 800444e:	b29a      	uxth	r2, r3
 8004450:	687b      	ldr	r3, [r7, #4]
 8004452:	0011      	movs	r1, r2
 8004454:	0018      	movs	r0, r3
 8004456:	f7fc ff97 	bl	8001388 <set_msg_header_size>

            return send_msg(nmbs);
 800445a:	687b      	ldr	r3, [r7, #4]
 800445c:	0018      	movs	r0, r3
 800445e:	f7fc ffb0 	bl	80013c2 <send_msg>
 8004462:	0003      	movs	r3, r0
 8004464:	e010      	b.n	8004488 <handle_read_device_identification+0x5c6>
        }
    }
    else {
        return recv_read_device_identification_res(nmbs, 0, NULL, 0, NULL, NULL, NULL, NULL);
 8004466:	6878      	ldr	r0, [r7, #4]
 8004468:	2300      	movs	r3, #0
 800446a:	9303      	str	r3, [sp, #12]
 800446c:	2300      	movs	r3, #0
 800446e:	9302      	str	r3, [sp, #8]
 8004470:	2300      	movs	r3, #0
 8004472:	9301      	str	r3, [sp, #4]
 8004474:	2300      	movs	r3, #0
 8004476:	9300      	str	r3, [sp, #0]
 8004478:	2300      	movs	r3, #0
 800447a:	2200      	movs	r2, #0
 800447c:	2100      	movs	r1, #0
 800447e:	f7fd fd45 	bl	8001f0c <recv_read_device_identification_res>
 8004482:	0003      	movs	r3, r0
 8004484:	e000      	b.n	8004488 <handle_read_device_identification+0x5c6>
    }

    return NMBS_ERROR_NONE;
 8004486:	2300      	movs	r3, #0
}
 8004488:	0018      	movs	r0, r3
 800448a:	46bd      	mov	sp, r7
 800448c:	b031      	add	sp, #196	; 0xc4
 800448e:	bdf0      	pop	{r4, r5, r6, r7, pc}

08004490 <handle_req_fc>:
#endif


static nmbs_error handle_req_fc(nmbs_t* nmbs) {
 8004490:	b590      	push	{r4, r7, lr}
 8004492:	b085      	sub	sp, #20
 8004494:	af00      	add	r7, sp, #0
 8004496:	6078      	str	r0, [r7, #4]
    NMBS_DEBUG_PRINT("fc %d\t", nmbs->msg.fc);

    nmbs_error err = NMBS_ERROR_NONE;
 8004498:	230f      	movs	r3, #15
 800449a:	18fb      	adds	r3, r7, r3
 800449c:	2200      	movs	r2, #0
 800449e:	701a      	strb	r2, [r3, #0]
    switch (nmbs->msg.fc) {
 80044a0:	687a      	ldr	r2, [r7, #4]
 80044a2:	2308      	movs	r3, #8
 80044a4:	33ff      	adds	r3, #255	; 0xff
 80044a6:	5cd3      	ldrb	r3, [r2, r3]
 80044a8:	2b2b      	cmp	r3, #43	; 0x2b
 80044aa:	d870      	bhi.n	800458e <handle_req_fc+0xfe>
 80044ac:	009a      	lsls	r2, r3, #2
 80044ae:	4b4a      	ldr	r3, [pc, #296]	; (80045d8 <handle_req_fc+0x148>)
 80044b0:	18d3      	adds	r3, r2, r3
 80044b2:	681b      	ldr	r3, [r3, #0]
 80044b4:	469f      	mov	pc, r3
#ifndef NMBS_SERVER_READ_COILS_DISABLED
        case 1:
            err = handle_read_coils(nmbs);
 80044b6:	230f      	movs	r3, #15
 80044b8:	18fc      	adds	r4, r7, r3
 80044ba:	687b      	ldr	r3, [r7, #4]
 80044bc:	0018      	movs	r0, r3
 80044be:	f7fe f8d9 	bl	8002674 <handle_read_coils>
 80044c2:	0003      	movs	r3, r0
 80044c4:	7023      	strb	r3, [r4, #0]
            break;
 80044c6:	e07f      	b.n	80045c8 <handle_req_fc+0x138>
#endif

#ifndef NMBS_SERVER_READ_DISCRETE_INPUTS_DISABLED
        case 2:
            err = handle_read_discrete_inputs(nmbs);
 80044c8:	230f      	movs	r3, #15
 80044ca:	18fc      	adds	r4, r7, r3
 80044cc:	687b      	ldr	r3, [r7, #4]
 80044ce:	0018      	movs	r0, r3
 80044d0:	f7fe f8e2 	bl	8002698 <handle_read_discrete_inputs>
 80044d4:	0003      	movs	r3, r0
 80044d6:	7023      	strb	r3, [r4, #0]
            break;
 80044d8:	e076      	b.n	80045c8 <handle_req_fc+0x138>
#endif

#ifndef NMBS_SERVER_READ_HOLDING_REGISTERS_DISABLED
        case 3:
            err = handle_read_holding_registers(nmbs);
 80044da:	230f      	movs	r3, #15
 80044dc:	18fc      	adds	r4, r7, r3
 80044de:	687b      	ldr	r3, [r7, #4]
 80044e0:	0018      	movs	r0, r3
 80044e2:	f7fe f8eb 	bl	80026bc <handle_read_holding_registers>
 80044e6:	0003      	movs	r3, r0
 80044e8:	7023      	strb	r3, [r4, #0]
            break;
 80044ea:	e06d      	b.n	80045c8 <handle_req_fc+0x138>
#endif

#ifndef NMBS_SERVER_READ_INPUT_REGISTERS_DISABLED
        case 4:
            err = handle_read_input_registers(nmbs);
 80044ec:	230f      	movs	r3, #15
 80044ee:	18fc      	adds	r4, r7, r3
 80044f0:	687b      	ldr	r3, [r7, #4]
 80044f2:	0018      	movs	r0, r3
 80044f4:	f7fe f8f4 	bl	80026e0 <handle_read_input_registers>
 80044f8:	0003      	movs	r3, r0
 80044fa:	7023      	strb	r3, [r4, #0]
            break;
 80044fc:	e064      	b.n	80045c8 <handle_req_fc+0x138>
#endif

#ifndef NMBS_SERVER_WRITE_SINGLE_COIL_DISABLED
        case 5:
            err = handle_write_single_coil(nmbs);
 80044fe:	230f      	movs	r3, #15
 8004500:	18fc      	adds	r4, r7, r3
 8004502:	687b      	ldr	r3, [r7, #4]
 8004504:	0018      	movs	r0, r3
 8004506:	f7fe f8fd 	bl	8002704 <handle_write_single_coil>
 800450a:	0003      	movs	r3, r0
 800450c:	7023      	strb	r3, [r4, #0]
            break;
 800450e:	e05b      	b.n	80045c8 <handle_req_fc+0x138>
#endif

#ifndef NMBS_SERVER_WRITE_SINGLE_REGISTER_DISABLED
        case 6:
            err = handle_write_single_register(nmbs);
 8004510:	230f      	movs	r3, #15
 8004512:	18fc      	adds	r4, r7, r3
 8004514:	687b      	ldr	r3, [r7, #4]
 8004516:	0018      	movs	r0, r3
 8004518:	f7fe f9d1 	bl	80028be <handle_write_single_register>
 800451c:	0003      	movs	r3, r0
 800451e:	7023      	strb	r3, [r4, #0]
            break;
 8004520:	e052      	b.n	80045c8 <handle_req_fc+0x138>
#endif

#ifndef NMBS_SERVER_WRITE_MULTIPLE_COILS_DISABLED
        case 15:
            err = handle_write_multiple_coils(nmbs);
 8004522:	230f      	movs	r3, #15
 8004524:	18fc      	adds	r4, r7, r3
 8004526:	687b      	ldr	r3, [r7, #4]
 8004528:	0018      	movs	r0, r3
 800452a:	f7fe fa8f 	bl	8002a4c <handle_write_multiple_coils>
 800452e:	0003      	movs	r3, r0
 8004530:	7023      	strb	r3, [r4, #0]
            break;
 8004532:	e049      	b.n	80045c8 <handle_req_fc+0x138>
#endif

#ifndef NMBS_SERVER_WRITE_MULTIPLE_REGISTERS_DISABLED
        case 16:
            err = handle_write_multiple_registers(nmbs);
 8004534:	230f      	movs	r3, #15
 8004536:	18fc      	adds	r4, r7, r3
 8004538:	687b      	ldr	r3, [r7, #4]
 800453a:	0018      	movs	r0, r3
 800453c:	f7fe fbfe 	bl	8002d3c <handle_write_multiple_registers>
 8004540:	0003      	movs	r3, r0
 8004542:	7023      	strb	r3, [r4, #0]
            break;
 8004544:	e040      	b.n	80045c8 <handle_req_fc+0x138>
#endif

#ifndef NMBS_SERVER_READ_FILE_RECORD_DISABLED
        case 20:
            err = handle_read_file_record(nmbs);
 8004546:	230f      	movs	r3, #15
 8004548:	18fc      	adds	r4, r7, r3
 800454a:	687b      	ldr	r3, [r7, #4]
 800454c:	0018      	movs	r0, r3
 800454e:	f7fe fd5b 	bl	8003008 <handle_read_file_record>
 8004552:	0003      	movs	r3, r0
 8004554:	7023      	strb	r3, [r4, #0]
            break;
 8004556:	e037      	b.n	80045c8 <handle_req_fc+0x138>
#endif

#ifndef NMBS_SERVER_WRITE_FILE_RECORD_DISABLED
        case 21:
            err = handle_write_file_record(nmbs);
 8004558:	230f      	movs	r3, #15
 800455a:	18fc      	adds	r4, r7, r3
 800455c:	687b      	ldr	r3, [r7, #4]
 800455e:	0018      	movs	r0, r3
 8004560:	f7ff f826 	bl	80035b0 <handle_write_file_record>
 8004564:	0003      	movs	r3, r0
 8004566:	7023      	strb	r3, [r4, #0]
            break;
 8004568:	e02e      	b.n	80045c8 <handle_req_fc+0x138>
#endif

#ifndef NMBS_SERVER_READ_WRITE_REGISTERS_DISABLED
        case 23:
            err = handle_read_write_registers(nmbs);
 800456a:	230f      	movs	r3, #15
 800456c:	18fc      	adds	r4, r7, r3
 800456e:	687b      	ldr	r3, [r7, #4]
 8004570:	0018      	movs	r0, r3
 8004572:	f7ff f9fd 	bl	8003970 <handle_read_write_registers>
 8004576:	0003      	movs	r3, r0
 8004578:	7023      	strb	r3, [r4, #0]
            break;
 800457a:	e025      	b.n	80045c8 <handle_req_fc+0x138>
#endif

#ifndef NMBS_SERVER_READ_DEVICE_IDENTIFICATION_DISABLED
        case 43:
            err = handle_read_device_identification(nmbs);
 800457c:	230f      	movs	r3, #15
 800457e:	18fc      	adds	r4, r7, r3
 8004580:	687b      	ldr	r3, [r7, #4]
 8004582:	0018      	movs	r0, r3
 8004584:	f7ff fc9d 	bl	8003ec2 <handle_read_device_identification>
 8004588:	0003      	movs	r3, r0
 800458a:	7023      	strb	r3, [r4, #0]
            break;
 800458c:	e01c      	b.n	80045c8 <handle_req_fc+0x138>
#endif
        default:
            nmbs->platform.flush(nmbs, nmbs->platform.arg);
 800458e:	687a      	ldr	r2, [r7, #4]
 8004590:	23b0      	movs	r3, #176	; 0xb0
 8004592:	005b      	lsls	r3, r3, #1
 8004594:	58d3      	ldr	r3, [r2, r3]
 8004596:	6879      	ldr	r1, [r7, #4]
 8004598:	22b2      	movs	r2, #178	; 0xb2
 800459a:	0052      	lsls	r2, r2, #1
 800459c:	5889      	ldr	r1, [r1, r2]
 800459e:	687a      	ldr	r2, [r7, #4]
 80045a0:	0010      	movs	r0, r2
 80045a2:	4798      	blx	r3
            if (!nmbs->msg.ignored)
 80045a4:	687a      	ldr	r2, [r7, #4]
 80045a6:	230c      	movs	r3, #12
 80045a8:	33ff      	adds	r3, #255	; 0xff
 80045aa:	5cd3      	ldrb	r3, [r2, r3]
 80045ac:	2201      	movs	r2, #1
 80045ae:	4053      	eors	r3, r2
 80045b0:	b2db      	uxtb	r3, r3
 80045b2:	2b00      	cmp	r3, #0
 80045b4:	d008      	beq.n	80045c8 <handle_req_fc+0x138>
                err = send_exception_msg(nmbs, NMBS_EXCEPTION_ILLEGAL_FUNCTION);
 80045b6:	230f      	movs	r3, #15
 80045b8:	18fc      	adds	r4, r7, r3
 80045ba:	687b      	ldr	r3, [r7, #4]
 80045bc:	2101      	movs	r1, #1
 80045be:	0018      	movs	r0, r3
 80045c0:	f7fc ff8f 	bl	80014e2 <send_exception_msg>
 80045c4:	0003      	movs	r3, r0
 80045c6:	7023      	strb	r3, [r4, #0]
    }

    return err;
 80045c8:	230f      	movs	r3, #15
 80045ca:	18fb      	adds	r3, r7, r3
 80045cc:	781b      	ldrb	r3, [r3, #0]
 80045ce:	b25b      	sxtb	r3, r3
}
 80045d0:	0018      	movs	r0, r3
 80045d2:	46bd      	mov	sp, r7
 80045d4:	b005      	add	sp, #20
 80045d6:	bd90      	pop	{r4, r7, pc}
 80045d8:	08007a08 	.word	0x08007a08

080045dc <nmbs_callbacks_create>:


void nmbs_callbacks_create(nmbs_callbacks* callbacks) {
 80045dc:	b580      	push	{r7, lr}
 80045de:	b082      	sub	sp, #8
 80045e0:	af00      	add	r7, sp, #0
 80045e2:	6078      	str	r0, [r7, #4]
    memset(callbacks, 0, sizeof(nmbs_callbacks));
 80045e4:	687b      	ldr	r3, [r7, #4]
 80045e6:	2238      	movs	r2, #56	; 0x38
 80045e8:	2100      	movs	r1, #0
 80045ea:	0018      	movs	r0, r3
 80045ec:	f003 f9b6 	bl	800795c <memset>
    callbacks->initialized = 0xFFFFDEBE;
 80045f0:	687b      	ldr	r3, [r7, #4]
 80045f2:	4a03      	ldr	r2, [pc, #12]	; (8004600 <nmbs_callbacks_create+0x24>)
 80045f4:	635a      	str	r2, [r3, #52]	; 0x34
}
 80045f6:	46c0      	nop			; (mov r8, r8)
 80045f8:	46bd      	mov	sp, r7
 80045fa:	b002      	add	sp, #8
 80045fc:	bd80      	pop	{r7, pc}
 80045fe:	46c0      	nop			; (mov r8, r8)
 8004600:	ffffdebe 	.word	0xffffdebe

08004604 <nmbs_server_create>:


nmbs_error nmbs_server_create(nmbs_t* nmbs, uint8_t address_rtu, const nmbs_platform_conf* platform_conf,
                              const nmbs_callbacks* callbacks) {
 8004604:	b5b0      	push	{r4, r5, r7, lr}
 8004606:	b086      	sub	sp, #24
 8004608:	af00      	add	r7, sp, #0
 800460a:	60f8      	str	r0, [r7, #12]
 800460c:	607a      	str	r2, [r7, #4]
 800460e:	603b      	str	r3, [r7, #0]
 8004610:	200b      	movs	r0, #11
 8004612:	183b      	adds	r3, r7, r0
 8004614:	1c0a      	adds	r2, r1, #0
 8004616:	701a      	strb	r2, [r3, #0]
    if (platform_conf->transport == NMBS_TRANSPORT_RTU && address_rtu == 0)
 8004618:	687b      	ldr	r3, [r7, #4]
 800461a:	781b      	ldrb	r3, [r3, #0]
 800461c:	2b01      	cmp	r3, #1
 800461e:	d106      	bne.n	800462e <nmbs_server_create+0x2a>
 8004620:	183b      	adds	r3, r7, r0
 8004622:	781b      	ldrb	r3, [r3, #0]
 8004624:	2b00      	cmp	r3, #0
 8004626:	d102      	bne.n	800462e <nmbs_server_create+0x2a>
        return NMBS_ERROR_INVALID_ARGUMENT;
 8004628:	2301      	movs	r3, #1
 800462a:	425b      	negs	r3, r3
 800462c:	e02e      	b.n	800468c <nmbs_server_create+0x88>

    if (!callbacks || callbacks->initialized != 0xFFFFDEBE)
 800462e:	683b      	ldr	r3, [r7, #0]
 8004630:	2b00      	cmp	r3, #0
 8004632:	d004      	beq.n	800463e <nmbs_server_create+0x3a>
 8004634:	683b      	ldr	r3, [r7, #0]
 8004636:	6b5b      	ldr	r3, [r3, #52]	; 0x34
 8004638:	4a16      	ldr	r2, [pc, #88]	; (8004694 <nmbs_server_create+0x90>)
 800463a:	4293      	cmp	r3, r2
 800463c:	d002      	beq.n	8004644 <nmbs_server_create+0x40>
        return NMBS_ERROR_INVALID_ARGUMENT;
 800463e:	2301      	movs	r3, #1
 8004640:	425b      	negs	r3, r3
 8004642:	e023      	b.n	800468c <nmbs_server_create+0x88>

    nmbs_error ret = nmbs_create(nmbs, platform_conf);
 8004644:	2517      	movs	r5, #23
 8004646:	197c      	adds	r4, r7, r5
 8004648:	687a      	ldr	r2, [r7, #4]
 800464a:	68fb      	ldr	r3, [r7, #12]
 800464c:	0011      	movs	r1, r2
 800464e:	0018      	movs	r0, r3
 8004650:	f7fc fc30 	bl	8000eb4 <nmbs_create>
 8004654:	0003      	movs	r3, r0
 8004656:	7023      	strb	r3, [r4, #0]
    if (ret != NMBS_ERROR_NONE)
 8004658:	197b      	adds	r3, r7, r5
 800465a:	781b      	ldrb	r3, [r3, #0]
 800465c:	b25b      	sxtb	r3, r3
 800465e:	2b00      	cmp	r3, #0
 8004660:	d003      	beq.n	800466a <nmbs_server_create+0x66>
        return ret;
 8004662:	197b      	adds	r3, r7, r5
 8004664:	781b      	ldrb	r3, [r3, #0]
 8004666:	b25b      	sxtb	r3, r3
 8004668:	e010      	b.n	800468c <nmbs_server_create+0x88>

    nmbs->address_rtu = address_rtu;
 800466a:	68fa      	ldr	r2, [r7, #12]
 800466c:	230b      	movs	r3, #11
 800466e:	18f9      	adds	r1, r7, r3
 8004670:	23b6      	movs	r3, #182	; 0xb6
 8004672:	005b      	lsls	r3, r3, #1
 8004674:	7809      	ldrb	r1, [r1, #0]
 8004676:	54d1      	strb	r1, [r2, r3]
    nmbs->callbacks = *callbacks;
 8004678:	68fa      	ldr	r2, [r7, #12]
 800467a:	2388      	movs	r3, #136	; 0x88
 800467c:	005b      	lsls	r3, r3, #1
 800467e:	6839      	ldr	r1, [r7, #0]
 8004680:	18d3      	adds	r3, r2, r3
 8004682:	2238      	movs	r2, #56	; 0x38
 8004684:	0018      	movs	r0, r3
 8004686:	f003 f9a9 	bl	80079dc <memcpy>

    return NMBS_ERROR_NONE;
 800468a:	2300      	movs	r3, #0
}
 800468c:	0018      	movs	r0, r3
 800468e:	46bd      	mov	sp, r7
 8004690:	b006      	add	sp, #24
 8004692:	bdb0      	pop	{r4, r5, r7, pc}
 8004694:	ffffdebe 	.word	0xffffdebe

08004698 <nmbs_server_poll>:


nmbs_error nmbs_server_poll(nmbs_t* nmbs) {
 8004698:	b5f0      	push	{r4, r5, r6, r7, lr}
 800469a:	b085      	sub	sp, #20
 800469c:	af00      	add	r7, sp, #0
 800469e:	6078      	str	r0, [r7, #4]
    msg_state_reset(nmbs);
 80046a0:	687b      	ldr	r3, [r7, #4]
 80046a2:	0018      	movs	r0, r3
 80046a4:	f7fc fbdc 	bl	8000e60 <msg_state_reset>

    bool first_byte_received = false;
 80046a8:	250e      	movs	r5, #14
 80046aa:	197b      	adds	r3, r7, r5
 80046ac:	2200      	movs	r2, #0
 80046ae:	701a      	strb	r2, [r3, #0]
    nmbs_error err = recv_req_header(nmbs, &first_byte_received);
 80046b0:	260f      	movs	r6, #15
 80046b2:	19bc      	adds	r4, r7, r6
 80046b4:	197a      	adds	r2, r7, r5
 80046b6:	687b      	ldr	r3, [r7, #4]
 80046b8:	0011      	movs	r1, r2
 80046ba:	0018      	movs	r0, r3
 80046bc:	f7fc feba 	bl	8001434 <recv_req_header>
 80046c0:	0003      	movs	r3, r0
 80046c2:	7023      	strb	r3, [r4, #0]
    if (err != NMBS_ERROR_NONE) {
 80046c4:	0031      	movs	r1, r6
 80046c6:	187b      	adds	r3, r7, r1
 80046c8:	781b      	ldrb	r3, [r3, #0]
 80046ca:	b25b      	sxtb	r3, r3
 80046cc:	2b00      	cmp	r3, #0
 80046ce:	d012      	beq.n	80046f6 <nmbs_server_poll+0x5e>
        if (!first_byte_received && err == NMBS_ERROR_TIMEOUT)
 80046d0:	197b      	adds	r3, r7, r5
 80046d2:	781b      	ldrb	r3, [r3, #0]
 80046d4:	2201      	movs	r2, #1
 80046d6:	4053      	eors	r3, r2
 80046d8:	b2db      	uxtb	r3, r3
 80046da:	2b00      	cmp	r3, #0
 80046dc:	d006      	beq.n	80046ec <nmbs_server_poll+0x54>
 80046de:	187b      	adds	r3, r7, r1
 80046e0:	781b      	ldrb	r3, [r3, #0]
 80046e2:	b25b      	sxtb	r3, r3
 80046e4:	3303      	adds	r3, #3
 80046e6:	d101      	bne.n	80046ec <nmbs_server_poll+0x54>
            return NMBS_ERROR_NONE;
 80046e8:	2300      	movs	r3, #0
 80046ea:	e027      	b.n	800473c <nmbs_server_poll+0xa4>

        return err;
 80046ec:	230f      	movs	r3, #15
 80046ee:	18fb      	adds	r3, r7, r3
 80046f0:	781b      	ldrb	r3, [r3, #0]
 80046f2:	b25b      	sxtb	r3, r3
 80046f4:	e022      	b.n	800473c <nmbs_server_poll+0xa4>
        else
            printf("address_rtu %d\t", nmbs->msg.unit_id);
    }
#endif

    err = handle_req_fc(nmbs);
 80046f6:	250f      	movs	r5, #15
 80046f8:	197c      	adds	r4, r7, r5
 80046fa:	687b      	ldr	r3, [r7, #4]
 80046fc:	0018      	movs	r0, r3
 80046fe:	f7ff fec7 	bl	8004490 <handle_req_fc>
 8004702:	0003      	movs	r3, r0
 8004704:	7023      	strb	r3, [r4, #0]
    if (err != NMBS_ERROR_NONE) {
 8004706:	197b      	adds	r3, r7, r5
 8004708:	781b      	ldrb	r3, [r3, #0]
 800470a:	b25b      	sxtb	r3, r3
 800470c:	2b00      	cmp	r3, #0
 800470e:	d014      	beq.n	800473a <nmbs_server_poll+0xa2>
        if (err != NMBS_ERROR_TIMEOUT)
 8004710:	197b      	adds	r3, r7, r5
 8004712:	781b      	ldrb	r3, [r3, #0]
 8004714:	b25b      	sxtb	r3, r3
 8004716:	3303      	adds	r3, #3
 8004718:	d00a      	beq.n	8004730 <nmbs_server_poll+0x98>
            nmbs->platform.flush(nmbs, nmbs->platform.arg);
 800471a:	687a      	ldr	r2, [r7, #4]
 800471c:	23b0      	movs	r3, #176	; 0xb0
 800471e:	005b      	lsls	r3, r3, #1
 8004720:	58d3      	ldr	r3, [r2, r3]
 8004722:	6879      	ldr	r1, [r7, #4]
 8004724:	22b2      	movs	r2, #178	; 0xb2
 8004726:	0052      	lsls	r2, r2, #1
 8004728:	5889      	ldr	r1, [r1, r2]
 800472a:	687a      	ldr	r2, [r7, #4]
 800472c:	0010      	movs	r0, r2
 800472e:	4798      	blx	r3

        return err;
 8004730:	230f      	movs	r3, #15
 8004732:	18fb      	adds	r3, r7, r3
 8004734:	781b      	ldrb	r3, [r3, #0]
 8004736:	b25b      	sxtb	r3, r3
 8004738:	e000      	b.n	800473c <nmbs_server_poll+0xa4>
    }

    return NMBS_ERROR_NONE;
 800473a:	2300      	movs	r3, #0
}
 800473c:	0018      	movs	r0, r3
 800473e:	46bd      	mov	sp, r7
 8004740:	b005      	add	sp, #20
 8004742:	bdf0      	pop	{r4, r5, r6, r7, pc}

08004744 <MX_RTC_Init>:

RTC_HandleTypeDef hrtc;

/* RTC init function */
void MX_RTC_Init(void)
{
 8004744:	b580      	push	{r7, lr}
 8004746:	b086      	sub	sp, #24
 8004748:	af00      	add	r7, sp, #0

  /* USER CODE BEGIN RTC_Init 0 */

  /* USER CODE END RTC_Init 0 */

  RTC_TimeTypeDef sTime = {0};
 800474a:	1d3b      	adds	r3, r7, #4
 800474c:	0018      	movs	r0, r3
 800474e:	2314      	movs	r3, #20
 8004750:	001a      	movs	r2, r3
 8004752:	2100      	movs	r1, #0
 8004754:	f003 f902 	bl	800795c <memset>
  RTC_DateTypeDef sDate = {0};
 8004758:	003b      	movs	r3, r7
 800475a:	2200      	movs	r2, #0
 800475c:	601a      	str	r2, [r3, #0]

  /* USER CODE END RTC_Init 1 */

  /** Initialize RTC Only
  */
  hrtc.Instance = RTC;
 800475e:	4b2d      	ldr	r3, [pc, #180]	; (8004814 <MX_RTC_Init+0xd0>)
 8004760:	4a2d      	ldr	r2, [pc, #180]	; (8004818 <MX_RTC_Init+0xd4>)
 8004762:	601a      	str	r2, [r3, #0]
  hrtc.Init.HourFormat = RTC_HOURFORMAT_24;
 8004764:	4b2b      	ldr	r3, [pc, #172]	; (8004814 <MX_RTC_Init+0xd0>)
 8004766:	2200      	movs	r2, #0
 8004768:	609a      	str	r2, [r3, #8]
  hrtc.Init.AsynchPrediv = 127;
 800476a:	4b2a      	ldr	r3, [pc, #168]	; (8004814 <MX_RTC_Init+0xd0>)
 800476c:	227f      	movs	r2, #127	; 0x7f
 800476e:	60da      	str	r2, [r3, #12]
  hrtc.Init.SynchPrediv = 255;
 8004770:	4b28      	ldr	r3, [pc, #160]	; (8004814 <MX_RTC_Init+0xd0>)
 8004772:	22ff      	movs	r2, #255	; 0xff
 8004774:	611a      	str	r2, [r3, #16]
  hrtc.Init.OutPut = RTC_OUTPUT_DISABLE;
 8004776:	4b27      	ldr	r3, [pc, #156]	; (8004814 <MX_RTC_Init+0xd0>)
 8004778:	2200      	movs	r2, #0
 800477a:	615a      	str	r2, [r3, #20]
  hrtc.Init.OutPutRemap = RTC_OUTPUT_REMAP_NONE;
 800477c:	4b25      	ldr	r3, [pc, #148]	; (8004814 <MX_RTC_Init+0xd0>)
 800477e:	2200      	movs	r2, #0
 8004780:	619a      	str	r2, [r3, #24]
  hrtc.Init.OutPutPolarity = RTC_OUTPUT_POLARITY_HIGH;
 8004782:	4b24      	ldr	r3, [pc, #144]	; (8004814 <MX_RTC_Init+0xd0>)
 8004784:	2200      	movs	r2, #0
 8004786:	61da      	str	r2, [r3, #28]
  hrtc.Init.OutPutType = RTC_OUTPUT_TYPE_OPENDRAIN;
 8004788:	4b22      	ldr	r3, [pc, #136]	; (8004814 <MX_RTC_Init+0xd0>)
 800478a:	2280      	movs	r2, #128	; 0x80
 800478c:	05d2      	lsls	r2, r2, #23
 800478e:	621a      	str	r2, [r3, #32]
  hrtc.Init.OutPutPullUp = RTC_OUTPUT_PULLUP_NONE;
 8004790:	4b20      	ldr	r3, [pc, #128]	; (8004814 <MX_RTC_Init+0xd0>)
 8004792:	2200      	movs	r2, #0
 8004794:	625a      	str	r2, [r3, #36]	; 0x24
  if (HAL_RTC_Init(&hrtc) != HAL_OK)
 8004796:	4b1f      	ldr	r3, [pc, #124]	; (8004814 <MX_RTC_Init+0xd0>)
 8004798:	0018      	movs	r0, r3
 800479a:	f001 fc3d 	bl	8006018 <HAL_RTC_Init>
 800479e:	1e03      	subs	r3, r0, #0
 80047a0:	d001      	beq.n	80047a6 <MX_RTC_Init+0x62>
  {
    Error_Handler();
 80047a2:	f7fb fec9 	bl	8000538 <Error_Handler>

  /* USER CODE END Check_RTC_BKUP */

  /** Initialize RTC and set the Time and Date
  */
  sTime.Hours = 0x0;
 80047a6:	1d3b      	adds	r3, r7, #4
 80047a8:	2200      	movs	r2, #0
 80047aa:	701a      	strb	r2, [r3, #0]
  sTime.Minutes = 0x0;
 80047ac:	1d3b      	adds	r3, r7, #4
 80047ae:	2200      	movs	r2, #0
 80047b0:	705a      	strb	r2, [r3, #1]
  sTime.Seconds = 0x0;
 80047b2:	1d3b      	adds	r3, r7, #4
 80047b4:	2200      	movs	r2, #0
 80047b6:	709a      	strb	r2, [r3, #2]
  sTime.SubSeconds = 0x0;
 80047b8:	1d3b      	adds	r3, r7, #4
 80047ba:	2200      	movs	r2, #0
 80047bc:	605a      	str	r2, [r3, #4]
  sTime.DayLightSaving = RTC_DAYLIGHTSAVING_NONE;
 80047be:	1d3b      	adds	r3, r7, #4
 80047c0:	2200      	movs	r2, #0
 80047c2:	60da      	str	r2, [r3, #12]
  sTime.StoreOperation = RTC_STOREOPERATION_RESET;
 80047c4:	1d3b      	adds	r3, r7, #4
 80047c6:	2200      	movs	r2, #0
 80047c8:	611a      	str	r2, [r3, #16]
  if (HAL_RTC_SetTime(&hrtc, &sTime, RTC_FORMAT_BCD) != HAL_OK)
 80047ca:	1d39      	adds	r1, r7, #4
 80047cc:	4b11      	ldr	r3, [pc, #68]	; (8004814 <MX_RTC_Init+0xd0>)
 80047ce:	2201      	movs	r2, #1
 80047d0:	0018      	movs	r0, r3
 80047d2:	f001 fcc3 	bl	800615c <HAL_RTC_SetTime>
 80047d6:	1e03      	subs	r3, r0, #0
 80047d8:	d001      	beq.n	80047de <MX_RTC_Init+0x9a>
  {
    Error_Handler();
 80047da:	f7fb fead 	bl	8000538 <Error_Handler>
  }
  sDate.WeekDay = RTC_WEEKDAY_MONDAY;
 80047de:	003b      	movs	r3, r7
 80047e0:	2201      	movs	r2, #1
 80047e2:	701a      	strb	r2, [r3, #0]
  sDate.Month = RTC_MONTH_JANUARY;
 80047e4:	003b      	movs	r3, r7
 80047e6:	2201      	movs	r2, #1
 80047e8:	705a      	strb	r2, [r3, #1]
  sDate.Date = 0x1;
 80047ea:	003b      	movs	r3, r7
 80047ec:	2201      	movs	r2, #1
 80047ee:	709a      	strb	r2, [r3, #2]
  sDate.Year = 0x23;
 80047f0:	003b      	movs	r3, r7
 80047f2:	2223      	movs	r2, #35	; 0x23
 80047f4:	70da      	strb	r2, [r3, #3]

  if (HAL_RTC_SetDate(&hrtc, &sDate, RTC_FORMAT_BCD) != HAL_OK)
 80047f6:	0039      	movs	r1, r7
 80047f8:	4b06      	ldr	r3, [pc, #24]	; (8004814 <MX_RTC_Init+0xd0>)
 80047fa:	2201      	movs	r2, #1
 80047fc:	0018      	movs	r0, r3
 80047fe:	f001 fd55 	bl	80062ac <HAL_RTC_SetDate>
 8004802:	1e03      	subs	r3, r0, #0
 8004804:	d001      	beq.n	800480a <MX_RTC_Init+0xc6>
  {
    Error_Handler();
 8004806:	f7fb fe97 	bl	8000538 <Error_Handler>
  }
  /* USER CODE BEGIN RTC_Init 2 */

  /* USER CODE END RTC_Init 2 */

}
 800480a:	46c0      	nop			; (mov r8, r8)
 800480c:	46bd      	mov	sp, r7
 800480e:	b006      	add	sp, #24
 8004810:	bd80      	pop	{r7, pc}
 8004812:	46c0      	nop			; (mov r8, r8)
 8004814:	200002f8 	.word	0x200002f8
 8004818:	40002800 	.word	0x40002800

0800481c <HAL_RTC_MspInit>:

void HAL_RTC_MspInit(RTC_HandleTypeDef* rtcHandle)
{
 800481c:	b590      	push	{r4, r7, lr}
 800481e:	b08b      	sub	sp, #44	; 0x2c
 8004820:	af00      	add	r7, sp, #0
 8004822:	6078      	str	r0, [r7, #4]

  RCC_PeriphCLKInitTypeDef PeriphClkInit = {0};
 8004824:	2410      	movs	r4, #16
 8004826:	193b      	adds	r3, r7, r4
 8004828:	0018      	movs	r0, r3
 800482a:	2318      	movs	r3, #24
 800482c:	001a      	movs	r2, r3
 800482e:	2100      	movs	r1, #0
 8004830:	f003 f894 	bl	800795c <memset>
  if(rtcHandle->Instance==RTC)
 8004834:	687b      	ldr	r3, [r7, #4]
 8004836:	681b      	ldr	r3, [r3, #0]
 8004838:	4a15      	ldr	r2, [pc, #84]	; (8004890 <HAL_RTC_MspInit+0x74>)
 800483a:	4293      	cmp	r3, r2
 800483c:	d124      	bne.n	8004888 <HAL_RTC_MspInit+0x6c>

  /* USER CODE END RTC_MspInit 0 */

  /** Initializes the peripherals clocks
  */
    PeriphClkInit.PeriphClockSelection = RCC_PERIPHCLK_RTC;
 800483e:	193b      	adds	r3, r7, r4
 8004840:	2280      	movs	r2, #128	; 0x80
 8004842:	0292      	lsls	r2, r2, #10
 8004844:	601a      	str	r2, [r3, #0]
    PeriphClkInit.RTCClockSelection = RCC_RTCCLKSOURCE_LSE;
 8004846:	193b      	adds	r3, r7, r4
 8004848:	2280      	movs	r2, #128	; 0x80
 800484a:	0052      	lsls	r2, r2, #1
 800484c:	615a      	str	r2, [r3, #20]

    if (HAL_RCCEx_PeriphCLKConfig(&PeriphClkInit) != HAL_OK)
 800484e:	193b      	adds	r3, r7, r4
 8004850:	0018      	movs	r0, r3
 8004852:	f001 fabb 	bl	8005dcc <HAL_RCCEx_PeriphCLKConfig>
 8004856:	1e03      	subs	r3, r0, #0
 8004858:	d001      	beq.n	800485e <HAL_RTC_MspInit+0x42>
    {
      Error_Handler();
 800485a:	f7fb fe6d 	bl	8000538 <Error_Handler>
    }

    /* RTC clock enable */
    __HAL_RCC_RTC_ENABLE();
 800485e:	4b0d      	ldr	r3, [pc, #52]	; (8004894 <HAL_RTC_MspInit+0x78>)
 8004860:	6dda      	ldr	r2, [r3, #92]	; 0x5c
 8004862:	4b0c      	ldr	r3, [pc, #48]	; (8004894 <HAL_RTC_MspInit+0x78>)
 8004864:	2180      	movs	r1, #128	; 0x80
 8004866:	0209      	lsls	r1, r1, #8
 8004868:	430a      	orrs	r2, r1
 800486a:	65da      	str	r2, [r3, #92]	; 0x5c
    __HAL_RCC_RTCAPB_CLK_ENABLE();
 800486c:	4b09      	ldr	r3, [pc, #36]	; (8004894 <HAL_RTC_MspInit+0x78>)
 800486e:	6bda      	ldr	r2, [r3, #60]	; 0x3c
 8004870:	4b08      	ldr	r3, [pc, #32]	; (8004894 <HAL_RTC_MspInit+0x78>)
 8004872:	2180      	movs	r1, #128	; 0x80
 8004874:	00c9      	lsls	r1, r1, #3
 8004876:	430a      	orrs	r2, r1
 8004878:	63da      	str	r2, [r3, #60]	; 0x3c
 800487a:	4b06      	ldr	r3, [pc, #24]	; (8004894 <HAL_RTC_MspInit+0x78>)
 800487c:	6bda      	ldr	r2, [r3, #60]	; 0x3c
 800487e:	2380      	movs	r3, #128	; 0x80
 8004880:	00db      	lsls	r3, r3, #3
 8004882:	4013      	ands	r3, r2
 8004884:	60fb      	str	r3, [r7, #12]
 8004886:	68fb      	ldr	r3, [r7, #12]
  /* USER CODE BEGIN RTC_MspInit 1 */

  /* USER CODE END RTC_MspInit 1 */
  }
}
 8004888:	46c0      	nop			; (mov r8, r8)
 800488a:	46bd      	mov	sp, r7
 800488c:	b00b      	add	sp, #44	; 0x2c
 800488e:	bd90      	pop	{r4, r7, pc}
 8004890:	40002800 	.word	0x40002800
 8004894:	40021000 	.word	0x40021000

08004898 <HAL_MspInit>:
/* USER CODE END 0 */
/**
  * Initializes the Global MSP.
  */
void HAL_MspInit(void)
{
 8004898:	b580      	push	{r7, lr}
 800489a:	b082      	sub	sp, #8
 800489c:	af00      	add	r7, sp, #0
  /* USER CODE BEGIN MspInit 0 */

  /* USER CODE END MspInit 0 */

  __HAL_RCC_SYSCFG_CLK_ENABLE();
 800489e:	4b12      	ldr	r3, [pc, #72]	; (80048e8 <HAL_MspInit+0x50>)
 80048a0:	6c1a      	ldr	r2, [r3, #64]	; 0x40
 80048a2:	4b11      	ldr	r3, [pc, #68]	; (80048e8 <HAL_MspInit+0x50>)
 80048a4:	2101      	movs	r1, #1
 80048a6:	430a      	orrs	r2, r1
 80048a8:	641a      	str	r2, [r3, #64]	; 0x40
 80048aa:	4b0f      	ldr	r3, [pc, #60]	; (80048e8 <HAL_MspInit+0x50>)
 80048ac:	6c1b      	ldr	r3, [r3, #64]	; 0x40
 80048ae:	2201      	movs	r2, #1
 80048b0:	4013      	ands	r3, r2
 80048b2:	607b      	str	r3, [r7, #4]
 80048b4:	687b      	ldr	r3, [r7, #4]
  __HAL_RCC_PWR_CLK_ENABLE();
 80048b6:	4b0c      	ldr	r3, [pc, #48]	; (80048e8 <HAL_MspInit+0x50>)
 80048b8:	6bda      	ldr	r2, [r3, #60]	; 0x3c
 80048ba:	4b0b      	ldr	r3, [pc, #44]	; (80048e8 <HAL_MspInit+0x50>)
 80048bc:	2180      	movs	r1, #128	; 0x80
 80048be:	0549      	lsls	r1, r1, #21
 80048c0:	430a      	orrs	r2, r1
 80048c2:	63da      	str	r2, [r3, #60]	; 0x3c
 80048c4:	4b08      	ldr	r3, [pc, #32]	; (80048e8 <HAL_MspInit+0x50>)
 80048c6:	6bda      	ldr	r2, [r3, #60]	; 0x3c
 80048c8:	2380      	movs	r3, #128	; 0x80
 80048ca:	055b      	lsls	r3, r3, #21
 80048cc:	4013      	ands	r3, r2
 80048ce:	603b      	str	r3, [r7, #0]
 80048d0:	683b      	ldr	r3, [r7, #0]

  /* System interrupt init*/

  HAL_SYSCFG_EnableRemap(SYSCFG_REMAP_PA11);
 80048d2:	2008      	movs	r0, #8
 80048d4:	f000 fa2a 	bl	8004d2c <HAL_SYSCFG_EnableRemap>
  HAL_SYSCFG_EnableRemap(SYSCFG_REMAP_PA12);
 80048d8:	2010      	movs	r0, #16
 80048da:	f000 fa27 	bl	8004d2c <HAL_SYSCFG_EnableRemap>

  /* USER CODE BEGIN MspInit 1 */

  /* USER CODE END MspInit 1 */
}
 80048de:	46c0      	nop			; (mov r8, r8)
 80048e0:	46bd      	mov	sp, r7
 80048e2:	b002      	add	sp, #8
 80048e4:	bd80      	pop	{r7, pc}
 80048e6:	46c0      	nop			; (mov r8, r8)
 80048e8:	40021000 	.word	0x40021000

080048ec <NMI_Handler>:
/******************************************************************************/
/**
  * @brief This function handles Non maskable interrupt.
  */
void NMI_Handler(void)
{
 80048ec:	b580      	push	{r7, lr}
 80048ee:	af00      	add	r7, sp, #0
  /* USER CODE BEGIN NonMaskableInt_IRQn 0 */

  /* USER CODE END NonMaskableInt_IRQn 0 */
  /* USER CODE BEGIN NonMaskableInt_IRQn 1 */
  while (1)
 80048f0:	e7fe      	b.n	80048f0 <NMI_Handler+0x4>

080048f2 <HardFault_Handler>:

/**
  * @brief This function handles Hard fault interrupt.
  */
void HardFault_Handler(void)
{
 80048f2:	b580      	push	{r7, lr}
 80048f4:	af00      	add	r7, sp, #0
  /* USER CODE BEGIN HardFault_IRQn 0 */

  /* USER CODE END HardFault_IRQn 0 */
  while (1)
 80048f6:	e7fe      	b.n	80048f6 <HardFault_Handler+0x4>

080048f8 <SVC_Handler>:

/**
  * @brief This function handles System service call via SWI instruction.
  */
void SVC_Handler(void)
{
 80048f8:	b580      	push	{r7, lr}
 80048fa:	af00      	add	r7, sp, #0

  /* USER CODE END SVC_IRQn 0 */
  /* USER CODE BEGIN SVC_IRQn 1 */

  /* USER CODE END SVC_IRQn 1 */
}
 80048fc:	46c0      	nop			; (mov r8, r8)
 80048fe:	46bd      	mov	sp, r7
 8004900:	bd80      	pop	{r7, pc}

08004902 <PendSV_Handler>:

/**
  * @brief This function handles Pendable request for system service.
  */
void PendSV_Handler(void)
{
 8004902:	b580      	push	{r7, lr}
 8004904:	af00      	add	r7, sp, #0

  /* USER CODE END PendSV_IRQn 0 */
  /* USER CODE BEGIN PendSV_IRQn 1 */

  /* USER CODE END PendSV_IRQn 1 */
}
 8004906:	46c0      	nop			; (mov r8, r8)
 8004908:	46bd      	mov	sp, r7
 800490a:	bd80      	pop	{r7, pc}

0800490c <SysTick_Handler>:

/**
  * @brief This function handles System tick timer.
  */
void SysTick_Handler(void)
{
 800490c:	b580      	push	{r7, lr}
 800490e:	af00      	add	r7, sp, #0
  /* USER CODE BEGIN SysTick_IRQn 0 */

  /* USER CODE END SysTick_IRQn 0 */
  HAL_IncTick();
 8004910:	f000 f9d2 	bl	8004cb8 <HAL_IncTick>
  /* USER CODE BEGIN SysTick_IRQn 1 */

  /* USER CODE END SysTick_IRQn 1 */
}
 8004914:	46c0      	nop			; (mov r8, r8)
 8004916:	46bd      	mov	sp, r7
 8004918:	bd80      	pop	{r7, pc}
	...

0800491c <USART2_IRQHandler>:

/**
  * @brief This function handles USART2 global interrupt / USART2 wake-up interrupt through EXTI line 26.
  */
void USART2_IRQHandler(void)
{
 800491c:	b580      	push	{r7, lr}
 800491e:	af00      	add	r7, sp, #0
  /* USER CODE BEGIN USART2_IRQn 0 */
  Modbus_UART_IRQHandler();
 8004920:	f7fc f810 	bl	8000944 <Modbus_UART_IRQHandler>
  /* USER CODE END USART2_IRQn 0 */
  HAL_UART_IRQHandler(&huart2);
 8004924:	4b03      	ldr	r3, [pc, #12]	; (8004934 <USART2_IRQHandler+0x18>)
 8004926:	0018      	movs	r0, r3
 8004928:	f001 ff2a 	bl	8006780 <HAL_UART_IRQHandler>
  /* USER CODE BEGIN USART2_IRQn 1 */

  /* USER CODE END USART2_IRQn 1 */
}
 800492c:	46c0      	nop			; (mov r8, r8)
 800492e:	46bd      	mov	sp, r7
 8004930:	bd80      	pop	{r7, pc}
 8004932:	46c0      	nop			; (mov r8, r8)
 8004934:	200003b8 	.word	0x200003b8

08004938 <SystemInit>:
  * @brief  Setup the microcontroller system.
  * @param  None
  * @retval None
  */
void SystemInit(void)
{
 8004938:	b580      	push	{r7, lr}
 800493a:	af00      	add	r7, sp, #0
  /* Configure the Vector Table location -------------------------------------*/
#if defined(USER_VECT_TAB_ADDRESS)
  SCB->VTOR = VECT_TAB_BASE_ADDRESS | VECT_TAB_OFFSET; /* Vector Table Relocation */
#endif /* USER_VECT_TAB_ADDRESS */
}
 800493c:	46c0      	nop			; (mov r8, r8)
 800493e:	46bd      	mov	sp, r7
 8004940:	bd80      	pop	{r7, pc}
	...

08004944 <MX_USART1_UART_Init>:
UART_HandleTypeDef huart2;

/* USART1 init function */

void MX_USART1_UART_Init(void)
{
 8004944:	b580      	push	{r7, lr}
 8004946:	af00      	add	r7, sp, #0
  /* USER CODE END USART1_Init 0 */

  /* USER CODE BEGIN USART1_Init 1 */

  /* USER CODE END USART1_Init 1 */
  huart1.Instance = USART1;
 8004948:	4b23      	ldr	r3, [pc, #140]	; (80049d8 <MX_USART1_UART_Init+0x94>)
 800494a:	4a24      	ldr	r2, [pc, #144]	; (80049dc <MX_USART1_UART_Init+0x98>)
 800494c:	601a      	str	r2, [r3, #0]
  huart1.Init.BaudRate = 115200;
 800494e:	4b22      	ldr	r3, [pc, #136]	; (80049d8 <MX_USART1_UART_Init+0x94>)
 8004950:	22e1      	movs	r2, #225	; 0xe1
 8004952:	0252      	lsls	r2, r2, #9
 8004954:	605a      	str	r2, [r3, #4]
  huart1.Init.WordLength = UART_WORDLENGTH_8B;
 8004956:	4b20      	ldr	r3, [pc, #128]	; (80049d8 <MX_USART1_UART_Init+0x94>)
 8004958:	2200      	movs	r2, #0
 800495a:	609a      	str	r2, [r3, #8]
  huart1.Init.StopBits = UART_STOPBITS_1;
 800495c:	4b1e      	ldr	r3, [pc, #120]	; (80049d8 <MX_USART1_UART_Init+0x94>)
 800495e:	2200      	movs	r2, #0
 8004960:	60da      	str	r2, [r3, #12]
  huart1.Init.Parity = UART_PARITY_NONE;
 8004962:	4b1d      	ldr	r3, [pc, #116]	; (80049d8 <MX_USART1_UART_Init+0x94>)
 8004964:	2200      	movs	r2, #0
 8004966:	611a      	str	r2, [r3, #16]
  huart1.Init.Mode = UART_MODE_TX_RX;
 8004968:	4b1b      	ldr	r3, [pc, #108]	; (80049d8 <MX_USART1_UART_Init+0x94>)
 800496a:	220c      	movs	r2, #12
 800496c:	615a      	str	r2, [r3, #20]
  huart1.Init.HwFlowCtl = UART_HWCONTROL_NONE;
 800496e:	4b1a      	ldr	r3, [pc, #104]	; (80049d8 <MX_USART1_UART_Init+0x94>)
 8004970:	2200      	movs	r2, #0
 8004972:	619a      	str	r2, [r3, #24]
  huart1.Init.OverSampling = UART_OVERSAMPLING_16;
 8004974:	4b18      	ldr	r3, [pc, #96]	; (80049d8 <MX_USART1_UART_Init+0x94>)
 8004976:	2200      	movs	r2, #0
 8004978:	61da      	str	r2, [r3, #28]
  huart1.Init.OneBitSampling = UART_ONE_BIT_SAMPLE_DISABLE;
 800497a:	4b17      	ldr	r3, [pc, #92]	; (80049d8 <MX_USART1_UART_Init+0x94>)
 800497c:	2200      	movs	r2, #0
 800497e:	621a      	str	r2, [r3, #32]
  huart1.Init.ClockPrescaler = UART_PRESCALER_DIV1;
 8004980:	4b15      	ldr	r3, [pc, #84]	; (80049d8 <MX_USART1_UART_Init+0x94>)
 8004982:	2200      	movs	r2, #0
 8004984:	625a      	str	r2, [r3, #36]	; 0x24
  huart1.AdvancedInit.AdvFeatureInit = UART_ADVFEATURE_NO_INIT;
 8004986:	4b14      	ldr	r3, [pc, #80]	; (80049d8 <MX_USART1_UART_Init+0x94>)
 8004988:	2200      	movs	r2, #0
 800498a:	629a      	str	r2, [r3, #40]	; 0x28
  if (HAL_UART_Init(&huart1) != HAL_OK)
 800498c:	4b12      	ldr	r3, [pc, #72]	; (80049d8 <MX_USART1_UART_Init+0x94>)
 800498e:	0018      	movs	r0, r3
 8004990:	f001 fdf2 	bl	8006578 <HAL_UART_Init>
 8004994:	1e03      	subs	r3, r0, #0
 8004996:	d001      	beq.n	800499c <MX_USART1_UART_Init+0x58>
  {
    Error_Handler();
 8004998:	f7fb fdce 	bl	8000538 <Error_Handler>
  }
  if (HAL_UARTEx_SetTxFifoThreshold(&huart1, UART_TXFIFO_THRESHOLD_1_8) != HAL_OK)
 800499c:	4b0e      	ldr	r3, [pc, #56]	; (80049d8 <MX_USART1_UART_Init+0x94>)
 800499e:	2100      	movs	r1, #0
 80049a0:	0018      	movs	r0, r3
 80049a2:	f002 feed 	bl	8007780 <HAL_UARTEx_SetTxFifoThreshold>
 80049a6:	1e03      	subs	r3, r0, #0
 80049a8:	d001      	beq.n	80049ae <MX_USART1_UART_Init+0x6a>
  {
    Error_Handler();
 80049aa:	f7fb fdc5 	bl	8000538 <Error_Handler>
  }
  if (HAL_UARTEx_SetRxFifoThreshold(&huart1, UART_RXFIFO_THRESHOLD_1_8) != HAL_OK)
 80049ae:	4b0a      	ldr	r3, [pc, #40]	; (80049d8 <MX_USART1_UART_Init+0x94>)
 80049b0:	2100      	movs	r1, #0
 80049b2:	0018      	movs	r0, r3
 80049b4:	f002 ff24 	bl	8007800 <HAL_UARTEx_SetRxFifoThreshold>
 80049b8:	1e03      	subs	r3, r0, #0
 80049ba:	d001      	beq.n	80049c0 <MX_USART1_UART_Init+0x7c>
  {
    Error_Handler();
 80049bc:	f7fb fdbc 	bl	8000538 <Error_Handler>
  }
  if (HAL_UARTEx_DisableFifoMode(&huart1) != HAL_OK)
 80049c0:	4b05      	ldr	r3, [pc, #20]	; (80049d8 <MX_USART1_UART_Init+0x94>)
 80049c2:	0018      	movs	r0, r3
 80049c4:	f002 fea2 	bl	800770c <HAL_UARTEx_DisableFifoMode>
 80049c8:	1e03      	subs	r3, r0, #0
 80049ca:	d001      	beq.n	80049d0 <MX_USART1_UART_Init+0x8c>
  {
    Error_Handler();
 80049cc:	f7fb fdb4 	bl	8000538 <Error_Handler>
  }
  /* USER CODE BEGIN USART1_Init 2 */

  /* USER CODE END USART1_Init 2 */

}
 80049d0:	46c0      	nop			; (mov r8, r8)
 80049d2:	46bd      	mov	sp, r7
 80049d4:	bd80      	pop	{r7, pc}
 80049d6:	46c0      	nop			; (mov r8, r8)
 80049d8:	20000324 	.word	0x20000324
 80049dc:	40013800 	.word	0x40013800

080049e0 <MX_USART2_UART_Init>:
/* USART2 init function */

void MX_USART2_UART_Init(void)
{
 80049e0:	b580      	push	{r7, lr}
 80049e2:	af00      	add	r7, sp, #0
  /* USER CODE END USART2_Init 0 */

  /* USER CODE BEGIN USART2_Init 1 */

  /* USER CODE END USART2_Init 1 */
  huart2.Instance = USART2;
 80049e4:	4b17      	ldr	r3, [pc, #92]	; (8004a44 <MX_USART2_UART_Init+0x64>)
 80049e6:	4a18      	ldr	r2, [pc, #96]	; (8004a48 <MX_USART2_UART_Init+0x68>)
 80049e8:	601a      	str	r2, [r3, #0]
  huart2.Init.BaudRate = 9600;
 80049ea:	4b16      	ldr	r3, [pc, #88]	; (8004a44 <MX_USART2_UART_Init+0x64>)
 80049ec:	2296      	movs	r2, #150	; 0x96
 80049ee:	0192      	lsls	r2, r2, #6
 80049f0:	605a      	str	r2, [r3, #4]
  huart2.Init.WordLength = UART_WORDLENGTH_8B;
 80049f2:	4b14      	ldr	r3, [pc, #80]	; (8004a44 <MX_USART2_UART_Init+0x64>)
 80049f4:	2200      	movs	r2, #0
 80049f6:	609a      	str	r2, [r3, #8]
  huart2.Init.StopBits = UART_STOPBITS_1;
 80049f8:	4b12      	ldr	r3, [pc, #72]	; (8004a44 <MX_USART2_UART_Init+0x64>)
 80049fa:	2200      	movs	r2, #0
 80049fc:	60da      	str	r2, [r3, #12]
  huart2.Init.Parity = UART_PARITY_NONE;
 80049fe:	4b11      	ldr	r3, [pc, #68]	; (8004a44 <MX_USART2_UART_Init+0x64>)
 8004a00:	2200      	movs	r2, #0
 8004a02:	611a      	str	r2, [r3, #16]
  huart2.Init.Mode = UART_MODE_TX_RX;
 8004a04:	4b0f      	ldr	r3, [pc, #60]	; (8004a44 <MX_USART2_UART_Init+0x64>)
 8004a06:	220c      	movs	r2, #12
 8004a08:	615a      	str	r2, [r3, #20]
  huart2.Init.HwFlowCtl = UART_HWCONTROL_NONE;
 8004a0a:	4b0e      	ldr	r3, [pc, #56]	; (8004a44 <MX_USART2_UART_Init+0x64>)
 8004a0c:	2200      	movs	r2, #0
 8004a0e:	619a      	str	r2, [r3, #24]
  huart2.Init.OverSampling = UART_OVERSAMPLING_16;
 8004a10:	4b0c      	ldr	r3, [pc, #48]	; (8004a44 <MX_USART2_UART_Init+0x64>)
 8004a12:	2200      	movs	r2, #0
 8004a14:	61da      	str	r2, [r3, #28]
  huart2.Init.OneBitSampling = UART_ONE_BIT_SAMPLE_DISABLE;
 8004a16:	4b0b      	ldr	r3, [pc, #44]	; (8004a44 <MX_USART2_UART_Init+0x64>)
 8004a18:	2200      	movs	r2, #0
 8004a1a:	621a      	str	r2, [r3, #32]
  huart2.Init.ClockPrescaler = UART_PRESCALER_DIV1;
 8004a1c:	4b09      	ldr	r3, [pc, #36]	; (8004a44 <MX_USART2_UART_Init+0x64>)
 8004a1e:	2200      	movs	r2, #0
 8004a20:	625a      	str	r2, [r3, #36]	; 0x24
  huart2.AdvancedInit.AdvFeatureInit = UART_ADVFEATURE_NO_INIT;
 8004a22:	4b08      	ldr	r3, [pc, #32]	; (8004a44 <MX_USART2_UART_Init+0x64>)
 8004a24:	2200      	movs	r2, #0
 8004a26:	629a      	str	r2, [r3, #40]	; 0x28
  if (HAL_RS485Ex_Init(&huart2, UART_DE_POLARITY_HIGH, 0, 0) != HAL_OK)
 8004a28:	4806      	ldr	r0, [pc, #24]	; (8004a44 <MX_USART2_UART_Init+0x64>)
 8004a2a:	2300      	movs	r3, #0
 8004a2c:	2200      	movs	r2, #0
 8004a2e:	2100      	movs	r1, #0
 8004a30:	f002 fde2 	bl	80075f8 <HAL_RS485Ex_Init>
 8004a34:	1e03      	subs	r3, r0, #0
 8004a36:	d001      	beq.n	8004a3c <MX_USART2_UART_Init+0x5c>
  {
    Error_Handler();
 8004a38:	f7fb fd7e 	bl	8000538 <Error_Handler>
  }
  /* USER CODE BEGIN USART2_Init 2 */

  /* USER CODE END USART2_Init 2 */

}
 8004a3c:	46c0      	nop			; (mov r8, r8)
 8004a3e:	46bd      	mov	sp, r7
 8004a40:	bd80      	pop	{r7, pc}
 8004a42:	46c0      	nop			; (mov r8, r8)
 8004a44:	200003b8 	.word	0x200003b8
 8004a48:	40004400 	.word	0x40004400

08004a4c <HAL_UART_MspInit>:

void HAL_UART_MspInit(UART_HandleTypeDef* uartHandle)
{
 8004a4c:	b590      	push	{r4, r7, lr}
 8004a4e:	b093      	sub	sp, #76	; 0x4c
 8004a50:	af00      	add	r7, sp, #0
 8004a52:	6078      	str	r0, [r7, #4]

  GPIO_InitTypeDef GPIO_InitStruct = {0};
 8004a54:	2334      	movs	r3, #52	; 0x34
 8004a56:	18fb      	adds	r3, r7, r3
 8004a58:	0018      	movs	r0, r3
 8004a5a:	2314      	movs	r3, #20
 8004a5c:	001a      	movs	r2, r3
 8004a5e:	2100      	movs	r1, #0
 8004a60:	f002 ff7c 	bl	800795c <memset>
  RCC_PeriphCLKInitTypeDef PeriphClkInit = {0};
 8004a64:	241c      	movs	r4, #28
 8004a66:	193b      	adds	r3, r7, r4
 8004a68:	0018      	movs	r0, r3
 8004a6a:	2318      	movs	r3, #24
 8004a6c:	001a      	movs	r2, r3
 8004a6e:	2100      	movs	r1, #0
 8004a70:	f002 ff74 	bl	800795c <memset>
  if(uartHandle->Instance==USART1)
 8004a74:	687b      	ldr	r3, [r7, #4]
 8004a76:	681b      	ldr	r3, [r3, #0]
 8004a78:	4a42      	ldr	r2, [pc, #264]	; (8004b84 <HAL_UART_MspInit+0x138>)
 8004a7a:	4293      	cmp	r3, r2
 8004a7c:	d140      	bne.n	8004b00 <HAL_UART_MspInit+0xb4>

  /* USER CODE END USART1_MspInit 0 */

  /** Initializes the peripherals clocks
  */
    PeriphClkInit.PeriphClockSelection = RCC_PERIPHCLK_USART1;
 8004a7e:	193b      	adds	r3, r7, r4
 8004a80:	2201      	movs	r2, #1
 8004a82:	601a      	str	r2, [r3, #0]
    PeriphClkInit.Usart1ClockSelection = RCC_USART1CLKSOURCE_PCLK1;
 8004a84:	193b      	adds	r3, r7, r4
 8004a86:	2200      	movs	r2, #0
 8004a88:	605a      	str	r2, [r3, #4]
    if (HAL_RCCEx_PeriphCLKConfig(&PeriphClkInit) != HAL_OK)
 8004a8a:	193b      	adds	r3, r7, r4
 8004a8c:	0018      	movs	r0, r3
 8004a8e:	f001 f99d 	bl	8005dcc <HAL_RCCEx_PeriphCLKConfig>
 8004a92:	1e03      	subs	r3, r0, #0
 8004a94:	d001      	beq.n	8004a9a <HAL_UART_MspInit+0x4e>
    {
      Error_Handler();
 8004a96:	f7fb fd4f 	bl	8000538 <Error_Handler>
    }

    /* USART1 clock enable */
    __HAL_RCC_USART1_CLK_ENABLE();
 8004a9a:	4b3b      	ldr	r3, [pc, #236]	; (8004b88 <HAL_UART_MspInit+0x13c>)
 8004a9c:	6c1a      	ldr	r2, [r3, #64]	; 0x40
 8004a9e:	4b3a      	ldr	r3, [pc, #232]	; (8004b88 <HAL_UART_MspInit+0x13c>)
 8004aa0:	2180      	movs	r1, #128	; 0x80
 8004aa2:	01c9      	lsls	r1, r1, #7
 8004aa4:	430a      	orrs	r2, r1
 8004aa6:	641a      	str	r2, [r3, #64]	; 0x40
 8004aa8:	4b37      	ldr	r3, [pc, #220]	; (8004b88 <HAL_UART_MspInit+0x13c>)
 8004aaa:	6c1a      	ldr	r2, [r3, #64]	; 0x40
 8004aac:	2380      	movs	r3, #128	; 0x80
 8004aae:	01db      	lsls	r3, r3, #7
 8004ab0:	4013      	ands	r3, r2
 8004ab2:	61bb      	str	r3, [r7, #24]
 8004ab4:	69bb      	ldr	r3, [r7, #24]

    __HAL_RCC_GPIOA_CLK_ENABLE();
 8004ab6:	4b34      	ldr	r3, [pc, #208]	; (8004b88 <HAL_UART_MspInit+0x13c>)
 8004ab8:	6b5a      	ldr	r2, [r3, #52]	; 0x34
 8004aba:	4b33      	ldr	r3, [pc, #204]	; (8004b88 <HAL_UART_MspInit+0x13c>)
 8004abc:	2101      	movs	r1, #1
 8004abe:	430a      	orrs	r2, r1
 8004ac0:	635a      	str	r2, [r3, #52]	; 0x34
 8004ac2:	4b31      	ldr	r3, [pc, #196]	; (8004b88 <HAL_UART_MspInit+0x13c>)
 8004ac4:	6b5b      	ldr	r3, [r3, #52]	; 0x34
 8004ac6:	2201      	movs	r2, #1
 8004ac8:	4013      	ands	r3, r2
 8004aca:	617b      	str	r3, [r7, #20]
 8004acc:	697b      	ldr	r3, [r7, #20]
    /**USART1 GPIO Configuration
    PA9 [PA11]     ------> USART1_TX
    PA10 [PA12]     ------> USART1_RX
    */
    GPIO_InitStruct.Pin = GPIO_PIN_9|GPIO_PIN_10;
 8004ace:	2134      	movs	r1, #52	; 0x34
 8004ad0:	187b      	adds	r3, r7, r1
 8004ad2:	22c0      	movs	r2, #192	; 0xc0
 8004ad4:	00d2      	lsls	r2, r2, #3
 8004ad6:	601a      	str	r2, [r3, #0]
    GPIO_InitStruct.Mode = GPIO_MODE_AF_PP;
 8004ad8:	187b      	adds	r3, r7, r1
 8004ada:	2202      	movs	r2, #2
 8004adc:	605a      	str	r2, [r3, #4]
    GPIO_InitStruct.Pull = GPIO_NOPULL;
 8004ade:	187b      	adds	r3, r7, r1
 8004ae0:	2200      	movs	r2, #0
 8004ae2:	609a      	str	r2, [r3, #8]
    GPIO_InitStruct.Speed = GPIO_SPEED_FREQ_LOW;
 8004ae4:	187b      	adds	r3, r7, r1
 8004ae6:	2200      	movs	r2, #0
 8004ae8:	60da      	str	r2, [r3, #12]
    GPIO_InitStruct.Alternate = GPIO_AF1_USART1;
 8004aea:	187b      	adds	r3, r7, r1
 8004aec:	2201      	movs	r2, #1
 8004aee:	611a      	str	r2, [r3, #16]
    HAL_GPIO_Init(GPIOA, &GPIO_InitStruct);
 8004af0:	187a      	adds	r2, r7, r1
 8004af2:	23a0      	movs	r3, #160	; 0xa0
 8004af4:	05db      	lsls	r3, r3, #23
 8004af6:	0011      	movs	r1, r2
 8004af8:	0018      	movs	r0, r3
 8004afa:	f000 fad1 	bl	80050a0 <HAL_GPIO_Init>
    HAL_NVIC_EnableIRQ(USART2_IRQn);
  /* USER CODE BEGIN USART2_MspInit 1 */

  /* USER CODE END USART2_MspInit 1 */
  }
}
 8004afe:	e03d      	b.n	8004b7c <HAL_UART_MspInit+0x130>
  else if(uartHandle->Instance==USART2)
 8004b00:	687b      	ldr	r3, [r7, #4]
 8004b02:	681b      	ldr	r3, [r3, #0]
 8004b04:	4a21      	ldr	r2, [pc, #132]	; (8004b8c <HAL_UART_MspInit+0x140>)
 8004b06:	4293      	cmp	r3, r2
 8004b08:	d138      	bne.n	8004b7c <HAL_UART_MspInit+0x130>
    __HAL_RCC_USART2_CLK_ENABLE();
 8004b0a:	4b1f      	ldr	r3, [pc, #124]	; (8004b88 <HAL_UART_MspInit+0x13c>)
 8004b0c:	6bda      	ldr	r2, [r3, #60]	; 0x3c
 8004b0e:	4b1e      	ldr	r3, [pc, #120]	; (8004b88 <HAL_UART_MspInit+0x13c>)
 8004b10:	2180      	movs	r1, #128	; 0x80
 8004b12:	0289      	lsls	r1, r1, #10
 8004b14:	430a      	orrs	r2, r1
 8004b16:	63da      	str	r2, [r3, #60]	; 0x3c
 8004b18:	4b1b      	ldr	r3, [pc, #108]	; (8004b88 <HAL_UART_MspInit+0x13c>)
 8004b1a:	6bda      	ldr	r2, [r3, #60]	; 0x3c
 8004b1c:	2380      	movs	r3, #128	; 0x80
 8004b1e:	029b      	lsls	r3, r3, #10
 8004b20:	4013      	ands	r3, r2
 8004b22:	613b      	str	r3, [r7, #16]
 8004b24:	693b      	ldr	r3, [r7, #16]
    __HAL_RCC_GPIOA_CLK_ENABLE();
 8004b26:	4b18      	ldr	r3, [pc, #96]	; (8004b88 <HAL_UART_MspInit+0x13c>)
 8004b28:	6b5a      	ldr	r2, [r3, #52]	; 0x34
 8004b2a:	4b17      	ldr	r3, [pc, #92]	; (8004b88 <HAL_UART_MspInit+0x13c>)
 8004b2c:	2101      	movs	r1, #1
 8004b2e:	430a      	orrs	r2, r1
 8004b30:	635a      	str	r2, [r3, #52]	; 0x34
 8004b32:	4b15      	ldr	r3, [pc, #84]	; (8004b88 <HAL_UART_MspInit+0x13c>)
 8004b34:	6b5b      	ldr	r3, [r3, #52]	; 0x34
 8004b36:	2201      	movs	r2, #1
 8004b38:	4013      	ands	r3, r2
 8004b3a:	60fb      	str	r3, [r7, #12]
 8004b3c:	68fb      	ldr	r3, [r7, #12]
    GPIO_InitStruct.Pin = GPIO_PIN_1|GPIO_PIN_2|GPIO_PIN_3;
 8004b3e:	2134      	movs	r1, #52	; 0x34
 8004b40:	187b      	adds	r3, r7, r1
 8004b42:	220e      	movs	r2, #14
 8004b44:	601a      	str	r2, [r3, #0]
    GPIO_InitStruct.Mode = GPIO_MODE_AF_PP;
 8004b46:	187b      	adds	r3, r7, r1
 8004b48:	2202      	movs	r2, #2
 8004b4a:	605a      	str	r2, [r3, #4]
    GPIO_InitStruct.Pull = GPIO_NOPULL;
 8004b4c:	187b      	adds	r3, r7, r1
 8004b4e:	2200      	movs	r2, #0
 8004b50:	609a      	str	r2, [r3, #8]
    GPIO_InitStruct.Speed = GPIO_SPEED_FREQ_LOW;
 8004b52:	187b      	adds	r3, r7, r1
 8004b54:	2200      	movs	r2, #0
 8004b56:	60da      	str	r2, [r3, #12]
    GPIO_InitStruct.Alternate = GPIO_AF1_USART2;
 8004b58:	187b      	adds	r3, r7, r1
 8004b5a:	2201      	movs	r2, #1
 8004b5c:	611a      	str	r2, [r3, #16]
    HAL_GPIO_Init(GPIOA, &GPIO_InitStruct);
 8004b5e:	187a      	adds	r2, r7, r1
 8004b60:	23a0      	movs	r3, #160	; 0xa0
 8004b62:	05db      	lsls	r3, r3, #23
 8004b64:	0011      	movs	r1, r2
 8004b66:	0018      	movs	r0, r3
 8004b68:	f000 fa9a 	bl	80050a0 <HAL_GPIO_Init>
    HAL_NVIC_SetPriority(USART2_IRQn, 0, 0);
 8004b6c:	2200      	movs	r2, #0
 8004b6e:	2100      	movs	r1, #0
 8004b70:	201c      	movs	r0, #28
 8004b72:	f000 f997 	bl	8004ea4 <HAL_NVIC_SetPriority>
    HAL_NVIC_EnableIRQ(USART2_IRQn);
 8004b76:	201c      	movs	r0, #28
 8004b78:	f000 f9a9 	bl	8004ece <HAL_NVIC_EnableIRQ>
}
 8004b7c:	46c0      	nop			; (mov r8, r8)
 8004b7e:	46bd      	mov	sp, r7
 8004b80:	b013      	add	sp, #76	; 0x4c
 8004b82:	bd90      	pop	{r4, r7, pc}
 8004b84:	40013800 	.word	0x40013800
 8004b88:	40021000 	.word	0x40021000
 8004b8c:	40004400 	.word	0x40004400

08004b90 <Reset_Handler>:

  .section .text.Reset_Handler
  .weak Reset_Handler
  .type Reset_Handler, %function
Reset_Handler:
  ldr   r0, =_estack
 8004b90:	480d      	ldr	r0, [pc, #52]	; (8004bc8 <LoopForever+0x2>)
  mov   sp, r0          /* set stack pointer */
 8004b92:	4685      	mov	sp, r0

/* Call the clock system initialization function.*/
  bl  SystemInit
 8004b94:	f7ff fed0 	bl	8004938 <SystemInit>

/* Copy the data segment initializers from flash to SRAM */
  ldr r0, =_sdata
 8004b98:	480c      	ldr	r0, [pc, #48]	; (8004bcc <LoopForever+0x6>)
  ldr r1, =_edata
 8004b9a:	490d      	ldr	r1, [pc, #52]	; (8004bd0 <LoopForever+0xa>)
  ldr r2, =_sidata
 8004b9c:	4a0d      	ldr	r2, [pc, #52]	; (8004bd4 <LoopForever+0xe>)
  movs r3, #0
 8004b9e:	2300      	movs	r3, #0
  b LoopCopyDataInit
 8004ba0:	e002      	b.n	8004ba8 <LoopCopyDataInit>

08004ba2 <CopyDataInit>:

CopyDataInit:
  ldr r4, [r2, r3]
 8004ba2:	58d4      	ldr	r4, [r2, r3]
  str r4, [r0, r3]
 8004ba4:	50c4      	str	r4, [r0, r3]
  adds r3, r3, #4
 8004ba6:	3304      	adds	r3, #4

08004ba8 <LoopCopyDataInit>:

LoopCopyDataInit:
  adds r4, r0, r3
 8004ba8:	18c4      	adds	r4, r0, r3
  cmp r4, r1
 8004baa:	428c      	cmp	r4, r1
  bcc CopyDataInit
 8004bac:	d3f9      	bcc.n	8004ba2 <CopyDataInit>

/* Zero fill the bss segment. */
  ldr r2, =_sbss
 8004bae:	4a0a      	ldr	r2, [pc, #40]	; (8004bd8 <LoopForever+0x12>)
  ldr r4, =_ebss
 8004bb0:	4c0a      	ldr	r4, [pc, #40]	; (8004bdc <LoopForever+0x16>)
  movs r3, #0
 8004bb2:	2300      	movs	r3, #0
  b LoopFillZerobss
 8004bb4:	e001      	b.n	8004bba <LoopFillZerobss>

08004bb6 <FillZerobss>:

FillZerobss:
  str  r3, [r2]
 8004bb6:	6013      	str	r3, [r2, #0]
  adds r2, r2, #4
 8004bb8:	3204      	adds	r2, #4

08004bba <LoopFillZerobss>:

LoopFillZerobss:
  cmp r2, r4
 8004bba:	42a2      	cmp	r2, r4
  bcc FillZerobss
 8004bbc:	d3fb      	bcc.n	8004bb6 <FillZerobss>

/* Call static constructors */
  bl __libc_init_array
 8004bbe:	f002 fee9 	bl	8007994 <__libc_init_array>
/* Call the application s entry point.*/
  bl main
 8004bc2:	f7fb fc3d 	bl	8000440 <main>

08004bc6 <LoopForever>:

LoopForever:
  b LoopForever
 8004bc6:	e7fe      	b.n	8004bc6 <LoopForever>
  ldr   r0, =_estack
 8004bc8:	20002000 	.word	0x20002000
  ldr r0, =_sdata
 8004bcc:	20000000 	.word	0x20000000
  ldr r1, =_edata
 8004bd0:	20000010 	.word	0x20000010
  ldr r2, =_sidata
 8004bd4:	08007b48 	.word	0x08007b48
  ldr r2, =_sbss
 8004bd8:	20000010 	.word	0x20000010
  ldr r4, =_ebss
 8004bdc:	20000450 	.word	0x20000450

08004be0 <ADC1_IRQHandler>:
 * @retval None
*/
  .section .text.Default_Handler,"ax",%progbits
Default_Handler:
Infinite_Loop:
  b Infinite_Loop
 8004be0:	e7fe      	b.n	8004be0 <ADC1_IRQHandler>
	...

08004be4 <HAL_Init>:
  *         each 1ms in the SysTick_Handler() interrupt handler.
  *
  * @retval HAL status
  */
HAL_StatusTypeDef HAL_Init(void)
{
 8004be4:	b580      	push	{r7, lr}
 8004be6:	b082      	sub	sp, #8
 8004be8:	af00      	add	r7, sp, #0
  HAL_StatusTypeDef  status = HAL_OK;
 8004bea:	1dfb      	adds	r3, r7, #7
 8004bec:	2200      	movs	r2, #0
 8004bee:	701a      	strb	r2, [r3, #0]
#if (INSTRUCTION_CACHE_ENABLE == 0U)
  __HAL_FLASH_INSTRUCTION_CACHE_DISABLE();
#endif /* INSTRUCTION_CACHE_ENABLE */

#if (PREFETCH_ENABLE != 0U)
  __HAL_FLASH_PREFETCH_BUFFER_ENABLE();
 8004bf0:	4b0b      	ldr	r3, [pc, #44]	; (8004c20 <HAL_Init+0x3c>)
 8004bf2:	681a      	ldr	r2, [r3, #0]
 8004bf4:	4b0a      	ldr	r3, [pc, #40]	; (8004c20 <HAL_Init+0x3c>)
 8004bf6:	2180      	movs	r1, #128	; 0x80
 8004bf8:	0049      	lsls	r1, r1, #1
 8004bfa:	430a      	orrs	r2, r1
 8004bfc:	601a      	str	r2, [r3, #0]
#endif /* PREFETCH_ENABLE */

  /* Use SysTick as time base source and configure 1ms tick (default clock after Reset is HSI) */
  if (HAL_InitTick(TICK_INT_PRIORITY) != HAL_OK)
 8004bfe:	2003      	movs	r0, #3
 8004c00:	f000 f810 	bl	8004c24 <HAL_InitTick>
 8004c04:	1e03      	subs	r3, r0, #0
 8004c06:	d003      	beq.n	8004c10 <HAL_Init+0x2c>
  {
    status = HAL_ERROR;
 8004c08:	1dfb      	adds	r3, r7, #7
 8004c0a:	2201      	movs	r2, #1
 8004c0c:	701a      	strb	r2, [r3, #0]
 8004c0e:	e001      	b.n	8004c14 <HAL_Init+0x30>
  }
  else
  {
  /* Init the low level hardware */
  HAL_MspInit();
 8004c10:	f7ff fe42 	bl	8004898 <HAL_MspInit>
  }

  /* Return function status */
  return status;
 8004c14:	1dfb      	adds	r3, r7, #7
 8004c16:	781b      	ldrb	r3, [r3, #0]
}
 8004c18:	0018      	movs	r0, r3
 8004c1a:	46bd      	mov	sp, r7
 8004c1c:	b002      	add	sp, #8
 8004c1e:	bd80      	pop	{r7, pc}
 8004c20:	40022000 	.word	0x40022000

08004c24 <HAL_InitTick>:
  *       implementation  in user file.
  * @param TickPriority Tick interrupt priority.
  * @retval HAL status
  */
__weak HAL_StatusTypeDef HAL_InitTick(uint32_t TickPriority)
{
 8004c24:	b590      	push	{r4, r7, lr}
 8004c26:	b085      	sub	sp, #20
 8004c28:	af00      	add	r7, sp, #0
 8004c2a:	6078      	str	r0, [r7, #4]
  HAL_StatusTypeDef  status = HAL_OK;
 8004c2c:	230f      	movs	r3, #15
 8004c2e:	18fb      	adds	r3, r7, r3
 8004c30:	2200      	movs	r2, #0
 8004c32:	701a      	strb	r2, [r3, #0]

  /* Check uwTickFreq for MisraC 2012 (even if uwTickFreq is a enum type that doesn't take the value zero)*/ 
  if ((uint32_t)uwTickFreq != 0U)
 8004c34:	4b1d      	ldr	r3, [pc, #116]	; (8004cac <HAL_InitTick+0x88>)
 8004c36:	781b      	ldrb	r3, [r3, #0]
 8004c38:	2b00      	cmp	r3, #0
 8004c3a:	d02b      	beq.n	8004c94 <HAL_InitTick+0x70>
  {
    /*Configure the SysTick to have interrupt in 1ms time basis*/
    if (HAL_SYSTICK_Config(SystemCoreClock / (1000U /(uint32_t)uwTickFreq)) == 0U)
 8004c3c:	4b1c      	ldr	r3, [pc, #112]	; (8004cb0 <HAL_InitTick+0x8c>)
 8004c3e:	681c      	ldr	r4, [r3, #0]
 8004c40:	4b1a      	ldr	r3, [pc, #104]	; (8004cac <HAL_InitTick+0x88>)
 8004c42:	781b      	ldrb	r3, [r3, #0]
 8004c44:	0019      	movs	r1, r3
 8004c46:	23fa      	movs	r3, #250	; 0xfa
 8004c48:	0098      	lsls	r0, r3, #2
 8004c4a:	f7fb fa61 	bl	8000110 <__udivsi3>
 8004c4e:	0003      	movs	r3, r0
 8004c50:	0019      	movs	r1, r3
 8004c52:	0020      	movs	r0, r4
 8004c54:	f7fb fa5c 	bl	8000110 <__udivsi3>
 8004c58:	0003      	movs	r3, r0
 8004c5a:	0018      	movs	r0, r3
 8004c5c:	f000 f947 	bl	8004eee <HAL_SYSTICK_Config>
 8004c60:	1e03      	subs	r3, r0, #0
 8004c62:	d112      	bne.n	8004c8a <HAL_InitTick+0x66>
    {
      /* Configure the SysTick IRQ priority */
      if (TickPriority < (1UL << __NVIC_PRIO_BITS))
 8004c64:	687b      	ldr	r3, [r7, #4]
 8004c66:	2b03      	cmp	r3, #3
 8004c68:	d80a      	bhi.n	8004c80 <HAL_InitTick+0x5c>
      {
        HAL_NVIC_SetPriority(SysTick_IRQn, TickPriority, 0U);
 8004c6a:	6879      	ldr	r1, [r7, #4]
 8004c6c:	2301      	movs	r3, #1
 8004c6e:	425b      	negs	r3, r3
 8004c70:	2200      	movs	r2, #0
 8004c72:	0018      	movs	r0, r3
 8004c74:	f000 f916 	bl	8004ea4 <HAL_NVIC_SetPriority>
        uwTickPrio = TickPriority;
 8004c78:	4b0e      	ldr	r3, [pc, #56]	; (8004cb4 <HAL_InitTick+0x90>)
 8004c7a:	687a      	ldr	r2, [r7, #4]
 8004c7c:	601a      	str	r2, [r3, #0]
 8004c7e:	e00d      	b.n	8004c9c <HAL_InitTick+0x78>
      }
      else
      {
        status = HAL_ERROR;
 8004c80:	230f      	movs	r3, #15
 8004c82:	18fb      	adds	r3, r7, r3
 8004c84:	2201      	movs	r2, #1
 8004c86:	701a      	strb	r2, [r3, #0]
 8004c88:	e008      	b.n	8004c9c <HAL_InitTick+0x78>
      }
    }
    else
    {
      status = HAL_ERROR;
 8004c8a:	230f      	movs	r3, #15
 8004c8c:	18fb      	adds	r3, r7, r3
 8004c8e:	2201      	movs	r2, #1
 8004c90:	701a      	strb	r2, [r3, #0]
 8004c92:	e003      	b.n	8004c9c <HAL_InitTick+0x78>
    }
  }
  else
  {
    status = HAL_ERROR;
 8004c94:	230f      	movs	r3, #15
 8004c96:	18fb      	adds	r3, r7, r3
 8004c98:	2201      	movs	r2, #1
 8004c9a:	701a      	strb	r2, [r3, #0]
  }

  /* Return function status */
  return status;
 8004c9c:	230f      	movs	r3, #15
 8004c9e:	18fb      	adds	r3, r7, r3
 8004ca0:	781b      	ldrb	r3, [r3, #0]
}
 8004ca2:	0018      	movs	r0, r3
 8004ca4:	46bd      	mov	sp, r7
 8004ca6:	b005      	add	sp, #20
 8004ca8:	bd90      	pop	{r4, r7, pc}
 8004caa:	46c0      	nop			; (mov r8, r8)
 8004cac:	2000000c 	.word	0x2000000c
 8004cb0:	20000004 	.word	0x20000004
 8004cb4:	20000008 	.word	0x20000008

08004cb8 <HAL_IncTick>:
  * @note This function is declared as __weak to be overwritten in case of other
  *      implementations in user file.
  * @retval None
  */
__weak void HAL_IncTick(void)
{
 8004cb8:	b580      	push	{r7, lr}
 8004cba:	af00      	add	r7, sp, #0
  uwTick += (uint32_t)uwTickFreq;
 8004cbc:	4b05      	ldr	r3, [pc, #20]	; (8004cd4 <HAL_IncTick+0x1c>)
 8004cbe:	781b      	ldrb	r3, [r3, #0]
 8004cc0:	001a      	movs	r2, r3
 8004cc2:	4b05      	ldr	r3, [pc, #20]	; (8004cd8 <HAL_IncTick+0x20>)
 8004cc4:	681b      	ldr	r3, [r3, #0]
 8004cc6:	18d2      	adds	r2, r2, r3
 8004cc8:	4b03      	ldr	r3, [pc, #12]	; (8004cd8 <HAL_IncTick+0x20>)
 8004cca:	601a      	str	r2, [r3, #0]
}
 8004ccc:	46c0      	nop			; (mov r8, r8)
 8004cce:	46bd      	mov	sp, r7
 8004cd0:	bd80      	pop	{r7, pc}
 8004cd2:	46c0      	nop			; (mov r8, r8)
 8004cd4:	2000000c 	.word	0x2000000c
 8004cd8:	2000044c 	.word	0x2000044c

08004cdc <HAL_GetTick>:
  * @note This function is declared as __weak to be overwritten in case of other
  *       implementations in user file.
  * @retval tick value
  */
__weak uint32_t HAL_GetTick(void)
{
 8004cdc:	b580      	push	{r7, lr}
 8004cde:	af00      	add	r7, sp, #0
  return uwTick;
 8004ce0:	4b02      	ldr	r3, [pc, #8]	; (8004cec <HAL_GetTick+0x10>)
 8004ce2:	681b      	ldr	r3, [r3, #0]
}
 8004ce4:	0018      	movs	r0, r3
 8004ce6:	46bd      	mov	sp, r7
 8004ce8:	bd80      	pop	{r7, pc}
 8004cea:	46c0      	nop			; (mov r8, r8)
 8004cec:	2000044c 	.word	0x2000044c

08004cf0 <HAL_GetUIDw0>:
/**
  * @brief  Returns first word of the unique device identifier (UID based on 96 bits)
  * @retval Device identifier
  */
uint32_t HAL_GetUIDw0(void)
{
 8004cf0:	b580      	push	{r7, lr}
 8004cf2:	af00      	add	r7, sp, #0
  return (READ_REG(*((uint32_t *)UID_BASE)));
 8004cf4:	4b02      	ldr	r3, [pc, #8]	; (8004d00 <HAL_GetUIDw0+0x10>)
 8004cf6:	681b      	ldr	r3, [r3, #0]
}
 8004cf8:	0018      	movs	r0, r3
 8004cfa:	46bd      	mov	sp, r7
 8004cfc:	bd80      	pop	{r7, pc}
 8004cfe:	46c0      	nop			; (mov r8, r8)
 8004d00:	1fff7590 	.word	0x1fff7590

08004d04 <HAL_GetUIDw1>:
/**
  * @brief  Returns second word of the unique device identifier (UID based on 96 bits)
  * @retval Device identifier
  */
uint32_t HAL_GetUIDw1(void)
{
 8004d04:	b580      	push	{r7, lr}
 8004d06:	af00      	add	r7, sp, #0
  return (READ_REG(*((uint32_t *)(UID_BASE + 4U))));
 8004d08:	4b02      	ldr	r3, [pc, #8]	; (8004d14 <HAL_GetUIDw1+0x10>)
 8004d0a:	681b      	ldr	r3, [r3, #0]
}
 8004d0c:	0018      	movs	r0, r3
 8004d0e:	46bd      	mov	sp, r7
 8004d10:	bd80      	pop	{r7, pc}
 8004d12:	46c0      	nop			; (mov r8, r8)
 8004d14:	1fff7594 	.word	0x1fff7594

08004d18 <HAL_GetUIDw2>:
/**
  * @brief  Returns third word of the unique device identifier (UID based on 96 bits)
  * @retval Device identifier
  */
uint32_t HAL_GetUIDw2(void)
{
 8004d18:	b580      	push	{r7, lr}
 8004d1a:	af00      	add	r7, sp, #0
  return (READ_REG(*((uint32_t *)(UID_BASE + 8U))));
 8004d1c:	4b02      	ldr	r3, [pc, #8]	; (8004d28 <HAL_GetUIDw2+0x10>)
 8004d1e:	681b      	ldr	r3, [r3, #0]
}
 8004d20:	0018      	movs	r0, r3
 8004d22:	46bd      	mov	sp, r7
 8004d24:	bd80      	pop	{r7, pc}
 8004d26:	46c0      	nop			; (mov r8, r8)
 8004d28:	1fff7598 	.word	0x1fff7598

08004d2c <HAL_SYSCFG_EnableRemap>:
  *         @arg @ref SYSCFG_REMAP_PA11
  *         @arg @ref SYSCFG_REMAP_PA12
  * @retval None
  */
void HAL_SYSCFG_EnableRemap(uint32_t PinRemap)
{
 8004d2c:	b580      	push	{r7, lr}
 8004d2e:	b082      	sub	sp, #8
 8004d30:	af00      	add	r7, sp, #0
 8004d32:	6078      	str	r0, [r7, #4]
  /* Check the parameter */
  assert_param(IS_HAL_REMAP_PIN(PinRemap));
  SET_BIT(SYSCFG->CFGR1, PinRemap);
 8004d34:	4b04      	ldr	r3, [pc, #16]	; (8004d48 <HAL_SYSCFG_EnableRemap+0x1c>)
 8004d36:	6819      	ldr	r1, [r3, #0]
 8004d38:	4b03      	ldr	r3, [pc, #12]	; (8004d48 <HAL_SYSCFG_EnableRemap+0x1c>)
 8004d3a:	687a      	ldr	r2, [r7, #4]
 8004d3c:	430a      	orrs	r2, r1
 8004d3e:	601a      	str	r2, [r3, #0]
}
 8004d40:	46c0      	nop			; (mov r8, r8)
 8004d42:	46bd      	mov	sp, r7
 8004d44:	b002      	add	sp, #8
 8004d46:	bd80      	pop	{r7, pc}
 8004d48:	40010000 	.word	0x40010000

08004d4c <__NVIC_EnableIRQ>:
  \details Enables a device specific interrupt in the NVIC interrupt controller.
  \param [in]      IRQn  Device specific interrupt number.
  \note    IRQn must not be negative.
 */
__STATIC_INLINE void __NVIC_EnableIRQ(IRQn_Type IRQn)
{
 8004d4c:	b580      	push	{r7, lr}
 8004d4e:	b082      	sub	sp, #8
 8004d50:	af00      	add	r7, sp, #0
 8004d52:	0002      	movs	r2, r0
 8004d54:	1dfb      	adds	r3, r7, #7
 8004d56:	701a      	strb	r2, [r3, #0]
  if ((int32_t)(IRQn) >= 0)
 8004d58:	1dfb      	adds	r3, r7, #7
 8004d5a:	781b      	ldrb	r3, [r3, #0]
 8004d5c:	2b7f      	cmp	r3, #127	; 0x7f
 8004d5e:	d809      	bhi.n	8004d74 <__NVIC_EnableIRQ+0x28>
  {
    __COMPILER_BARRIER();
    NVIC->ISER[0U] = (uint32_t)(1UL << (((uint32_t)IRQn) & 0x1FUL));
 8004d60:	1dfb      	adds	r3, r7, #7
 8004d62:	781b      	ldrb	r3, [r3, #0]
 8004d64:	001a      	movs	r2, r3
 8004d66:	231f      	movs	r3, #31
 8004d68:	401a      	ands	r2, r3
 8004d6a:	4b04      	ldr	r3, [pc, #16]	; (8004d7c <__NVIC_EnableIRQ+0x30>)
 8004d6c:	2101      	movs	r1, #1
 8004d6e:	4091      	lsls	r1, r2
 8004d70:	000a      	movs	r2, r1
 8004d72:	601a      	str	r2, [r3, #0]
    __COMPILER_BARRIER();
  }
}
 8004d74:	46c0      	nop			; (mov r8, r8)
 8004d76:	46bd      	mov	sp, r7
 8004d78:	b002      	add	sp, #8
 8004d7a:	bd80      	pop	{r7, pc}
 8004d7c:	e000e100 	.word	0xe000e100

08004d80 <__NVIC_SetPriority>:
  \param [in]      IRQn  Interrupt number.
  \param [in]  priority  Priority to set.
  \note    The priority cannot be set for every processor exception.
 */
__STATIC_INLINE void __NVIC_SetPriority(IRQn_Type IRQn, uint32_t priority)
{
 8004d80:	b590      	push	{r4, r7, lr}
 8004d82:	b083      	sub	sp, #12
 8004d84:	af00      	add	r7, sp, #0
 8004d86:	0002      	movs	r2, r0
 8004d88:	6039      	str	r1, [r7, #0]
 8004d8a:	1dfb      	adds	r3, r7, #7
 8004d8c:	701a      	strb	r2, [r3, #0]
  if ((int32_t)(IRQn) >= 0)
 8004d8e:	1dfb      	adds	r3, r7, #7
 8004d90:	781b      	ldrb	r3, [r3, #0]
 8004d92:	2b7f      	cmp	r3, #127	; 0x7f
 8004d94:	d828      	bhi.n	8004de8 <__NVIC_SetPriority+0x68>
  {
    NVIC->IP[_IP_IDX(IRQn)]  = ((uint32_t)(NVIC->IP[_IP_IDX(IRQn)]  & ~(0xFFUL << _BIT_SHIFT(IRQn))) |
 8004d96:	4a2f      	ldr	r2, [pc, #188]	; (8004e54 <__NVIC_SetPriority+0xd4>)
 8004d98:	1dfb      	adds	r3, r7, #7
 8004d9a:	781b      	ldrb	r3, [r3, #0]
 8004d9c:	b25b      	sxtb	r3, r3
 8004d9e:	089b      	lsrs	r3, r3, #2
 8004da0:	33c0      	adds	r3, #192	; 0xc0
 8004da2:	009b      	lsls	r3, r3, #2
 8004da4:	589b      	ldr	r3, [r3, r2]
 8004da6:	1dfa      	adds	r2, r7, #7
 8004da8:	7812      	ldrb	r2, [r2, #0]
 8004daa:	0011      	movs	r1, r2
 8004dac:	2203      	movs	r2, #3
 8004dae:	400a      	ands	r2, r1
 8004db0:	00d2      	lsls	r2, r2, #3
 8004db2:	21ff      	movs	r1, #255	; 0xff
 8004db4:	4091      	lsls	r1, r2
 8004db6:	000a      	movs	r2, r1
 8004db8:	43d2      	mvns	r2, r2
 8004dba:	401a      	ands	r2, r3
 8004dbc:	0011      	movs	r1, r2
       (((priority << (8U - __NVIC_PRIO_BITS)) & (uint32_t)0xFFUL) << _BIT_SHIFT(IRQn)));
 8004dbe:	683b      	ldr	r3, [r7, #0]
 8004dc0:	019b      	lsls	r3, r3, #6
 8004dc2:	22ff      	movs	r2, #255	; 0xff
 8004dc4:	401a      	ands	r2, r3
 8004dc6:	1dfb      	adds	r3, r7, #7
 8004dc8:	781b      	ldrb	r3, [r3, #0]
 8004dca:	0018      	movs	r0, r3
 8004dcc:	2303      	movs	r3, #3
 8004dce:	4003      	ands	r3, r0
 8004dd0:	00db      	lsls	r3, r3, #3
 8004dd2:	409a      	lsls	r2, r3
    NVIC->IP[_IP_IDX(IRQn)]  = ((uint32_t)(NVIC->IP[_IP_IDX(IRQn)]  & ~(0xFFUL << _BIT_SHIFT(IRQn))) |
 8004dd4:	481f      	ldr	r0, [pc, #124]	; (8004e54 <__NVIC_SetPriority+0xd4>)
 8004dd6:	1dfb      	adds	r3, r7, #7
 8004dd8:	781b      	ldrb	r3, [r3, #0]
 8004dda:	b25b      	sxtb	r3, r3
 8004ddc:	089b      	lsrs	r3, r3, #2
 8004dde:	430a      	orrs	r2, r1
 8004de0:	33c0      	adds	r3, #192	; 0xc0
 8004de2:	009b      	lsls	r3, r3, #2
 8004de4:	501a      	str	r2, [r3, r0]
  else
  {
    SCB->SHP[_SHP_IDX(IRQn)] = ((uint32_t)(SCB->SHP[_SHP_IDX(IRQn)] & ~(0xFFUL << _BIT_SHIFT(IRQn))) |
       (((priority << (8U - __NVIC_PRIO_BITS)) & (uint32_t)0xFFUL) << _BIT_SHIFT(IRQn)));
  }
}
 8004de6:	e031      	b.n	8004e4c <__NVIC_SetPriority+0xcc>
    SCB->SHP[_SHP_IDX(IRQn)] = ((uint32_t)(SCB->SHP[_SHP_IDX(IRQn)] & ~(0xFFUL << _BIT_SHIFT(IRQn))) |
 8004de8:	4a1b      	ldr	r2, [pc, #108]	; (8004e58 <__NVIC_SetPriority+0xd8>)
 8004dea:	1dfb      	adds	r3, r7, #7
 8004dec:	781b      	ldrb	r3, [r3, #0]
 8004dee:	0019      	movs	r1, r3
 8004df0:	230f      	movs	r3, #15
 8004df2:	400b      	ands	r3, r1
 8004df4:	3b08      	subs	r3, #8
 8004df6:	089b      	lsrs	r3, r3, #2
 8004df8:	3306      	adds	r3, #6
 8004dfa:	009b      	lsls	r3, r3, #2
 8004dfc:	18d3      	adds	r3, r2, r3
 8004dfe:	3304      	adds	r3, #4
 8004e00:	681b      	ldr	r3, [r3, #0]
 8004e02:	1dfa      	adds	r2, r7, #7
 8004e04:	7812      	ldrb	r2, [r2, #0]
 8004e06:	0011      	movs	r1, r2
 8004e08:	2203      	movs	r2, #3
 8004e0a:	400a      	ands	r2, r1
 8004e0c:	00d2      	lsls	r2, r2, #3
 8004e0e:	21ff      	movs	r1, #255	; 0xff
 8004e10:	4091      	lsls	r1, r2
 8004e12:	000a      	movs	r2, r1
 8004e14:	43d2      	mvns	r2, r2
 8004e16:	401a      	ands	r2, r3
 8004e18:	0011      	movs	r1, r2
       (((priority << (8U - __NVIC_PRIO_BITS)) & (uint32_t)0xFFUL) << _BIT_SHIFT(IRQn)));
 8004e1a:	683b      	ldr	r3, [r7, #0]
 8004e1c:	019b      	lsls	r3, r3, #6
 8004e1e:	22ff      	movs	r2, #255	; 0xff
 8004e20:	401a      	ands	r2, r3
 8004e22:	1dfb      	adds	r3, r7, #7
 8004e24:	781b      	ldrb	r3, [r3, #0]
 8004e26:	0018      	movs	r0, r3
 8004e28:	2303      	movs	r3, #3
 8004e2a:	4003      	ands	r3, r0
 8004e2c:	00db      	lsls	r3, r3, #3
 8004e2e:	409a      	lsls	r2, r3
    SCB->SHP[_SHP_IDX(IRQn)] = ((uint32_t)(SCB->SHP[_SHP_IDX(IRQn)] & ~(0xFFUL << _BIT_SHIFT(IRQn))) |
 8004e30:	4809      	ldr	r0, [pc, #36]	; (8004e58 <__NVIC_SetPriority+0xd8>)
 8004e32:	1dfb      	adds	r3, r7, #7
 8004e34:	781b      	ldrb	r3, [r3, #0]
 8004e36:	001c      	movs	r4, r3
 8004e38:	230f      	movs	r3, #15
 8004e3a:	4023      	ands	r3, r4
 8004e3c:	3b08      	subs	r3, #8
 8004e3e:	089b      	lsrs	r3, r3, #2
 8004e40:	430a      	orrs	r2, r1
 8004e42:	3306      	adds	r3, #6
 8004e44:	009b      	lsls	r3, r3, #2
 8004e46:	18c3      	adds	r3, r0, r3
 8004e48:	3304      	adds	r3, #4
 8004e4a:	601a      	str	r2, [r3, #0]
}
 8004e4c:	46c0      	nop			; (mov r8, r8)
 8004e4e:	46bd      	mov	sp, r7
 8004e50:	b003      	add	sp, #12
 8004e52:	bd90      	pop	{r4, r7, pc}
 8004e54:	e000e100 	.word	0xe000e100
 8004e58:	e000ed00 	.word	0xe000ed00

08004e5c <SysTick_Config>:
  \note    When the variable <b>__Vendor_SysTickConfig</b> is set to 1, then the
           function <b>SysTick_Config</b> is not included. In this case, the file <b><i>device</i>.h</b>
           must contain a vendor-specific implementation of this function.
 */
__STATIC_INLINE uint32_t SysTick_Config(uint32_t ticks)
{
 8004e5c:	b580      	push	{r7, lr}
 8004e5e:	b082      	sub	sp, #8
 8004e60:	af00      	add	r7, sp, #0
 8004e62:	6078      	str	r0, [r7, #4]
  if ((ticks - 1UL) > SysTick_LOAD_RELOAD_Msk)
 8004e64:	687b      	ldr	r3, [r7, #4]
 8004e66:	1e5a      	subs	r2, r3, #1
 8004e68:	2380      	movs	r3, #128	; 0x80
 8004e6a:	045b      	lsls	r3, r3, #17
 8004e6c:	429a      	cmp	r2, r3
 8004e6e:	d301      	bcc.n	8004e74 <SysTick_Config+0x18>
  {
    return (1UL);                                                   /* Reload value impossible */
 8004e70:	2301      	movs	r3, #1
 8004e72:	e010      	b.n	8004e96 <SysTick_Config+0x3a>
  }

  SysTick->LOAD  = (uint32_t)(ticks - 1UL);                         /* set reload register */
 8004e74:	4b0a      	ldr	r3, [pc, #40]	; (8004ea0 <SysTick_Config+0x44>)
 8004e76:	687a      	ldr	r2, [r7, #4]
 8004e78:	3a01      	subs	r2, #1
 8004e7a:	605a      	str	r2, [r3, #4]
  NVIC_SetPriority (SysTick_IRQn, (1UL << __NVIC_PRIO_BITS) - 1UL); /* set Priority for Systick Interrupt */
 8004e7c:	2301      	movs	r3, #1
 8004e7e:	425b      	negs	r3, r3
 8004e80:	2103      	movs	r1, #3
 8004e82:	0018      	movs	r0, r3
 8004e84:	f7ff ff7c 	bl	8004d80 <__NVIC_SetPriority>
  SysTick->VAL   = 0UL;                                             /* Load the SysTick Counter Value */
 8004e88:	4b05      	ldr	r3, [pc, #20]	; (8004ea0 <SysTick_Config+0x44>)
 8004e8a:	2200      	movs	r2, #0
 8004e8c:	609a      	str	r2, [r3, #8]
  SysTick->CTRL  = SysTick_CTRL_CLKSOURCE_Msk |
 8004e8e:	4b04      	ldr	r3, [pc, #16]	; (8004ea0 <SysTick_Config+0x44>)
 8004e90:	2207      	movs	r2, #7
 8004e92:	601a      	str	r2, [r3, #0]
                   SysTick_CTRL_TICKINT_Msk   |
                   SysTick_CTRL_ENABLE_Msk;                         /* Enable SysTick IRQ and SysTick Timer */
  return (0UL);                                                     /* Function successful */
 8004e94:	2300      	movs	r3, #0
}
 8004e96:	0018      	movs	r0, r3
 8004e98:	46bd      	mov	sp, r7
 8004e9a:	b002      	add	sp, #8
 8004e9c:	bd80      	pop	{r7, pc}
 8004e9e:	46c0      	nop			; (mov r8, r8)
 8004ea0:	e000e010 	.word	0xe000e010

08004ea4 <HAL_NVIC_SetPriority>:
  *         with stm32g0xx devices, this parameter is a dummy value and it is ignored, because
  *         no subpriority supported in Cortex M0+ based products.
  * @retval None
  */
void HAL_NVIC_SetPriority(IRQn_Type IRQn, uint32_t PreemptPriority, uint32_t SubPriority)
{
 8004ea4:	b580      	push	{r7, lr}
 8004ea6:	b084      	sub	sp, #16
 8004ea8:	af00      	add	r7, sp, #0
 8004eaa:	60b9      	str	r1, [r7, #8]
 8004eac:	607a      	str	r2, [r7, #4]
 8004eae:	210f      	movs	r1, #15
 8004eb0:	187b      	adds	r3, r7, r1
 8004eb2:	1c02      	adds	r2, r0, #0
 8004eb4:	701a      	strb	r2, [r3, #0]
  /* Prevent unused argument(s) compilation warning */
  UNUSED(SubPriority);

  /* Check the parameters */
  assert_param(IS_NVIC_PREEMPTION_PRIORITY(PreemptPriority));
  NVIC_SetPriority(IRQn, PreemptPriority);
 8004eb6:	68ba      	ldr	r2, [r7, #8]
 8004eb8:	187b      	adds	r3, r7, r1
 8004eba:	781b      	ldrb	r3, [r3, #0]
 8004ebc:	b25b      	sxtb	r3, r3
 8004ebe:	0011      	movs	r1, r2
 8004ec0:	0018      	movs	r0, r3
 8004ec2:	f7ff ff5d 	bl	8004d80 <__NVIC_SetPriority>
}
 8004ec6:	46c0      	nop			; (mov r8, r8)
 8004ec8:	46bd      	mov	sp, r7
 8004eca:	b004      	add	sp, #16
 8004ecc:	bd80      	pop	{r7, pc}

08004ece <HAL_NVIC_EnableIRQ>:
  *         This parameter can be an enumerator of IRQn_Type enumeration
  *         (For the complete STM32 Devices IRQ Channels list, please refer to the appropriate CMSIS device file (stm32g0xxxx.h))
  * @retval None
  */
void HAL_NVIC_EnableIRQ(IRQn_Type IRQn)
{
 8004ece:	b580      	push	{r7, lr}
 8004ed0:	b082      	sub	sp, #8
 8004ed2:	af00      	add	r7, sp, #0
 8004ed4:	0002      	movs	r2, r0
 8004ed6:	1dfb      	adds	r3, r7, #7
 8004ed8:	701a      	strb	r2, [r3, #0]
  /* Check the parameters */
  assert_param(IS_NVIC_DEVICE_IRQ(IRQn));

  /* Enable interrupt */
  NVIC_EnableIRQ(IRQn);
 8004eda:	1dfb      	adds	r3, r7, #7
 8004edc:	781b      	ldrb	r3, [r3, #0]
 8004ede:	b25b      	sxtb	r3, r3
 8004ee0:	0018      	movs	r0, r3
 8004ee2:	f7ff ff33 	bl	8004d4c <__NVIC_EnableIRQ>
}
 8004ee6:	46c0      	nop			; (mov r8, r8)
 8004ee8:	46bd      	mov	sp, r7
 8004eea:	b002      	add	sp, #8
 8004eec:	bd80      	pop	{r7, pc}

08004eee <HAL_SYSTICK_Config>:
  * @param  TicksNumb Specifies the ticks Number of ticks between two interrupts.
  * @retval status:  - 0  Function succeeded.
  *                  - 1  Function failed.
  */
uint32_t HAL_SYSTICK_Config(uint32_t TicksNumb)
{
 8004eee:	b580      	push	{r7, lr}
 8004ef0:	b082      	sub	sp, #8
 8004ef2:	af00      	add	r7, sp, #0
 8004ef4:	6078      	str	r0, [r7, #4]
  return SysTick_Config(TicksNumb);
 8004ef6:	687b      	ldr	r3, [r7, #4]
 8004ef8:	0018      	movs	r0, r3
 8004efa:	f7ff ffaf 	bl	8004e5c <SysTick_Config>
 8004efe:	0003      	movs	r3, r0
}
 8004f00:	0018      	movs	r0, r3
 8004f02:	46bd      	mov	sp, r7
 8004f04:	b002      	add	sp, #8
 8004f06:	bd80      	pop	{r7, pc}

08004f08 <HAL_DMA_Abort>:
  * @param hdma Pointer to a DMA_HandleTypeDef structure that contains
  *             the configuration information for the specified DMA Channel.
  * @retval HAL status
  */
HAL_StatusTypeDef HAL_DMA_Abort(DMA_HandleTypeDef *hdma)
{
 8004f08:	b580      	push	{r7, lr}
 8004f0a:	b082      	sub	sp, #8
 8004f0c:	af00      	add	r7, sp, #0
 8004f0e:	6078      	str	r0, [r7, #4]
  /* Check the DMA peripheral handle */
  if (NULL == hdma)
 8004f10:	687b      	ldr	r3, [r7, #4]
 8004f12:	2b00      	cmp	r3, #0
 8004f14:	d101      	bne.n	8004f1a <HAL_DMA_Abort+0x12>
  {
    return HAL_ERROR;
 8004f16:	2301      	movs	r3, #1
 8004f18:	e050      	b.n	8004fbc <HAL_DMA_Abort+0xb4>
  }

  /* Check the DMA peripheral state */
  if (hdma->State != HAL_DMA_STATE_BUSY)
 8004f1a:	687b      	ldr	r3, [r7, #4]
 8004f1c:	2225      	movs	r2, #37	; 0x25
 8004f1e:	5c9b      	ldrb	r3, [r3, r2]
 8004f20:	b2db      	uxtb	r3, r3
 8004f22:	2b02      	cmp	r3, #2
 8004f24:	d008      	beq.n	8004f38 <HAL_DMA_Abort+0x30>
  {
    hdma->ErrorCode = HAL_DMA_ERROR_NO_XFER;
 8004f26:	687b      	ldr	r3, [r7, #4]
 8004f28:	2204      	movs	r2, #4
 8004f2a:	63da      	str	r2, [r3, #60]	; 0x3c

    /* Process Unlocked */
    __HAL_UNLOCK(hdma);
 8004f2c:	687b      	ldr	r3, [r7, #4]
 8004f2e:	2224      	movs	r2, #36	; 0x24
 8004f30:	2100      	movs	r1, #0
 8004f32:	5499      	strb	r1, [r3, r2]

    return HAL_ERROR;
 8004f34:	2301      	movs	r3, #1
 8004f36:	e041      	b.n	8004fbc <HAL_DMA_Abort+0xb4>
  }
  else
  {
    /* Disable the channel */
    __HAL_DMA_DISABLE(hdma);
 8004f38:	687b      	ldr	r3, [r7, #4]
 8004f3a:	681b      	ldr	r3, [r3, #0]
 8004f3c:	681a      	ldr	r2, [r3, #0]
 8004f3e:	687b      	ldr	r3, [r7, #4]
 8004f40:	681b      	ldr	r3, [r3, #0]
 8004f42:	2101      	movs	r1, #1
 8004f44:	438a      	bics	r2, r1
 8004f46:	601a      	str	r2, [r3, #0]

    /* Disable DMA IT */
    __HAL_DMA_DISABLE_IT(hdma, (DMA_IT_TC | DMA_IT_HT | DMA_IT_TE));
 8004f48:	687b      	ldr	r3, [r7, #4]
 8004f4a:	681b      	ldr	r3, [r3, #0]
 8004f4c:	681a      	ldr	r2, [r3, #0]
 8004f4e:	687b      	ldr	r3, [r7, #4]
 8004f50:	681b      	ldr	r3, [r3, #0]
 8004f52:	210e      	movs	r1, #14
 8004f54:	438a      	bics	r2, r1
 8004f56:	601a      	str	r2, [r3, #0]

    /* disable the DMAMUX sync overrun IT*/
    hdma->DMAmuxChannel->CCR &= ~DMAMUX_CxCR_SOIE;
 8004f58:	687b      	ldr	r3, [r7, #4]
 8004f5a:	6c5b      	ldr	r3, [r3, #68]	; 0x44
 8004f5c:	681a      	ldr	r2, [r3, #0]
 8004f5e:	687b      	ldr	r3, [r7, #4]
 8004f60:	6c5b      	ldr	r3, [r3, #68]	; 0x44
 8004f62:	4918      	ldr	r1, [pc, #96]	; (8004fc4 <HAL_DMA_Abort+0xbc>)
 8004f64:	400a      	ands	r2, r1
 8004f66:	601a      	str	r2, [r3, #0]

    /* Clear all flags */
#if defined(DMA2)
    hdma->DmaBaseAddress->IFCR = (DMA_ISR_GIF1 << (hdma->ChannelIndex & 0x1CU));
#else
    __HAL_DMA_CLEAR_FLAG(hdma, ((DMA_FLAG_GI1) << (hdma->ChannelIndex  & 0x1CU)));
 8004f68:	4b17      	ldr	r3, [pc, #92]	; (8004fc8 <HAL_DMA_Abort+0xc0>)
 8004f6a:	6859      	ldr	r1, [r3, #4]
 8004f6c:	687b      	ldr	r3, [r7, #4]
 8004f6e:	6c1b      	ldr	r3, [r3, #64]	; 0x40
 8004f70:	221c      	movs	r2, #28
 8004f72:	4013      	ands	r3, r2
 8004f74:	2201      	movs	r2, #1
 8004f76:	409a      	lsls	r2, r3
 8004f78:	4b13      	ldr	r3, [pc, #76]	; (8004fc8 <HAL_DMA_Abort+0xc0>)
 8004f7a:	430a      	orrs	r2, r1
 8004f7c:	605a      	str	r2, [r3, #4]
#endif /* DMA2 */

    /* Clear the DMAMUX synchro overrun flag */
    hdma->DMAmuxChannelStatus->CFR = hdma->DMAmuxChannelStatusMask;
 8004f7e:	687b      	ldr	r3, [r7, #4]
 8004f80:	6c9b      	ldr	r3, [r3, #72]	; 0x48
 8004f82:	687a      	ldr	r2, [r7, #4]
 8004f84:	6cd2      	ldr	r2, [r2, #76]	; 0x4c
 8004f86:	605a      	str	r2, [r3, #4]

    if (hdma->DMAmuxRequestGen != 0U)
 8004f88:	687b      	ldr	r3, [r7, #4]
 8004f8a:	6d1b      	ldr	r3, [r3, #80]	; 0x50
 8004f8c:	2b00      	cmp	r3, #0
 8004f8e:	d00c      	beq.n	8004faa <HAL_DMA_Abort+0xa2>
    {
      /* if using DMAMUX request generator, disable the DMAMUX request generator overrun IT*/
      /* disable the request gen overrun IT*/
      hdma->DMAmuxRequestGen->RGCR &= ~DMAMUX_RGxCR_OIE;
 8004f90:	687b      	ldr	r3, [r7, #4]
 8004f92:	6d1b      	ldr	r3, [r3, #80]	; 0x50
 8004f94:	681a      	ldr	r2, [r3, #0]
 8004f96:	687b      	ldr	r3, [r7, #4]
 8004f98:	6d1b      	ldr	r3, [r3, #80]	; 0x50
 8004f9a:	490a      	ldr	r1, [pc, #40]	; (8004fc4 <HAL_DMA_Abort+0xbc>)
 8004f9c:	400a      	ands	r2, r1
 8004f9e:	601a      	str	r2, [r3, #0]

      /* Clear the DMAMUX request generator overrun flag */
      hdma->DMAmuxRequestGenStatus->RGCFR = hdma->DMAmuxRequestGenStatusMask;
 8004fa0:	687b      	ldr	r3, [r7, #4]
 8004fa2:	6d5b      	ldr	r3, [r3, #84]	; 0x54
 8004fa4:	687a      	ldr	r2, [r7, #4]
 8004fa6:	6d92      	ldr	r2, [r2, #88]	; 0x58
 8004fa8:	605a      	str	r2, [r3, #4]
    }

    /* Change the DMA state */
    hdma->State = HAL_DMA_STATE_READY;
 8004faa:	687b      	ldr	r3, [r7, #4]
 8004fac:	2225      	movs	r2, #37	; 0x25
 8004fae:	2101      	movs	r1, #1
 8004fb0:	5499      	strb	r1, [r3, r2]

    /* Process Unlocked */
    __HAL_UNLOCK(hdma);
 8004fb2:	687b      	ldr	r3, [r7, #4]
 8004fb4:	2224      	movs	r2, #36	; 0x24
 8004fb6:	2100      	movs	r1, #0
 8004fb8:	5499      	strb	r1, [r3, r2]
  }

  return HAL_OK;
 8004fba:	2300      	movs	r3, #0
}
 8004fbc:	0018      	movs	r0, r3
 8004fbe:	46bd      	mov	sp, r7
 8004fc0:	b002      	add	sp, #8
 8004fc2:	bd80      	pop	{r7, pc}
 8004fc4:	fffffeff 	.word	0xfffffeff
 8004fc8:	40020000 	.word	0x40020000

08004fcc <HAL_DMA_Abort_IT>:
  * @param hdma Pointer to a DMA_HandleTypeDef structure that contains
  *             the configuration information for the specified DMA Channel.
  * @retval HAL status
  */
HAL_StatusTypeDef HAL_DMA_Abort_IT(DMA_HandleTypeDef *hdma)
{
 8004fcc:	b580      	push	{r7, lr}
 8004fce:	b084      	sub	sp, #16
 8004fd0:	af00      	add	r7, sp, #0
 8004fd2:	6078      	str	r0, [r7, #4]
  HAL_StatusTypeDef status = HAL_OK;
 8004fd4:	210f      	movs	r1, #15
 8004fd6:	187b      	adds	r3, r7, r1
 8004fd8:	2200      	movs	r2, #0
 8004fda:	701a      	strb	r2, [r3, #0]

  if (hdma->State != HAL_DMA_STATE_BUSY)
 8004fdc:	687b      	ldr	r3, [r7, #4]
 8004fde:	2225      	movs	r2, #37	; 0x25
 8004fe0:	5c9b      	ldrb	r3, [r3, r2]
 8004fe2:	b2db      	uxtb	r3, r3
 8004fe4:	2b02      	cmp	r3, #2
 8004fe6:	d006      	beq.n	8004ff6 <HAL_DMA_Abort_IT+0x2a>
  {
    /* no transfer ongoing */
    hdma->ErrorCode = HAL_DMA_ERROR_NO_XFER;
 8004fe8:	687b      	ldr	r3, [r7, #4]
 8004fea:	2204      	movs	r2, #4
 8004fec:	63da      	str	r2, [r3, #60]	; 0x3c

    status = HAL_ERROR;
 8004fee:	187b      	adds	r3, r7, r1
 8004ff0:	2201      	movs	r2, #1
 8004ff2:	701a      	strb	r2, [r3, #0]
 8004ff4:	e049      	b.n	800508a <HAL_DMA_Abort_IT+0xbe>
  }
  else
  {
    /* Disable the channel */
    __HAL_DMA_DISABLE(hdma);
 8004ff6:	687b      	ldr	r3, [r7, #4]
 8004ff8:	681b      	ldr	r3, [r3, #0]
 8004ffa:	681a      	ldr	r2, [r3, #0]
 8004ffc:	687b      	ldr	r3, [r7, #4]
 8004ffe:	681b      	ldr	r3, [r3, #0]
 8005000:	2101      	movs	r1, #1
 8005002:	438a      	bics	r2, r1
 8005004:	601a      	str	r2, [r3, #0]

    /* Disable DMA IT */
    __HAL_DMA_DISABLE_IT(hdma, (DMA_IT_TC | DMA_IT_HT | DMA_IT_TE));
 8005006:	687b      	ldr	r3, [r7, #4]
 8005008:	681b      	ldr	r3, [r3, #0]
 800500a:	681a      	ldr	r2, [r3, #0]
 800500c:	687b      	ldr	r3, [r7, #4]
 800500e:	681b      	ldr	r3, [r3, #0]
 8005010:	210e      	movs	r1, #14
 8005012:	438a      	bics	r2, r1
 8005014:	601a      	str	r2, [r3, #0]

    /* disable the DMAMUX sync overrun IT*/
    hdma->DMAmuxChannel->CCR &= ~DMAMUX_CxCR_SOIE;
 8005016:	687b      	ldr	r3, [r7, #4]
 8005018:	6c5b      	ldr	r3, [r3, #68]	; 0x44
 800501a:	681a      	ldr	r2, [r3, #0]
 800501c:	687b      	ldr	r3, [r7, #4]
 800501e:	6c5b      	ldr	r3, [r3, #68]	; 0x44
 8005020:	491d      	ldr	r1, [pc, #116]	; (8005098 <HAL_DMA_Abort_IT+0xcc>)
 8005022:	400a      	ands	r2, r1
 8005024:	601a      	str	r2, [r3, #0]

    /* Clear all flags */
#if defined(DMA2)
    hdma->DmaBaseAddress->IFCR = (DMA_ISR_GIF1 << (hdma->ChannelIndex & 0x1CU));
#else
    __HAL_DMA_CLEAR_FLAG(hdma, ((DMA_FLAG_GI1) << (hdma->ChannelIndex & 0x1CU)));
 8005026:	4b1d      	ldr	r3, [pc, #116]	; (800509c <HAL_DMA_Abort_IT+0xd0>)
 8005028:	6859      	ldr	r1, [r3, #4]
 800502a:	687b      	ldr	r3, [r7, #4]
 800502c:	6c1b      	ldr	r3, [r3, #64]	; 0x40
 800502e:	221c      	movs	r2, #28
 8005030:	4013      	ands	r3, r2
 8005032:	2201      	movs	r2, #1
 8005034:	409a      	lsls	r2, r3
 8005036:	4b19      	ldr	r3, [pc, #100]	; (800509c <HAL_DMA_Abort_IT+0xd0>)
 8005038:	430a      	orrs	r2, r1
 800503a:	605a      	str	r2, [r3, #4]
#endif /* DMA2 */

    /* Clear the DMAMUX synchro overrun flag */
    hdma->DMAmuxChannelStatus->CFR = hdma->DMAmuxChannelStatusMask;
 800503c:	687b      	ldr	r3, [r7, #4]
 800503e:	6c9b      	ldr	r3, [r3, #72]	; 0x48
 8005040:	687a      	ldr	r2, [r7, #4]
 8005042:	6cd2      	ldr	r2, [r2, #76]	; 0x4c
 8005044:	605a      	str	r2, [r3, #4]

    if (hdma->DMAmuxRequestGen != 0U)
 8005046:	687b      	ldr	r3, [r7, #4]
 8005048:	6d1b      	ldr	r3, [r3, #80]	; 0x50
 800504a:	2b00      	cmp	r3, #0
 800504c:	d00c      	beq.n	8005068 <HAL_DMA_Abort_IT+0x9c>
    {
      /* if using DMAMUX request generator, disable the DMAMUX request generator overrun IT*/
      /* disable the request gen overrun IT*/
      hdma->DMAmuxRequestGen->RGCR &= ~DMAMUX_RGxCR_OIE;
 800504e:	687b      	ldr	r3, [r7, #4]
 8005050:	6d1b      	ldr	r3, [r3, #80]	; 0x50
 8005052:	681a      	ldr	r2, [r3, #0]
 8005054:	687b      	ldr	r3, [r7, #4]
 8005056:	6d1b      	ldr	r3, [r3, #80]	; 0x50
 8005058:	490f      	ldr	r1, [pc, #60]	; (8005098 <HAL_DMA_Abort_IT+0xcc>)
 800505a:	400a      	ands	r2, r1
 800505c:	601a      	str	r2, [r3, #0]

      /* Clear the DMAMUX request generator overrun flag */
      hdma->DMAmuxRequestGenStatus->RGCFR = hdma->DMAmuxRequestGenStatusMask;
 800505e:	687b      	ldr	r3, [r7, #4]
 8005060:	6d5b      	ldr	r3, [r3, #84]	; 0x54
 8005062:	687a      	ldr	r2, [r7, #4]
 8005064:	6d92      	ldr	r2, [r2, #88]	; 0x58
 8005066:	605a      	str	r2, [r3, #4]
    }

    /* Change the DMA state */
    hdma->State = HAL_DMA_STATE_READY;
 8005068:	687b      	ldr	r3, [r7, #4]
 800506a:	2225      	movs	r2, #37	; 0x25
 800506c:	2101      	movs	r1, #1
 800506e:	5499      	strb	r1, [r3, r2]

    /* Process Unlocked */
    __HAL_UNLOCK(hdma);
 8005070:	687b      	ldr	r3, [r7, #4]
 8005072:	2224      	movs	r2, #36	; 0x24
 8005074:	2100      	movs	r1, #0
 8005076:	5499      	strb	r1, [r3, r2]

    /* Call User Abort callback */
    if (hdma->XferAbortCallback != NULL)
 8005078:	687b      	ldr	r3, [r7, #4]
 800507a:	6b9b      	ldr	r3, [r3, #56]	; 0x38
 800507c:	2b00      	cmp	r3, #0
 800507e:	d004      	beq.n	800508a <HAL_DMA_Abort_IT+0xbe>
    {
      hdma->XferAbortCallback(hdma);
 8005080:	687b      	ldr	r3, [r7, #4]
 8005082:	6b9b      	ldr	r3, [r3, #56]	; 0x38
 8005084:	687a      	ldr	r2, [r7, #4]
 8005086:	0010      	movs	r0, r2
 8005088:	4798      	blx	r3
    }
  }
  return status;
 800508a:	230f      	movs	r3, #15
 800508c:	18fb      	adds	r3, r7, r3
 800508e:	781b      	ldrb	r3, [r3, #0]
}
 8005090:	0018      	movs	r0, r3
 8005092:	46bd      	mov	sp, r7
 8005094:	b004      	add	sp, #16
 8005096:	bd80      	pop	{r7, pc}
 8005098:	fffffeff 	.word	0xfffffeff
 800509c:	40020000 	.word	0x40020000

080050a0 <HAL_GPIO_Init>:
  * @param  GPIO_Init pointer to a GPIO_InitTypeDef structure that contains
  *         the configuration information for the specified GPIO peripheral.
  * @retval None
  */
void HAL_GPIO_Init(GPIO_TypeDef *GPIOx, GPIO_InitTypeDef const *GPIO_Init)
{
 80050a0:	b580      	push	{r7, lr}
 80050a2:	b086      	sub	sp, #24
 80050a4:	af00      	add	r7, sp, #0
 80050a6:	6078      	str	r0, [r7, #4]
 80050a8:	6039      	str	r1, [r7, #0]
  uint32_t position = 0x00u;
 80050aa:	2300      	movs	r3, #0
 80050ac:	617b      	str	r3, [r7, #20]
  assert_param(IS_GPIO_ALL_INSTANCE(GPIOx));
  assert_param(IS_GPIO_PIN(GPIO_Init->Pin));
  assert_param(IS_GPIO_MODE(GPIO_Init->Mode));

  /* Configure the port pins */
  while (((GPIO_Init->Pin) >> position) != 0x00u)
 80050ae:	e147      	b.n	8005340 <HAL_GPIO_Init+0x2a0>
  {
    /* Get current io position */
    iocurrent = (GPIO_Init->Pin) & (1uL << position);
 80050b0:	683b      	ldr	r3, [r7, #0]
 80050b2:	681b      	ldr	r3, [r3, #0]
 80050b4:	2101      	movs	r1, #1
 80050b6:	697a      	ldr	r2, [r7, #20]
 80050b8:	4091      	lsls	r1, r2
 80050ba:	000a      	movs	r2, r1
 80050bc:	4013      	ands	r3, r2
 80050be:	60fb      	str	r3, [r7, #12]

    if (iocurrent != 0x00u)
 80050c0:	68fb      	ldr	r3, [r7, #12]
 80050c2:	2b00      	cmp	r3, #0
 80050c4:	d100      	bne.n	80050c8 <HAL_GPIO_Init+0x28>
 80050c6:	e138      	b.n	800533a <HAL_GPIO_Init+0x29a>
    {
      /*--------------------- GPIO Mode Configuration ------------------------*/
      /* In case of Output or Alternate function mode selection */
      if (((GPIO_Init->Mode & GPIO_MODE) == MODE_OUTPUT) || ((GPIO_Init->Mode & GPIO_MODE) == MODE_AF))
 80050c8:	683b      	ldr	r3, [r7, #0]
 80050ca:	685b      	ldr	r3, [r3, #4]
 80050cc:	2203      	movs	r2, #3
 80050ce:	4013      	ands	r3, r2
 80050d0:	2b01      	cmp	r3, #1
 80050d2:	d005      	beq.n	80050e0 <HAL_GPIO_Init+0x40>
 80050d4:	683b      	ldr	r3, [r7, #0]
 80050d6:	685b      	ldr	r3, [r3, #4]
 80050d8:	2203      	movs	r2, #3
 80050da:	4013      	ands	r3, r2
 80050dc:	2b02      	cmp	r3, #2
 80050de:	d130      	bne.n	8005142 <HAL_GPIO_Init+0xa2>
      {
        /* Check the Speed parameter */
        assert_param(IS_GPIO_SPEED(GPIO_Init->Speed));

        /* Configure the IO Speed */
        temp = GPIOx->OSPEEDR;
 80050e0:	687b      	ldr	r3, [r7, #4]
 80050e2:	689b      	ldr	r3, [r3, #8]
 80050e4:	613b      	str	r3, [r7, #16]
        temp &= ~(GPIO_OSPEEDR_OSPEED0 << (position * 2u));
 80050e6:	697b      	ldr	r3, [r7, #20]
 80050e8:	005b      	lsls	r3, r3, #1
 80050ea:	2203      	movs	r2, #3
 80050ec:	409a      	lsls	r2, r3
 80050ee:	0013      	movs	r3, r2
 80050f0:	43da      	mvns	r2, r3
 80050f2:	693b      	ldr	r3, [r7, #16]
 80050f4:	4013      	ands	r3, r2
 80050f6:	613b      	str	r3, [r7, #16]
        temp |= (GPIO_Init->Speed << (position * 2u));
 80050f8:	683b      	ldr	r3, [r7, #0]
 80050fa:	68da      	ldr	r2, [r3, #12]
 80050fc:	697b      	ldr	r3, [r7, #20]
 80050fe:	005b      	lsls	r3, r3, #1
 8005100:	409a      	lsls	r2, r3
 8005102:	0013      	movs	r3, r2
 8005104:	693a      	ldr	r2, [r7, #16]
 8005106:	4313      	orrs	r3, r2
 8005108:	613b      	str	r3, [r7, #16]
        GPIOx->OSPEEDR = temp;
 800510a:	687b      	ldr	r3, [r7, #4]
 800510c:	693a      	ldr	r2, [r7, #16]
 800510e:	609a      	str	r2, [r3, #8]

        /* Configure the IO Output Type */
        temp = GPIOx->OTYPER;
 8005110:	687b      	ldr	r3, [r7, #4]
 8005112:	685b      	ldr	r3, [r3, #4]
 8005114:	613b      	str	r3, [r7, #16]
        temp &= ~(GPIO_OTYPER_OT0 << position) ;
 8005116:	2201      	movs	r2, #1
 8005118:	697b      	ldr	r3, [r7, #20]
 800511a:	409a      	lsls	r2, r3
 800511c:	0013      	movs	r3, r2
 800511e:	43da      	mvns	r2, r3
 8005120:	693b      	ldr	r3, [r7, #16]
 8005122:	4013      	ands	r3, r2
 8005124:	613b      	str	r3, [r7, #16]
        temp |= (((GPIO_Init->Mode & OUTPUT_TYPE) >> OUTPUT_TYPE_Pos) << position);
 8005126:	683b      	ldr	r3, [r7, #0]
 8005128:	685b      	ldr	r3, [r3, #4]
 800512a:	091b      	lsrs	r3, r3, #4
 800512c:	2201      	movs	r2, #1
 800512e:	401a      	ands	r2, r3
 8005130:	697b      	ldr	r3, [r7, #20]
 8005132:	409a      	lsls	r2, r3
 8005134:	0013      	movs	r3, r2
 8005136:	693a      	ldr	r2, [r7, #16]
 8005138:	4313      	orrs	r3, r2
 800513a:	613b      	str	r3, [r7, #16]
        GPIOx->OTYPER = temp;
 800513c:	687b      	ldr	r3, [r7, #4]
 800513e:	693a      	ldr	r2, [r7, #16]
 8005140:	605a      	str	r2, [r3, #4]
      }

      if ((GPIO_Init->Mode & GPIO_MODE) != MODE_ANALOG)
 8005142:	683b      	ldr	r3, [r7, #0]
 8005144:	685b      	ldr	r3, [r3, #4]
 8005146:	2203      	movs	r2, #3
 8005148:	4013      	ands	r3, r2
 800514a:	2b03      	cmp	r3, #3
 800514c:	d017      	beq.n	800517e <HAL_GPIO_Init+0xde>
      {
        /* Check the Pull parameter */
        assert_param(IS_GPIO_PULL(GPIO_Init->Pull));

        /* Activate the Pull-up or Pull down resistor for the current IO */
        temp = GPIOx->PUPDR;
 800514e:	687b      	ldr	r3, [r7, #4]
 8005150:	68db      	ldr	r3, [r3, #12]
 8005152:	613b      	str	r3, [r7, #16]
        temp &= ~(GPIO_PUPDR_PUPD0 << (position * 2u));
 8005154:	697b      	ldr	r3, [r7, #20]
 8005156:	005b      	lsls	r3, r3, #1
 8005158:	2203      	movs	r2, #3
 800515a:	409a      	lsls	r2, r3
 800515c:	0013      	movs	r3, r2
 800515e:	43da      	mvns	r2, r3
 8005160:	693b      	ldr	r3, [r7, #16]
 8005162:	4013      	ands	r3, r2
 8005164:	613b      	str	r3, [r7, #16]
        temp |= ((GPIO_Init->Pull) << (position * 2u));
 8005166:	683b      	ldr	r3, [r7, #0]
 8005168:	689a      	ldr	r2, [r3, #8]
 800516a:	697b      	ldr	r3, [r7, #20]
 800516c:	005b      	lsls	r3, r3, #1
 800516e:	409a      	lsls	r2, r3
 8005170:	0013      	movs	r3, r2
 8005172:	693a      	ldr	r2, [r7, #16]
 8005174:	4313      	orrs	r3, r2
 8005176:	613b      	str	r3, [r7, #16]
        GPIOx->PUPDR = temp;
 8005178:	687b      	ldr	r3, [r7, #4]
 800517a:	693a      	ldr	r2, [r7, #16]
 800517c:	60da      	str	r2, [r3, #12]
      }

      /* In case of Alternate function mode selection */
      if ((GPIO_Init->Mode & GPIO_MODE) == MODE_AF)
 800517e:	683b      	ldr	r3, [r7, #0]
 8005180:	685b      	ldr	r3, [r3, #4]
 8005182:	2203      	movs	r2, #3
 8005184:	4013      	ands	r3, r2
 8005186:	2b02      	cmp	r3, #2
 8005188:	d123      	bne.n	80051d2 <HAL_GPIO_Init+0x132>
        /* Check the Alternate function parameters */
        assert_param(IS_GPIO_AF_INSTANCE(GPIOx));
        assert_param(IS_GPIO_AF(GPIO_Init->Alternate));

        /* Configure Alternate function mapped with the current IO */
        temp = GPIOx->AFR[position >> 3u];
 800518a:	697b      	ldr	r3, [r7, #20]
 800518c:	08da      	lsrs	r2, r3, #3
 800518e:	687b      	ldr	r3, [r7, #4]
 8005190:	3208      	adds	r2, #8
 8005192:	0092      	lsls	r2, r2, #2
 8005194:	58d3      	ldr	r3, [r2, r3]
 8005196:	613b      	str	r3, [r7, #16]
        temp &= ~(0xFu << ((position & 0x07u) * 4u));
 8005198:	697b      	ldr	r3, [r7, #20]
 800519a:	2207      	movs	r2, #7
 800519c:	4013      	ands	r3, r2
 800519e:	009b      	lsls	r3, r3, #2
 80051a0:	220f      	movs	r2, #15
 80051a2:	409a      	lsls	r2, r3
 80051a4:	0013      	movs	r3, r2
 80051a6:	43da      	mvns	r2, r3
 80051a8:	693b      	ldr	r3, [r7, #16]
 80051aa:	4013      	ands	r3, r2
 80051ac:	613b      	str	r3, [r7, #16]
        temp |= ((GPIO_Init->Alternate) << ((position & 0x07u) * 4u));
 80051ae:	683b      	ldr	r3, [r7, #0]
 80051b0:	691a      	ldr	r2, [r3, #16]
 80051b2:	697b      	ldr	r3, [r7, #20]
 80051b4:	2107      	movs	r1, #7
 80051b6:	400b      	ands	r3, r1
 80051b8:	009b      	lsls	r3, r3, #2
 80051ba:	409a      	lsls	r2, r3
 80051bc:	0013      	movs	r3, r2
 80051be:	693a      	ldr	r2, [r7, #16]
 80051c0:	4313      	orrs	r3, r2
 80051c2:	613b      	str	r3, [r7, #16]
        GPIOx->AFR[position >> 3u] = temp;
 80051c4:	697b      	ldr	r3, [r7, #20]
 80051c6:	08da      	lsrs	r2, r3, #3
 80051c8:	687b      	ldr	r3, [r7, #4]
 80051ca:	3208      	adds	r2, #8
 80051cc:	0092      	lsls	r2, r2, #2
 80051ce:	6939      	ldr	r1, [r7, #16]
 80051d0:	50d1      	str	r1, [r2, r3]
      }

      /* Configure IO Direction mode (Input, Output, Alternate or Analog) */
      temp = GPIOx->MODER;
 80051d2:	687b      	ldr	r3, [r7, #4]
 80051d4:	681b      	ldr	r3, [r3, #0]
 80051d6:	613b      	str	r3, [r7, #16]
      temp &= ~(GPIO_MODER_MODE0 << (position * 2u));
 80051d8:	697b      	ldr	r3, [r7, #20]
 80051da:	005b      	lsls	r3, r3, #1
 80051dc:	2203      	movs	r2, #3
 80051de:	409a      	lsls	r2, r3
 80051e0:	0013      	movs	r3, r2
 80051e2:	43da      	mvns	r2, r3
 80051e4:	693b      	ldr	r3, [r7, #16]
 80051e6:	4013      	ands	r3, r2
 80051e8:	613b      	str	r3, [r7, #16]
      temp |= ((GPIO_Init->Mode & GPIO_MODE) << (position * 2u));
 80051ea:	683b      	ldr	r3, [r7, #0]
 80051ec:	685b      	ldr	r3, [r3, #4]
 80051ee:	2203      	movs	r2, #3
 80051f0:	401a      	ands	r2, r3
 80051f2:	697b      	ldr	r3, [r7, #20]
 80051f4:	005b      	lsls	r3, r3, #1
 80051f6:	409a      	lsls	r2, r3
 80051f8:	0013      	movs	r3, r2
 80051fa:	693a      	ldr	r2, [r7, #16]
 80051fc:	4313      	orrs	r3, r2
 80051fe:	613b      	str	r3, [r7, #16]
      GPIOx->MODER = temp;
 8005200:	687b      	ldr	r3, [r7, #4]
 8005202:	693a      	ldr	r2, [r7, #16]
 8005204:	601a      	str	r2, [r3, #0]

      /*--------------------- EXTI Mode Configuration ------------------------*/
      /* Configure the External Interrupt or event for the current IO */
      if ((GPIO_Init->Mode & EXTI_MODE) != 0x00u)
 8005206:	683b      	ldr	r3, [r7, #0]
 8005208:	685a      	ldr	r2, [r3, #4]
 800520a:	23c0      	movs	r3, #192	; 0xc0
 800520c:	029b      	lsls	r3, r3, #10
 800520e:	4013      	ands	r3, r2
 8005210:	d100      	bne.n	8005214 <HAL_GPIO_Init+0x174>
 8005212:	e092      	b.n	800533a <HAL_GPIO_Init+0x29a>
      {
        temp = EXTI->EXTICR[position >> 2u];
 8005214:	4a50      	ldr	r2, [pc, #320]	; (8005358 <HAL_GPIO_Init+0x2b8>)
 8005216:	697b      	ldr	r3, [r7, #20]
 8005218:	089b      	lsrs	r3, r3, #2
 800521a:	3318      	adds	r3, #24
 800521c:	009b      	lsls	r3, r3, #2
 800521e:	589b      	ldr	r3, [r3, r2]
 8005220:	613b      	str	r3, [r7, #16]
        temp &= ~(0x0FuL << (8u * (position & 0x03u)));
 8005222:	697b      	ldr	r3, [r7, #20]
 8005224:	2203      	movs	r2, #3
 8005226:	4013      	ands	r3, r2
 8005228:	00db      	lsls	r3, r3, #3
 800522a:	220f      	movs	r2, #15
 800522c:	409a      	lsls	r2, r3
 800522e:	0013      	movs	r3, r2
 8005230:	43da      	mvns	r2, r3
 8005232:	693b      	ldr	r3, [r7, #16]
 8005234:	4013      	ands	r3, r2
 8005236:	613b      	str	r3, [r7, #16]
        temp |= (GPIO_GET_INDEX(GPIOx) << (8u * (position & 0x03u)));
 8005238:	687a      	ldr	r2, [r7, #4]
 800523a:	23a0      	movs	r3, #160	; 0xa0
 800523c:	05db      	lsls	r3, r3, #23
 800523e:	429a      	cmp	r2, r3
 8005240:	d013      	beq.n	800526a <HAL_GPIO_Init+0x1ca>
 8005242:	687b      	ldr	r3, [r7, #4]
 8005244:	4a45      	ldr	r2, [pc, #276]	; (800535c <HAL_GPIO_Init+0x2bc>)
 8005246:	4293      	cmp	r3, r2
 8005248:	d00d      	beq.n	8005266 <HAL_GPIO_Init+0x1c6>
 800524a:	687b      	ldr	r3, [r7, #4]
 800524c:	4a44      	ldr	r2, [pc, #272]	; (8005360 <HAL_GPIO_Init+0x2c0>)
 800524e:	4293      	cmp	r3, r2
 8005250:	d007      	beq.n	8005262 <HAL_GPIO_Init+0x1c2>
 8005252:	687b      	ldr	r3, [r7, #4]
 8005254:	4a43      	ldr	r2, [pc, #268]	; (8005364 <HAL_GPIO_Init+0x2c4>)
 8005256:	4293      	cmp	r3, r2
 8005258:	d101      	bne.n	800525e <HAL_GPIO_Init+0x1be>
 800525a:	2303      	movs	r3, #3
 800525c:	e006      	b.n	800526c <HAL_GPIO_Init+0x1cc>
 800525e:	2305      	movs	r3, #5
 8005260:	e004      	b.n	800526c <HAL_GPIO_Init+0x1cc>
 8005262:	2302      	movs	r3, #2
 8005264:	e002      	b.n	800526c <HAL_GPIO_Init+0x1cc>
 8005266:	2301      	movs	r3, #1
 8005268:	e000      	b.n	800526c <HAL_GPIO_Init+0x1cc>
 800526a:	2300      	movs	r3, #0
 800526c:	697a      	ldr	r2, [r7, #20]
 800526e:	2103      	movs	r1, #3
 8005270:	400a      	ands	r2, r1
 8005272:	00d2      	lsls	r2, r2, #3
 8005274:	4093      	lsls	r3, r2
 8005276:	693a      	ldr	r2, [r7, #16]
 8005278:	4313      	orrs	r3, r2
 800527a:	613b      	str	r3, [r7, #16]
        EXTI->EXTICR[position >> 2u] = temp;
 800527c:	4936      	ldr	r1, [pc, #216]	; (8005358 <HAL_GPIO_Init+0x2b8>)
 800527e:	697b      	ldr	r3, [r7, #20]
 8005280:	089b      	lsrs	r3, r3, #2
 8005282:	3318      	adds	r3, #24
 8005284:	009b      	lsls	r3, r3, #2
 8005286:	693a      	ldr	r2, [r7, #16]
 8005288:	505a      	str	r2, [r3, r1]

        /* Clear Rising Falling edge configuration */
        temp = EXTI->RTSR1;
 800528a:	4b33      	ldr	r3, [pc, #204]	; (8005358 <HAL_GPIO_Init+0x2b8>)
 800528c:	681b      	ldr	r3, [r3, #0]
 800528e:	613b      	str	r3, [r7, #16]
        temp &= ~(iocurrent);
 8005290:	68fb      	ldr	r3, [r7, #12]
 8005292:	43da      	mvns	r2, r3
 8005294:	693b      	ldr	r3, [r7, #16]
 8005296:	4013      	ands	r3, r2
 8005298:	613b      	str	r3, [r7, #16]
        if ((GPIO_Init->Mode & TRIGGER_RISING) != 0x00u)
 800529a:	683b      	ldr	r3, [r7, #0]
 800529c:	685a      	ldr	r2, [r3, #4]
 800529e:	2380      	movs	r3, #128	; 0x80
 80052a0:	035b      	lsls	r3, r3, #13
 80052a2:	4013      	ands	r3, r2
 80052a4:	d003      	beq.n	80052ae <HAL_GPIO_Init+0x20e>
        {
          temp |= iocurrent;
 80052a6:	693a      	ldr	r2, [r7, #16]
 80052a8:	68fb      	ldr	r3, [r7, #12]
 80052aa:	4313      	orrs	r3, r2
 80052ac:	613b      	str	r3, [r7, #16]
        }
        EXTI->RTSR1 = temp;
 80052ae:	4b2a      	ldr	r3, [pc, #168]	; (8005358 <HAL_GPIO_Init+0x2b8>)
 80052b0:	693a      	ldr	r2, [r7, #16]
 80052b2:	601a      	str	r2, [r3, #0]

        temp = EXTI->FTSR1;
 80052b4:	4b28      	ldr	r3, [pc, #160]	; (8005358 <HAL_GPIO_Init+0x2b8>)
 80052b6:	685b      	ldr	r3, [r3, #4]
 80052b8:	613b      	str	r3, [r7, #16]
        temp &= ~(iocurrent);
 80052ba:	68fb      	ldr	r3, [r7, #12]
 80052bc:	43da      	mvns	r2, r3
 80052be:	693b      	ldr	r3, [r7, #16]
 80052c0:	4013      	ands	r3, r2
 80052c2:	613b      	str	r3, [r7, #16]
        if ((GPIO_Init->Mode & TRIGGER_FALLING) != 0x00u)
 80052c4:	683b      	ldr	r3, [r7, #0]
 80052c6:	685a      	ldr	r2, [r3, #4]
 80052c8:	2380      	movs	r3, #128	; 0x80
 80052ca:	039b      	lsls	r3, r3, #14
 80052cc:	4013      	ands	r3, r2
 80052ce:	d003      	beq.n	80052d8 <HAL_GPIO_Init+0x238>
        {
          temp |= iocurrent;
 80052d0:	693a      	ldr	r2, [r7, #16]
 80052d2:	68fb      	ldr	r3, [r7, #12]
 80052d4:	4313      	orrs	r3, r2
 80052d6:	613b      	str	r3, [r7, #16]
        }
        EXTI->FTSR1 = temp;
 80052d8:	4b1f      	ldr	r3, [pc, #124]	; (8005358 <HAL_GPIO_Init+0x2b8>)
 80052da:	693a      	ldr	r2, [r7, #16]
 80052dc:	605a      	str	r2, [r3, #4]

        /* Clear EXTI line configuration */
        temp = EXTI->EMR1;
 80052de:	4a1e      	ldr	r2, [pc, #120]	; (8005358 <HAL_GPIO_Init+0x2b8>)
 80052e0:	2384      	movs	r3, #132	; 0x84
 80052e2:	58d3      	ldr	r3, [r2, r3]
 80052e4:	613b      	str	r3, [r7, #16]
        temp &= ~(iocurrent);
 80052e6:	68fb      	ldr	r3, [r7, #12]
 80052e8:	43da      	mvns	r2, r3
 80052ea:	693b      	ldr	r3, [r7, #16]
 80052ec:	4013      	ands	r3, r2
 80052ee:	613b      	str	r3, [r7, #16]
        if ((GPIO_Init->Mode & EXTI_EVT) != 0x00u)
 80052f0:	683b      	ldr	r3, [r7, #0]
 80052f2:	685a      	ldr	r2, [r3, #4]
 80052f4:	2380      	movs	r3, #128	; 0x80
 80052f6:	029b      	lsls	r3, r3, #10
 80052f8:	4013      	ands	r3, r2
 80052fa:	d003      	beq.n	8005304 <HAL_GPIO_Init+0x264>
        {
          temp |= iocurrent;
 80052fc:	693a      	ldr	r2, [r7, #16]
 80052fe:	68fb      	ldr	r3, [r7, #12]
 8005300:	4313      	orrs	r3, r2
 8005302:	613b      	str	r3, [r7, #16]
        }
        EXTI->EMR1 = temp;
 8005304:	4914      	ldr	r1, [pc, #80]	; (8005358 <HAL_GPIO_Init+0x2b8>)
 8005306:	2284      	movs	r2, #132	; 0x84
 8005308:	693b      	ldr	r3, [r7, #16]
 800530a:	508b      	str	r3, [r1, r2]

        temp = EXTI->IMR1;
 800530c:	4a12      	ldr	r2, [pc, #72]	; (8005358 <HAL_GPIO_Init+0x2b8>)
 800530e:	2380      	movs	r3, #128	; 0x80
 8005310:	58d3      	ldr	r3, [r2, r3]
 8005312:	613b      	str	r3, [r7, #16]
        temp &= ~(iocurrent);
 8005314:	68fb      	ldr	r3, [r7, #12]
 8005316:	43da      	mvns	r2, r3
 8005318:	693b      	ldr	r3, [r7, #16]
 800531a:	4013      	ands	r3, r2
 800531c:	613b      	str	r3, [r7, #16]
        if ((GPIO_Init->Mode & EXTI_IT) != 0x00u)
 800531e:	683b      	ldr	r3, [r7, #0]
 8005320:	685a      	ldr	r2, [r3, #4]
 8005322:	2380      	movs	r3, #128	; 0x80
 8005324:	025b      	lsls	r3, r3, #9
 8005326:	4013      	ands	r3, r2
 8005328:	d003      	beq.n	8005332 <HAL_GPIO_Init+0x292>
        {
          temp |= iocurrent;
 800532a:	693a      	ldr	r2, [r7, #16]
 800532c:	68fb      	ldr	r3, [r7, #12]
 800532e:	4313      	orrs	r3, r2
 8005330:	613b      	str	r3, [r7, #16]
        }
        EXTI->IMR1 = temp;
 8005332:	4909      	ldr	r1, [pc, #36]	; (8005358 <HAL_GPIO_Init+0x2b8>)
 8005334:	2280      	movs	r2, #128	; 0x80
 8005336:	693b      	ldr	r3, [r7, #16]
 8005338:	508b      	str	r3, [r1, r2]
      }
    }

    position++;
 800533a:	697b      	ldr	r3, [r7, #20]
 800533c:	3301      	adds	r3, #1
 800533e:	617b      	str	r3, [r7, #20]
  while (((GPIO_Init->Pin) >> position) != 0x00u)
 8005340:	683b      	ldr	r3, [r7, #0]
 8005342:	681a      	ldr	r2, [r3, #0]
 8005344:	697b      	ldr	r3, [r7, #20]
 8005346:	40da      	lsrs	r2, r3
 8005348:	1e13      	subs	r3, r2, #0
 800534a:	d000      	beq.n	800534e <HAL_GPIO_Init+0x2ae>
 800534c:	e6b0      	b.n	80050b0 <HAL_GPIO_Init+0x10>
  }
}
 800534e:	46c0      	nop			; (mov r8, r8)
 8005350:	46c0      	nop			; (mov r8, r8)
 8005352:	46bd      	mov	sp, r7
 8005354:	b006      	add	sp, #24
 8005356:	bd80      	pop	{r7, pc}
 8005358:	40021800 	.word	0x40021800
 800535c:	50000400 	.word	0x50000400
 8005360:	50000800 	.word	0x50000800
 8005364:	50000c00 	.word	0x50000c00

08005368 <HAL_GPIO_WritePin>:
  *            @arg GPIO_PIN_RESET: to clear the port pin
  *            @arg GPIO_PIN_SET: to set the port pin
  * @retval None
  */
void HAL_GPIO_WritePin(GPIO_TypeDef *GPIOx, uint16_t GPIO_Pin, GPIO_PinState PinState)
{
 8005368:	b580      	push	{r7, lr}
 800536a:	b082      	sub	sp, #8
 800536c:	af00      	add	r7, sp, #0
 800536e:	6078      	str	r0, [r7, #4]
 8005370:	0008      	movs	r0, r1
 8005372:	0011      	movs	r1, r2
 8005374:	1cbb      	adds	r3, r7, #2
 8005376:	1c02      	adds	r2, r0, #0
 8005378:	801a      	strh	r2, [r3, #0]
 800537a:	1c7b      	adds	r3, r7, #1
 800537c:	1c0a      	adds	r2, r1, #0
 800537e:	701a      	strb	r2, [r3, #0]
  /* Check the parameters */
  assert_param(IS_GPIO_PIN(GPIO_Pin));
  assert_param(IS_GPIO_PIN_ACTION(PinState));

  if (PinState != GPIO_PIN_RESET)
 8005380:	1c7b      	adds	r3, r7, #1
 8005382:	781b      	ldrb	r3, [r3, #0]
 8005384:	2b00      	cmp	r3, #0
 8005386:	d004      	beq.n	8005392 <HAL_GPIO_WritePin+0x2a>
  {
    GPIOx->BSRR = (uint32_t)GPIO_Pin;
 8005388:	1cbb      	adds	r3, r7, #2
 800538a:	881a      	ldrh	r2, [r3, #0]
 800538c:	687b      	ldr	r3, [r7, #4]
 800538e:	619a      	str	r2, [r3, #24]
  }
  else
  {
    GPIOx->BRR = (uint32_t)GPIO_Pin;
  }
}
 8005390:	e003      	b.n	800539a <HAL_GPIO_WritePin+0x32>
    GPIOx->BRR = (uint32_t)GPIO_Pin;
 8005392:	1cbb      	adds	r3, r7, #2
 8005394:	881a      	ldrh	r2, [r3, #0]
 8005396:	687b      	ldr	r3, [r7, #4]
 8005398:	629a      	str	r2, [r3, #40]	; 0x28
}
 800539a:	46c0      	nop			; (mov r8, r8)
 800539c:	46bd      	mov	sp, r7
 800539e:	b002      	add	sp, #8
 80053a0:	bd80      	pop	{r7, pc}
	...

080053a4 <HAL_PWR_EnableBkUpAccess>:
  *         possible unwanted write accesses. All RTC & TAMP registers (backup
  *         registers included) and RCC BDCR register are concerned.
  * @retval None
  */
void HAL_PWR_EnableBkUpAccess(void)
{
 80053a4:	b580      	push	{r7, lr}
 80053a6:	af00      	add	r7, sp, #0
  SET_BIT(PWR->CR1, PWR_CR1_DBP);
 80053a8:	4b04      	ldr	r3, [pc, #16]	; (80053bc <HAL_PWR_EnableBkUpAccess+0x18>)
 80053aa:	681a      	ldr	r2, [r3, #0]
 80053ac:	4b03      	ldr	r3, [pc, #12]	; (80053bc <HAL_PWR_EnableBkUpAccess+0x18>)
 80053ae:	2180      	movs	r1, #128	; 0x80
 80053b0:	0049      	lsls	r1, r1, #1
 80053b2:	430a      	orrs	r2, r1
 80053b4:	601a      	str	r2, [r3, #0]
}
 80053b6:	46c0      	nop			; (mov r8, r8)
 80053b8:	46bd      	mov	sp, r7
 80053ba:	bd80      	pop	{r7, pc}
 80053bc:	40007000 	.word	0x40007000

080053c0 <HAL_PWREx_ControlVoltageScaling>:
  *        cleared before returning the status. If the flag is not cleared within
  *        6 microseconds, HAL_TIMEOUT status is reported.
  * @retval HAL Status
  */
HAL_StatusTypeDef HAL_PWREx_ControlVoltageScaling(uint32_t VoltageScaling)
{
 80053c0:	b580      	push	{r7, lr}
 80053c2:	b084      	sub	sp, #16
 80053c4:	af00      	add	r7, sp, #0
 80053c6:	6078      	str	r0, [r7, #4]
  uint32_t wait_loop_index;

  assert_param(IS_PWR_VOLTAGE_SCALING_RANGE(VoltageScaling));

  /* Modify voltage scaling range */
  MODIFY_REG(PWR->CR1, PWR_CR1_VOS, VoltageScaling);
 80053c8:	4b19      	ldr	r3, [pc, #100]	; (8005430 <HAL_PWREx_ControlVoltageScaling+0x70>)
 80053ca:	681b      	ldr	r3, [r3, #0]
 80053cc:	4a19      	ldr	r2, [pc, #100]	; (8005434 <HAL_PWREx_ControlVoltageScaling+0x74>)
 80053ce:	4013      	ands	r3, r2
 80053d0:	0019      	movs	r1, r3
 80053d2:	4b17      	ldr	r3, [pc, #92]	; (8005430 <HAL_PWREx_ControlVoltageScaling+0x70>)
 80053d4:	687a      	ldr	r2, [r7, #4]
 80053d6:	430a      	orrs	r2, r1
 80053d8:	601a      	str	r2, [r3, #0]

  /* In case of Range 1 selected, we need to ensure that main regulator reaches new value */
  if (VoltageScaling == PWR_REGULATOR_VOLTAGE_SCALE1)
 80053da:	687a      	ldr	r2, [r7, #4]
 80053dc:	2380      	movs	r3, #128	; 0x80
 80053de:	009b      	lsls	r3, r3, #2
 80053e0:	429a      	cmp	r2, r3
 80053e2:	d11f      	bne.n	8005424 <HAL_PWREx_ControlVoltageScaling+0x64>
  {
    /* Set timeout value */
    wait_loop_index = ((PWR_VOSF_SETTING_DELAY_6_US * SystemCoreClock) / 1000000U) + 1U;
 80053e4:	4b14      	ldr	r3, [pc, #80]	; (8005438 <HAL_PWREx_ControlVoltageScaling+0x78>)
 80053e6:	681a      	ldr	r2, [r3, #0]
 80053e8:	0013      	movs	r3, r2
 80053ea:	005b      	lsls	r3, r3, #1
 80053ec:	189b      	adds	r3, r3, r2
 80053ee:	005b      	lsls	r3, r3, #1
 80053f0:	4912      	ldr	r1, [pc, #72]	; (800543c <HAL_PWREx_ControlVoltageScaling+0x7c>)
 80053f2:	0018      	movs	r0, r3
 80053f4:	f7fa fe8c 	bl	8000110 <__udivsi3>
 80053f8:	0003      	movs	r3, r0
 80053fa:	3301      	adds	r3, #1
 80053fc:	60fb      	str	r3, [r7, #12]

    /* Wait until VOSF is reset */
    while (HAL_IS_BIT_SET(PWR->SR2, PWR_SR2_VOSF))
 80053fe:	e008      	b.n	8005412 <HAL_PWREx_ControlVoltageScaling+0x52>
    {
      if (wait_loop_index != 0U)
 8005400:	68fb      	ldr	r3, [r7, #12]
 8005402:	2b00      	cmp	r3, #0
 8005404:	d003      	beq.n	800540e <HAL_PWREx_ControlVoltageScaling+0x4e>
      {
        wait_loop_index--;
 8005406:	68fb      	ldr	r3, [r7, #12]
 8005408:	3b01      	subs	r3, #1
 800540a:	60fb      	str	r3, [r7, #12]
 800540c:	e001      	b.n	8005412 <HAL_PWREx_ControlVoltageScaling+0x52>
      }
      else
      {
        return HAL_TIMEOUT;
 800540e:	2303      	movs	r3, #3
 8005410:	e009      	b.n	8005426 <HAL_PWREx_ControlVoltageScaling+0x66>
    while (HAL_IS_BIT_SET(PWR->SR2, PWR_SR2_VOSF))
 8005412:	4b07      	ldr	r3, [pc, #28]	; (8005430 <HAL_PWREx_ControlVoltageScaling+0x70>)
 8005414:	695a      	ldr	r2, [r3, #20]
 8005416:	2380      	movs	r3, #128	; 0x80
 8005418:	00db      	lsls	r3, r3, #3
 800541a:	401a      	ands	r2, r3
 800541c:	2380      	movs	r3, #128	; 0x80
 800541e:	00db      	lsls	r3, r3, #3
 8005420:	429a      	cmp	r2, r3
 8005422:	d0ed      	beq.n	8005400 <HAL_PWREx_ControlVoltageScaling+0x40>
      }
    }
  }

  return HAL_OK;
 8005424:	2300      	movs	r3, #0
}
 8005426:	0018      	movs	r0, r3
 8005428:	46bd      	mov	sp, r7
 800542a:	b004      	add	sp, #16
 800542c:	bd80      	pop	{r7, pc}
 800542e:	46c0      	nop			; (mov r8, r8)
 8005430:	40007000 	.word	0x40007000
 8005434:	fffff9ff 	.word	0xfffff9ff
 8005438:	20000004 	.word	0x20000004
 800543c:	000f4240 	.word	0x000f4240

08005440 <LL_RCC_GetAPB1Prescaler>:
  *         @arg @ref LL_RCC_APB1_DIV_4
  *         @arg @ref LL_RCC_APB1_DIV_8
  *         @arg @ref LL_RCC_APB1_DIV_16
  */
__STATIC_INLINE uint32_t LL_RCC_GetAPB1Prescaler(void)
{
 8005440:	b580      	push	{r7, lr}
 8005442:	af00      	add	r7, sp, #0
  return (uint32_t)(READ_BIT(RCC->CFGR, RCC_CFGR_PPRE));
 8005444:	4b03      	ldr	r3, [pc, #12]	; (8005454 <LL_RCC_GetAPB1Prescaler+0x14>)
 8005446:	689a      	ldr	r2, [r3, #8]
 8005448:	23e0      	movs	r3, #224	; 0xe0
 800544a:	01db      	lsls	r3, r3, #7
 800544c:	4013      	ands	r3, r2
}
 800544e:	0018      	movs	r0, r3
 8005450:	46bd      	mov	sp, r7
 8005452:	bd80      	pop	{r7, pc}
 8005454:	40021000 	.word	0x40021000

08005458 <HAL_RCC_OscConfig>:
  *         supported by this function. User should request a transition to LSE Off
  *         first and then to LSE On or LSE Bypass.
  * @retval HAL status
  */
HAL_StatusTypeDef HAL_RCC_OscConfig(const RCC_OscInitTypeDef  *RCC_OscInitStruct)
{
 8005458:	b580      	push	{r7, lr}
 800545a:	b088      	sub	sp, #32
 800545c:	af00      	add	r7, sp, #0
 800545e:	6078      	str	r0, [r7, #4]
  uint32_t tickstart;
  uint32_t temp_sysclksrc;
  uint32_t temp_pllckcfg;

  /* Check Null pointer */
  if (RCC_OscInitStruct == NULL)
 8005460:	687b      	ldr	r3, [r7, #4]
 8005462:	2b00      	cmp	r3, #0
 8005464:	d101      	bne.n	800546a <HAL_RCC_OscConfig+0x12>
  {
    return HAL_ERROR;
 8005466:	2301      	movs	r3, #1
 8005468:	e2f3      	b.n	8005a52 <HAL_RCC_OscConfig+0x5fa>

  /* Check the parameters */
  assert_param(IS_RCC_OSCILLATORTYPE(RCC_OscInitStruct->OscillatorType));

  /*------------------------------- HSE Configuration ------------------------*/
  if (((RCC_OscInitStruct->OscillatorType) & RCC_OSCILLATORTYPE_HSE) == RCC_OSCILLATORTYPE_HSE)
 800546a:	687b      	ldr	r3, [r7, #4]
 800546c:	681b      	ldr	r3, [r3, #0]
 800546e:	2201      	movs	r2, #1
 8005470:	4013      	ands	r3, r2
 8005472:	d100      	bne.n	8005476 <HAL_RCC_OscConfig+0x1e>
 8005474:	e07c      	b.n	8005570 <HAL_RCC_OscConfig+0x118>
  {
    /* Check the parameters */
    assert_param(IS_RCC_HSE(RCC_OscInitStruct->HSEState));

    temp_sysclksrc = __HAL_RCC_GET_SYSCLK_SOURCE();
 8005476:	4bc3      	ldr	r3, [pc, #780]	; (8005784 <HAL_RCC_OscConfig+0x32c>)
 8005478:	689b      	ldr	r3, [r3, #8]
 800547a:	2238      	movs	r2, #56	; 0x38
 800547c:	4013      	ands	r3, r2
 800547e:	61bb      	str	r3, [r7, #24]
    temp_pllckcfg = __HAL_RCC_GET_PLL_OSCSOURCE();
 8005480:	4bc0      	ldr	r3, [pc, #768]	; (8005784 <HAL_RCC_OscConfig+0x32c>)
 8005482:	68db      	ldr	r3, [r3, #12]
 8005484:	2203      	movs	r2, #3
 8005486:	4013      	ands	r3, r2
 8005488:	617b      	str	r3, [r7, #20]

    /* When the HSE is used as system clock or clock source for PLL in these cases it is not allowed to be disabled */
    if (((temp_sysclksrc == RCC_SYSCLKSOURCE_STATUS_PLLCLK) && (temp_pllckcfg == RCC_PLLSOURCE_HSE))
 800548a:	69bb      	ldr	r3, [r7, #24]
 800548c:	2b10      	cmp	r3, #16
 800548e:	d102      	bne.n	8005496 <HAL_RCC_OscConfig+0x3e>
 8005490:	697b      	ldr	r3, [r7, #20]
 8005492:	2b03      	cmp	r3, #3
 8005494:	d002      	beq.n	800549c <HAL_RCC_OscConfig+0x44>
        || (temp_sysclksrc == RCC_SYSCLKSOURCE_STATUS_HSE))
 8005496:	69bb      	ldr	r3, [r7, #24]
 8005498:	2b08      	cmp	r3, #8
 800549a:	d10b      	bne.n	80054b4 <HAL_RCC_OscConfig+0x5c>
    {
      if ((READ_BIT(RCC->CR, RCC_CR_HSERDY) != 0U) && (RCC_OscInitStruct->HSEState == RCC_HSE_OFF))
 800549c:	4bb9      	ldr	r3, [pc, #740]	; (8005784 <HAL_RCC_OscConfig+0x32c>)
 800549e:	681a      	ldr	r2, [r3, #0]
 80054a0:	2380      	movs	r3, #128	; 0x80
 80054a2:	029b      	lsls	r3, r3, #10
 80054a4:	4013      	ands	r3, r2
 80054a6:	d062      	beq.n	800556e <HAL_RCC_OscConfig+0x116>
 80054a8:	687b      	ldr	r3, [r7, #4]
 80054aa:	685b      	ldr	r3, [r3, #4]
 80054ac:	2b00      	cmp	r3, #0
 80054ae:	d15e      	bne.n	800556e <HAL_RCC_OscConfig+0x116>
      {
        return HAL_ERROR;
 80054b0:	2301      	movs	r3, #1
 80054b2:	e2ce      	b.n	8005a52 <HAL_RCC_OscConfig+0x5fa>
      }
    }
    else
    {
      /* Set the new HSE configuration ---------------------------------------*/
      __HAL_RCC_HSE_CONFIG(RCC_OscInitStruct->HSEState);
 80054b4:	687b      	ldr	r3, [r7, #4]
 80054b6:	685a      	ldr	r2, [r3, #4]
 80054b8:	2380      	movs	r3, #128	; 0x80
 80054ba:	025b      	lsls	r3, r3, #9
 80054bc:	429a      	cmp	r2, r3
 80054be:	d107      	bne.n	80054d0 <HAL_RCC_OscConfig+0x78>
 80054c0:	4bb0      	ldr	r3, [pc, #704]	; (8005784 <HAL_RCC_OscConfig+0x32c>)
 80054c2:	681a      	ldr	r2, [r3, #0]
 80054c4:	4baf      	ldr	r3, [pc, #700]	; (8005784 <HAL_RCC_OscConfig+0x32c>)
 80054c6:	2180      	movs	r1, #128	; 0x80
 80054c8:	0249      	lsls	r1, r1, #9
 80054ca:	430a      	orrs	r2, r1
 80054cc:	601a      	str	r2, [r3, #0]
 80054ce:	e020      	b.n	8005512 <HAL_RCC_OscConfig+0xba>
 80054d0:	687b      	ldr	r3, [r7, #4]
 80054d2:	685a      	ldr	r2, [r3, #4]
 80054d4:	23a0      	movs	r3, #160	; 0xa0
 80054d6:	02db      	lsls	r3, r3, #11
 80054d8:	429a      	cmp	r2, r3
 80054da:	d10e      	bne.n	80054fa <HAL_RCC_OscConfig+0xa2>
 80054dc:	4ba9      	ldr	r3, [pc, #676]	; (8005784 <HAL_RCC_OscConfig+0x32c>)
 80054de:	681a      	ldr	r2, [r3, #0]
 80054e0:	4ba8      	ldr	r3, [pc, #672]	; (8005784 <HAL_RCC_OscConfig+0x32c>)
 80054e2:	2180      	movs	r1, #128	; 0x80
 80054e4:	02c9      	lsls	r1, r1, #11
 80054e6:	430a      	orrs	r2, r1
 80054e8:	601a      	str	r2, [r3, #0]
 80054ea:	4ba6      	ldr	r3, [pc, #664]	; (8005784 <HAL_RCC_OscConfig+0x32c>)
 80054ec:	681a      	ldr	r2, [r3, #0]
 80054ee:	4ba5      	ldr	r3, [pc, #660]	; (8005784 <HAL_RCC_OscConfig+0x32c>)
 80054f0:	2180      	movs	r1, #128	; 0x80
 80054f2:	0249      	lsls	r1, r1, #9
 80054f4:	430a      	orrs	r2, r1
 80054f6:	601a      	str	r2, [r3, #0]
 80054f8:	e00b      	b.n	8005512 <HAL_RCC_OscConfig+0xba>
 80054fa:	4ba2      	ldr	r3, [pc, #648]	; (8005784 <HAL_RCC_OscConfig+0x32c>)
 80054fc:	681a      	ldr	r2, [r3, #0]
 80054fe:	4ba1      	ldr	r3, [pc, #644]	; (8005784 <HAL_RCC_OscConfig+0x32c>)
 8005500:	49a1      	ldr	r1, [pc, #644]	; (8005788 <HAL_RCC_OscConfig+0x330>)
 8005502:	400a      	ands	r2, r1
 8005504:	601a      	str	r2, [r3, #0]
 8005506:	4b9f      	ldr	r3, [pc, #636]	; (8005784 <HAL_RCC_OscConfig+0x32c>)
 8005508:	681a      	ldr	r2, [r3, #0]
 800550a:	4b9e      	ldr	r3, [pc, #632]	; (8005784 <HAL_RCC_OscConfig+0x32c>)
 800550c:	499f      	ldr	r1, [pc, #636]	; (800578c <HAL_RCC_OscConfig+0x334>)
 800550e:	400a      	ands	r2, r1
 8005510:	601a      	str	r2, [r3, #0]

      /* Check the HSE State */
      if (RCC_OscInitStruct->HSEState != RCC_HSE_OFF)
 8005512:	687b      	ldr	r3, [r7, #4]
 8005514:	685b      	ldr	r3, [r3, #4]
 8005516:	2b00      	cmp	r3, #0
 8005518:	d014      	beq.n	8005544 <HAL_RCC_OscConfig+0xec>
      {
        /* Get Start Tick*/
        tickstart = HAL_GetTick();
 800551a:	f7ff fbdf 	bl	8004cdc <HAL_GetTick>
 800551e:	0003      	movs	r3, r0
 8005520:	613b      	str	r3, [r7, #16]

        /* Wait till HSE is ready */
        while (READ_BIT(RCC->CR, RCC_CR_HSERDY) == 0U)
 8005522:	e008      	b.n	8005536 <HAL_RCC_OscConfig+0xde>
        {
          if ((HAL_GetTick() - tickstart) > HSE_TIMEOUT_VALUE)
 8005524:	f7ff fbda 	bl	8004cdc <HAL_GetTick>
 8005528:	0002      	movs	r2, r0
 800552a:	693b      	ldr	r3, [r7, #16]
 800552c:	1ad3      	subs	r3, r2, r3
 800552e:	2b64      	cmp	r3, #100	; 0x64
 8005530:	d901      	bls.n	8005536 <HAL_RCC_OscConfig+0xde>
          {
            return HAL_TIMEOUT;
 8005532:	2303      	movs	r3, #3
 8005534:	e28d      	b.n	8005a52 <HAL_RCC_OscConfig+0x5fa>
        while (READ_BIT(RCC->CR, RCC_CR_HSERDY) == 0U)
 8005536:	4b93      	ldr	r3, [pc, #588]	; (8005784 <HAL_RCC_OscConfig+0x32c>)
 8005538:	681a      	ldr	r2, [r3, #0]
 800553a:	2380      	movs	r3, #128	; 0x80
 800553c:	029b      	lsls	r3, r3, #10
 800553e:	4013      	ands	r3, r2
 8005540:	d0f0      	beq.n	8005524 <HAL_RCC_OscConfig+0xcc>
 8005542:	e015      	b.n	8005570 <HAL_RCC_OscConfig+0x118>
        }
      }
      else
      {
        /* Get Start Tick*/
        tickstart = HAL_GetTick();
 8005544:	f7ff fbca 	bl	8004cdc <HAL_GetTick>
 8005548:	0003      	movs	r3, r0
 800554a:	613b      	str	r3, [r7, #16]

        /* Wait till HSE is disabled */
        while (READ_BIT(RCC->CR, RCC_CR_HSERDY) != 0U)
 800554c:	e008      	b.n	8005560 <HAL_RCC_OscConfig+0x108>
        {
          if ((HAL_GetTick() - tickstart) > HSE_TIMEOUT_VALUE)
 800554e:	f7ff fbc5 	bl	8004cdc <HAL_GetTick>
 8005552:	0002      	movs	r2, r0
 8005554:	693b      	ldr	r3, [r7, #16]
 8005556:	1ad3      	subs	r3, r2, r3
 8005558:	2b64      	cmp	r3, #100	; 0x64
 800555a:	d901      	bls.n	8005560 <HAL_RCC_OscConfig+0x108>
          {
            return HAL_TIMEOUT;
 800555c:	2303      	movs	r3, #3
 800555e:	e278      	b.n	8005a52 <HAL_RCC_OscConfig+0x5fa>
        while (READ_BIT(RCC->CR, RCC_CR_HSERDY) != 0U)
 8005560:	4b88      	ldr	r3, [pc, #544]	; (8005784 <HAL_RCC_OscConfig+0x32c>)
 8005562:	681a      	ldr	r2, [r3, #0]
 8005564:	2380      	movs	r3, #128	; 0x80
 8005566:	029b      	lsls	r3, r3, #10
 8005568:	4013      	ands	r3, r2
 800556a:	d1f0      	bne.n	800554e <HAL_RCC_OscConfig+0xf6>
 800556c:	e000      	b.n	8005570 <HAL_RCC_OscConfig+0x118>
      if ((READ_BIT(RCC->CR, RCC_CR_HSERDY) != 0U) && (RCC_OscInitStruct->HSEState == RCC_HSE_OFF))
 800556e:	46c0      	nop			; (mov r8, r8)
        }
      }
    }
  }
  /*----------------------------- HSI Configuration --------------------------*/
  if (((RCC_OscInitStruct->OscillatorType) & RCC_OSCILLATORTYPE_HSI) == RCC_OSCILLATORTYPE_HSI)
 8005570:	687b      	ldr	r3, [r7, #4]
 8005572:	681b      	ldr	r3, [r3, #0]
 8005574:	2202      	movs	r2, #2
 8005576:	4013      	ands	r3, r2
 8005578:	d100      	bne.n	800557c <HAL_RCC_OscConfig+0x124>
 800557a:	e099      	b.n	80056b0 <HAL_RCC_OscConfig+0x258>
    assert_param(IS_RCC_HSI(RCC_OscInitStruct->HSIState));
    assert_param(IS_RCC_HSI_CALIBRATION_VALUE(RCC_OscInitStruct->HSICalibrationValue));
    assert_param(IS_RCC_HSIDIV(RCC_OscInitStruct->HSIDiv));

    /* Check if HSI16 is used as system clock or as PLL source when PLL is selected as system clock */
    temp_sysclksrc = __HAL_RCC_GET_SYSCLK_SOURCE();
 800557c:	4b81      	ldr	r3, [pc, #516]	; (8005784 <HAL_RCC_OscConfig+0x32c>)
 800557e:	689b      	ldr	r3, [r3, #8]
 8005580:	2238      	movs	r2, #56	; 0x38
 8005582:	4013      	ands	r3, r2
 8005584:	61bb      	str	r3, [r7, #24]
    temp_pllckcfg = __HAL_RCC_GET_PLL_OSCSOURCE();
 8005586:	4b7f      	ldr	r3, [pc, #508]	; (8005784 <HAL_RCC_OscConfig+0x32c>)
 8005588:	68db      	ldr	r3, [r3, #12]
 800558a:	2203      	movs	r2, #3
 800558c:	4013      	ands	r3, r2
 800558e:	617b      	str	r3, [r7, #20]
    if (((temp_sysclksrc == RCC_SYSCLKSOURCE_STATUS_PLLCLK) && (temp_pllckcfg == RCC_PLLSOURCE_HSI))
 8005590:	69bb      	ldr	r3, [r7, #24]
 8005592:	2b10      	cmp	r3, #16
 8005594:	d102      	bne.n	800559c <HAL_RCC_OscConfig+0x144>
 8005596:	697b      	ldr	r3, [r7, #20]
 8005598:	2b02      	cmp	r3, #2
 800559a:	d002      	beq.n	80055a2 <HAL_RCC_OscConfig+0x14a>
        || (temp_sysclksrc == RCC_SYSCLKSOURCE_STATUS_HSI))
 800559c:	69bb      	ldr	r3, [r7, #24]
 800559e:	2b00      	cmp	r3, #0
 80055a0:	d135      	bne.n	800560e <HAL_RCC_OscConfig+0x1b6>
    {
      /* When HSI is used as system clock or as PLL input clock it can not be disabled */
      if ((READ_BIT(RCC->CR, RCC_CR_HSIRDY) != 0U) && (RCC_OscInitStruct->HSIState == RCC_HSI_OFF))
 80055a2:	4b78      	ldr	r3, [pc, #480]	; (8005784 <HAL_RCC_OscConfig+0x32c>)
 80055a4:	681a      	ldr	r2, [r3, #0]
 80055a6:	2380      	movs	r3, #128	; 0x80
 80055a8:	00db      	lsls	r3, r3, #3
 80055aa:	4013      	ands	r3, r2
 80055ac:	d005      	beq.n	80055ba <HAL_RCC_OscConfig+0x162>
 80055ae:	687b      	ldr	r3, [r7, #4]
 80055b0:	68db      	ldr	r3, [r3, #12]
 80055b2:	2b00      	cmp	r3, #0
 80055b4:	d101      	bne.n	80055ba <HAL_RCC_OscConfig+0x162>
      {
        return HAL_ERROR;
 80055b6:	2301      	movs	r3, #1
 80055b8:	e24b      	b.n	8005a52 <HAL_RCC_OscConfig+0x5fa>
      }
      /* Otherwise, just the calibration is allowed */
      else
      {
        /* Adjusts the Internal High Speed oscillator (HSI) calibration value.*/
        __HAL_RCC_HSI_CALIBRATIONVALUE_ADJUST(RCC_OscInitStruct->HSICalibrationValue);
 80055ba:	4b72      	ldr	r3, [pc, #456]	; (8005784 <HAL_RCC_OscConfig+0x32c>)
 80055bc:	685b      	ldr	r3, [r3, #4]
 80055be:	4a74      	ldr	r2, [pc, #464]	; (8005790 <HAL_RCC_OscConfig+0x338>)
 80055c0:	4013      	ands	r3, r2
 80055c2:	0019      	movs	r1, r3
 80055c4:	687b      	ldr	r3, [r7, #4]
 80055c6:	695b      	ldr	r3, [r3, #20]
 80055c8:	021a      	lsls	r2, r3, #8
 80055ca:	4b6e      	ldr	r3, [pc, #440]	; (8005784 <HAL_RCC_OscConfig+0x32c>)
 80055cc:	430a      	orrs	r2, r1
 80055ce:	605a      	str	r2, [r3, #4]

        if (temp_sysclksrc == RCC_SYSCLKSOURCE_STATUS_HSI)
 80055d0:	69bb      	ldr	r3, [r7, #24]
 80055d2:	2b00      	cmp	r3, #0
 80055d4:	d112      	bne.n	80055fc <HAL_RCC_OscConfig+0x1a4>
        {
          /* Adjust the HSI16 division factor */
          __HAL_RCC_HSI_CONFIG(RCC_OscInitStruct->HSIDiv);
 80055d6:	4b6b      	ldr	r3, [pc, #428]	; (8005784 <HAL_RCC_OscConfig+0x32c>)
 80055d8:	681b      	ldr	r3, [r3, #0]
 80055da:	4a6e      	ldr	r2, [pc, #440]	; (8005794 <HAL_RCC_OscConfig+0x33c>)
 80055dc:	4013      	ands	r3, r2
 80055de:	0019      	movs	r1, r3
 80055e0:	687b      	ldr	r3, [r7, #4]
 80055e2:	691a      	ldr	r2, [r3, #16]
 80055e4:	4b67      	ldr	r3, [pc, #412]	; (8005784 <HAL_RCC_OscConfig+0x32c>)
 80055e6:	430a      	orrs	r2, r1
 80055e8:	601a      	str	r2, [r3, #0]

          /* Update the SystemCoreClock global variable with HSISYS value  */
          SystemCoreClock = (HSI_VALUE / (1UL << ((READ_BIT(RCC->CR, RCC_CR_HSIDIV)) >> RCC_CR_HSIDIV_Pos)));
 80055ea:	4b66      	ldr	r3, [pc, #408]	; (8005784 <HAL_RCC_OscConfig+0x32c>)
 80055ec:	681b      	ldr	r3, [r3, #0]
 80055ee:	0adb      	lsrs	r3, r3, #11
 80055f0:	2207      	movs	r2, #7
 80055f2:	4013      	ands	r3, r2
 80055f4:	4a68      	ldr	r2, [pc, #416]	; (8005798 <HAL_RCC_OscConfig+0x340>)
 80055f6:	40da      	lsrs	r2, r3
 80055f8:	4b68      	ldr	r3, [pc, #416]	; (800579c <HAL_RCC_OscConfig+0x344>)
 80055fa:	601a      	str	r2, [r3, #0]
        }

        /* Adapt Systick interrupt period */
        if (HAL_InitTick(uwTickPrio) != HAL_OK)
 80055fc:	4b68      	ldr	r3, [pc, #416]	; (80057a0 <HAL_RCC_OscConfig+0x348>)
 80055fe:	681b      	ldr	r3, [r3, #0]
 8005600:	0018      	movs	r0, r3
 8005602:	f7ff fb0f 	bl	8004c24 <HAL_InitTick>
 8005606:	1e03      	subs	r3, r0, #0
 8005608:	d051      	beq.n	80056ae <HAL_RCC_OscConfig+0x256>
        {
          return HAL_ERROR;
 800560a:	2301      	movs	r3, #1
 800560c:	e221      	b.n	8005a52 <HAL_RCC_OscConfig+0x5fa>
      }
    }
    else
    {
      /* Check the HSI State */
      if (RCC_OscInitStruct->HSIState != RCC_HSI_OFF)
 800560e:	687b      	ldr	r3, [r7, #4]
 8005610:	68db      	ldr	r3, [r3, #12]
 8005612:	2b00      	cmp	r3, #0
 8005614:	d030      	beq.n	8005678 <HAL_RCC_OscConfig+0x220>
      {
        /* Configure the HSI16 division factor */
        __HAL_RCC_HSI_CONFIG(RCC_OscInitStruct->HSIDiv);
 8005616:	4b5b      	ldr	r3, [pc, #364]	; (8005784 <HAL_RCC_OscConfig+0x32c>)
 8005618:	681b      	ldr	r3, [r3, #0]
 800561a:	4a5e      	ldr	r2, [pc, #376]	; (8005794 <HAL_RCC_OscConfig+0x33c>)
 800561c:	4013      	ands	r3, r2
 800561e:	0019      	movs	r1, r3
 8005620:	687b      	ldr	r3, [r7, #4]
 8005622:	691a      	ldr	r2, [r3, #16]
 8005624:	4b57      	ldr	r3, [pc, #348]	; (8005784 <HAL_RCC_OscConfig+0x32c>)
 8005626:	430a      	orrs	r2, r1
 8005628:	601a      	str	r2, [r3, #0]

        /* Enable the Internal High Speed oscillator (HSI16). */
        __HAL_RCC_HSI_ENABLE();
 800562a:	4b56      	ldr	r3, [pc, #344]	; (8005784 <HAL_RCC_OscConfig+0x32c>)
 800562c:	681a      	ldr	r2, [r3, #0]
 800562e:	4b55      	ldr	r3, [pc, #340]	; (8005784 <HAL_RCC_OscConfig+0x32c>)
 8005630:	2180      	movs	r1, #128	; 0x80
 8005632:	0049      	lsls	r1, r1, #1
 8005634:	430a      	orrs	r2, r1
 8005636:	601a      	str	r2, [r3, #0]

        /* Get Start Tick*/
        tickstart = HAL_GetTick();
 8005638:	f7ff fb50 	bl	8004cdc <HAL_GetTick>
 800563c:	0003      	movs	r3, r0
 800563e:	613b      	str	r3, [r7, #16]

        /* Wait till HSI is ready */
        while (READ_BIT(RCC->CR, RCC_CR_HSIRDY) == 0U)
 8005640:	e008      	b.n	8005654 <HAL_RCC_OscConfig+0x1fc>
        {
          if ((HAL_GetTick() - tickstart) > HSI_TIMEOUT_VALUE)
 8005642:	f7ff fb4b 	bl	8004cdc <HAL_GetTick>
 8005646:	0002      	movs	r2, r0
 8005648:	693b      	ldr	r3, [r7, #16]
 800564a:	1ad3      	subs	r3, r2, r3
 800564c:	2b02      	cmp	r3, #2
 800564e:	d901      	bls.n	8005654 <HAL_RCC_OscConfig+0x1fc>
          {
            return HAL_TIMEOUT;
 8005650:	2303      	movs	r3, #3
 8005652:	e1fe      	b.n	8005a52 <HAL_RCC_OscConfig+0x5fa>
        while (READ_BIT(RCC->CR, RCC_CR_HSIRDY) == 0U)
 8005654:	4b4b      	ldr	r3, [pc, #300]	; (8005784 <HAL_RCC_OscConfig+0x32c>)
 8005656:	681a      	ldr	r2, [r3, #0]
 8005658:	2380      	movs	r3, #128	; 0x80
 800565a:	00db      	lsls	r3, r3, #3
 800565c:	4013      	ands	r3, r2
 800565e:	d0f0      	beq.n	8005642 <HAL_RCC_OscConfig+0x1ea>
          }
        }

        /* Adjusts the Internal High Speed oscillator (HSI) calibration value.*/
        __HAL_RCC_HSI_CALIBRATIONVALUE_ADJUST(RCC_OscInitStruct->HSICalibrationValue);
 8005660:	4b48      	ldr	r3, [pc, #288]	; (8005784 <HAL_RCC_OscConfig+0x32c>)
 8005662:	685b      	ldr	r3, [r3, #4]
 8005664:	4a4a      	ldr	r2, [pc, #296]	; (8005790 <HAL_RCC_OscConfig+0x338>)
 8005666:	4013      	ands	r3, r2
 8005668:	0019      	movs	r1, r3
 800566a:	687b      	ldr	r3, [r7, #4]
 800566c:	695b      	ldr	r3, [r3, #20]
 800566e:	021a      	lsls	r2, r3, #8
 8005670:	4b44      	ldr	r3, [pc, #272]	; (8005784 <HAL_RCC_OscConfig+0x32c>)
 8005672:	430a      	orrs	r2, r1
 8005674:	605a      	str	r2, [r3, #4]
 8005676:	e01b      	b.n	80056b0 <HAL_RCC_OscConfig+0x258>
      }
      else
      {
        /* Disable the Internal High Speed oscillator (HSI16). */
        __HAL_RCC_HSI_DISABLE();
 8005678:	4b42      	ldr	r3, [pc, #264]	; (8005784 <HAL_RCC_OscConfig+0x32c>)
 800567a:	681a      	ldr	r2, [r3, #0]
 800567c:	4b41      	ldr	r3, [pc, #260]	; (8005784 <HAL_RCC_OscConfig+0x32c>)
 800567e:	4949      	ldr	r1, [pc, #292]	; (80057a4 <HAL_RCC_OscConfig+0x34c>)
 8005680:	400a      	ands	r2, r1
 8005682:	601a      	str	r2, [r3, #0]

        /* Get Start Tick*/
        tickstart = HAL_GetTick();
 8005684:	f7ff fb2a 	bl	8004cdc <HAL_GetTick>
 8005688:	0003      	movs	r3, r0
 800568a:	613b      	str	r3, [r7, #16]

        /* Wait till HSI is disabled */
        while (READ_BIT(RCC->CR, RCC_CR_HSIRDY) != 0U)
 800568c:	e008      	b.n	80056a0 <HAL_RCC_OscConfig+0x248>
        {
          if ((HAL_GetTick() - tickstart) > HSI_TIMEOUT_VALUE)
 800568e:	f7ff fb25 	bl	8004cdc <HAL_GetTick>
 8005692:	0002      	movs	r2, r0
 8005694:	693b      	ldr	r3, [r7, #16]
 8005696:	1ad3      	subs	r3, r2, r3
 8005698:	2b02      	cmp	r3, #2
 800569a:	d901      	bls.n	80056a0 <HAL_RCC_OscConfig+0x248>
          {
            return HAL_TIMEOUT;
 800569c:	2303      	movs	r3, #3
 800569e:	e1d8      	b.n	8005a52 <HAL_RCC_OscConfig+0x5fa>
        while (READ_BIT(RCC->CR, RCC_CR_HSIRDY) != 0U)
 80056a0:	4b38      	ldr	r3, [pc, #224]	; (8005784 <HAL_RCC_OscConfig+0x32c>)
 80056a2:	681a      	ldr	r2, [r3, #0]
 80056a4:	2380      	movs	r3, #128	; 0x80
 80056a6:	00db      	lsls	r3, r3, #3
 80056a8:	4013      	ands	r3, r2
 80056aa:	d1f0      	bne.n	800568e <HAL_RCC_OscConfig+0x236>
 80056ac:	e000      	b.n	80056b0 <HAL_RCC_OscConfig+0x258>
      if ((READ_BIT(RCC->CR, RCC_CR_HSIRDY) != 0U) && (RCC_OscInitStruct->HSIState == RCC_HSI_OFF))
 80056ae:	46c0      	nop			; (mov r8, r8)
        }
      }
    }
  }
  /*------------------------------ LSI Configuration -------------------------*/
  if (((RCC_OscInitStruct->OscillatorType) & RCC_OSCILLATORTYPE_LSI) == RCC_OSCILLATORTYPE_LSI)
 80056b0:	687b      	ldr	r3, [r7, #4]
 80056b2:	681b      	ldr	r3, [r3, #0]
 80056b4:	2208      	movs	r2, #8
 80056b6:	4013      	ands	r3, r2
 80056b8:	d047      	beq.n	800574a <HAL_RCC_OscConfig+0x2f2>
  {
    /* Check the parameters */
    assert_param(IS_RCC_LSI(RCC_OscInitStruct->LSIState));

    /* Check if LSI is used as system clock */
    if (__HAL_RCC_GET_SYSCLK_SOURCE() == RCC_SYSCLKSOURCE_STATUS_LSI)
 80056ba:	4b32      	ldr	r3, [pc, #200]	; (8005784 <HAL_RCC_OscConfig+0x32c>)
 80056bc:	689b      	ldr	r3, [r3, #8]
 80056be:	2238      	movs	r2, #56	; 0x38
 80056c0:	4013      	ands	r3, r2
 80056c2:	2b18      	cmp	r3, #24
 80056c4:	d10a      	bne.n	80056dc <HAL_RCC_OscConfig+0x284>
    {
      /* When LSI is used as system clock it will not be disabled */
      if ((((RCC->CSR) & RCC_CSR_LSIRDY) != 0U) && (RCC_OscInitStruct->LSIState == RCC_LSI_OFF))
 80056c6:	4b2f      	ldr	r3, [pc, #188]	; (8005784 <HAL_RCC_OscConfig+0x32c>)
 80056c8:	6e1b      	ldr	r3, [r3, #96]	; 0x60
 80056ca:	2202      	movs	r2, #2
 80056cc:	4013      	ands	r3, r2
 80056ce:	d03c      	beq.n	800574a <HAL_RCC_OscConfig+0x2f2>
 80056d0:	687b      	ldr	r3, [r7, #4]
 80056d2:	699b      	ldr	r3, [r3, #24]
 80056d4:	2b00      	cmp	r3, #0
 80056d6:	d138      	bne.n	800574a <HAL_RCC_OscConfig+0x2f2>
      {
        return HAL_ERROR;
 80056d8:	2301      	movs	r3, #1
 80056da:	e1ba      	b.n	8005a52 <HAL_RCC_OscConfig+0x5fa>
      }
    }
    else
    {
      /* Check the LSI State */
      if (RCC_OscInitStruct->LSIState != RCC_LSI_OFF)
 80056dc:	687b      	ldr	r3, [r7, #4]
 80056de:	699b      	ldr	r3, [r3, #24]
 80056e0:	2b00      	cmp	r3, #0
 80056e2:	d019      	beq.n	8005718 <HAL_RCC_OscConfig+0x2c0>
      {
        /* Enable the Internal Low Speed oscillator (LSI). */
        __HAL_RCC_LSI_ENABLE();
 80056e4:	4b27      	ldr	r3, [pc, #156]	; (8005784 <HAL_RCC_OscConfig+0x32c>)
 80056e6:	6e1a      	ldr	r2, [r3, #96]	; 0x60
 80056e8:	4b26      	ldr	r3, [pc, #152]	; (8005784 <HAL_RCC_OscConfig+0x32c>)
 80056ea:	2101      	movs	r1, #1
 80056ec:	430a      	orrs	r2, r1
 80056ee:	661a      	str	r2, [r3, #96]	; 0x60

        /* Get Start Tick*/
        tickstart = HAL_GetTick();
 80056f0:	f7ff faf4 	bl	8004cdc <HAL_GetTick>
 80056f4:	0003      	movs	r3, r0
 80056f6:	613b      	str	r3, [r7, #16]

        /* Wait till LSI is ready */
        while (READ_BIT(RCC->CSR, RCC_CSR_LSIRDY) == 0U)
 80056f8:	e008      	b.n	800570c <HAL_RCC_OscConfig+0x2b4>
        {
          if ((HAL_GetTick() - tickstart) > LSI_TIMEOUT_VALUE)
 80056fa:	f7ff faef 	bl	8004cdc <HAL_GetTick>
 80056fe:	0002      	movs	r2, r0
 8005700:	693b      	ldr	r3, [r7, #16]
 8005702:	1ad3      	subs	r3, r2, r3
 8005704:	2b02      	cmp	r3, #2
 8005706:	d901      	bls.n	800570c <HAL_RCC_OscConfig+0x2b4>
          {
            return HAL_TIMEOUT;
 8005708:	2303      	movs	r3, #3
 800570a:	e1a2      	b.n	8005a52 <HAL_RCC_OscConfig+0x5fa>
        while (READ_BIT(RCC->CSR, RCC_CSR_LSIRDY) == 0U)
 800570c:	4b1d      	ldr	r3, [pc, #116]	; (8005784 <HAL_RCC_OscConfig+0x32c>)
 800570e:	6e1b      	ldr	r3, [r3, #96]	; 0x60
 8005710:	2202      	movs	r2, #2
 8005712:	4013      	ands	r3, r2
 8005714:	d0f1      	beq.n	80056fa <HAL_RCC_OscConfig+0x2a2>
 8005716:	e018      	b.n	800574a <HAL_RCC_OscConfig+0x2f2>
        }
      }
      else
      {
        /* Disable the Internal Low Speed oscillator (LSI). */
        __HAL_RCC_LSI_DISABLE();
 8005718:	4b1a      	ldr	r3, [pc, #104]	; (8005784 <HAL_RCC_OscConfig+0x32c>)
 800571a:	6e1a      	ldr	r2, [r3, #96]	; 0x60
 800571c:	4b19      	ldr	r3, [pc, #100]	; (8005784 <HAL_RCC_OscConfig+0x32c>)
 800571e:	2101      	movs	r1, #1
 8005720:	438a      	bics	r2, r1
 8005722:	661a      	str	r2, [r3, #96]	; 0x60

        /* Get Start Tick*/
        tickstart = HAL_GetTick();
 8005724:	f7ff fada 	bl	8004cdc <HAL_GetTick>
 8005728:	0003      	movs	r3, r0
 800572a:	613b      	str	r3, [r7, #16]

        /* Wait till LSI is disabled */
        while (READ_BIT(RCC->CSR, RCC_CSR_LSIRDY) != 0U)
 800572c:	e008      	b.n	8005740 <HAL_RCC_OscConfig+0x2e8>
        {
          if ((HAL_GetTick() - tickstart) > LSI_TIMEOUT_VALUE)
 800572e:	f7ff fad5 	bl	8004cdc <HAL_GetTick>
 8005732:	0002      	movs	r2, r0
 8005734:	693b      	ldr	r3, [r7, #16]
 8005736:	1ad3      	subs	r3, r2, r3
 8005738:	2b02      	cmp	r3, #2
 800573a:	d901      	bls.n	8005740 <HAL_RCC_OscConfig+0x2e8>
          {
            return HAL_TIMEOUT;
 800573c:	2303      	movs	r3, #3
 800573e:	e188      	b.n	8005a52 <HAL_RCC_OscConfig+0x5fa>
        while (READ_BIT(RCC->CSR, RCC_CSR_LSIRDY) != 0U)
 8005740:	4b10      	ldr	r3, [pc, #64]	; (8005784 <HAL_RCC_OscConfig+0x32c>)
 8005742:	6e1b      	ldr	r3, [r3, #96]	; 0x60
 8005744:	2202      	movs	r2, #2
 8005746:	4013      	ands	r3, r2
 8005748:	d1f1      	bne.n	800572e <HAL_RCC_OscConfig+0x2d6>
        }
      }
    }
  }
  /*------------------------------ LSE Configuration -------------------------*/
  if (((RCC_OscInitStruct->OscillatorType) & RCC_OSCILLATORTYPE_LSE) == RCC_OSCILLATORTYPE_LSE)
 800574a:	687b      	ldr	r3, [r7, #4]
 800574c:	681b      	ldr	r3, [r3, #0]
 800574e:	2204      	movs	r2, #4
 8005750:	4013      	ands	r3, r2
 8005752:	d100      	bne.n	8005756 <HAL_RCC_OscConfig+0x2fe>
 8005754:	e0c6      	b.n	80058e4 <HAL_RCC_OscConfig+0x48c>
  {
    FlagStatus       pwrclkchanged = RESET;
 8005756:	231f      	movs	r3, #31
 8005758:	18fb      	adds	r3, r7, r3
 800575a:	2200      	movs	r2, #0
 800575c:	701a      	strb	r2, [r3, #0]

    /* Check the parameters */
    assert_param(IS_RCC_LSE(RCC_OscInitStruct->LSEState));

    /* When the LSE is used as system clock, it is not allowed disable it */
    if (__HAL_RCC_GET_SYSCLK_SOURCE() == RCC_SYSCLKSOURCE_STATUS_LSE)
 800575e:	4b09      	ldr	r3, [pc, #36]	; (8005784 <HAL_RCC_OscConfig+0x32c>)
 8005760:	689b      	ldr	r3, [r3, #8]
 8005762:	2238      	movs	r2, #56	; 0x38
 8005764:	4013      	ands	r3, r2
 8005766:	2b20      	cmp	r3, #32
 8005768:	d11e      	bne.n	80057a8 <HAL_RCC_OscConfig+0x350>
    {
      if ((((RCC->BDCR) & RCC_BDCR_LSERDY) != 0U) && (RCC_OscInitStruct->LSEState == RCC_LSE_OFF))
 800576a:	4b06      	ldr	r3, [pc, #24]	; (8005784 <HAL_RCC_OscConfig+0x32c>)
 800576c:	6ddb      	ldr	r3, [r3, #92]	; 0x5c
 800576e:	2202      	movs	r2, #2
 8005770:	4013      	ands	r3, r2
 8005772:	d100      	bne.n	8005776 <HAL_RCC_OscConfig+0x31e>
 8005774:	e0b6      	b.n	80058e4 <HAL_RCC_OscConfig+0x48c>
 8005776:	687b      	ldr	r3, [r7, #4]
 8005778:	689b      	ldr	r3, [r3, #8]
 800577a:	2b00      	cmp	r3, #0
 800577c:	d000      	beq.n	8005780 <HAL_RCC_OscConfig+0x328>
 800577e:	e0b1      	b.n	80058e4 <HAL_RCC_OscConfig+0x48c>
      {
        return HAL_ERROR;
 8005780:	2301      	movs	r3, #1
 8005782:	e166      	b.n	8005a52 <HAL_RCC_OscConfig+0x5fa>
 8005784:	40021000 	.word	0x40021000
 8005788:	fffeffff 	.word	0xfffeffff
 800578c:	fffbffff 	.word	0xfffbffff
 8005790:	ffff80ff 	.word	0xffff80ff
 8005794:	ffffc7ff 	.word	0xffffc7ff
 8005798:	00f42400 	.word	0x00f42400
 800579c:	20000004 	.word	0x20000004
 80057a0:	20000008 	.word	0x20000008
 80057a4:	fffffeff 	.word	0xfffffeff
    }
    else
    {
      /* Update LSE configuration in Backup Domain control register    */
      /* Requires to enable write access to Backup Domain of necessary */
      if (__HAL_RCC_PWR_IS_CLK_DISABLED() != 0U)
 80057a8:	4bac      	ldr	r3, [pc, #688]	; (8005a5c <HAL_RCC_OscConfig+0x604>)
 80057aa:	6bda      	ldr	r2, [r3, #60]	; 0x3c
 80057ac:	2380      	movs	r3, #128	; 0x80
 80057ae:	055b      	lsls	r3, r3, #21
 80057b0:	4013      	ands	r3, r2
 80057b2:	d101      	bne.n	80057b8 <HAL_RCC_OscConfig+0x360>
 80057b4:	2301      	movs	r3, #1
 80057b6:	e000      	b.n	80057ba <HAL_RCC_OscConfig+0x362>
 80057b8:	2300      	movs	r3, #0
 80057ba:	2b00      	cmp	r3, #0
 80057bc:	d011      	beq.n	80057e2 <HAL_RCC_OscConfig+0x38a>
      {
        __HAL_RCC_PWR_CLK_ENABLE();
 80057be:	4ba7      	ldr	r3, [pc, #668]	; (8005a5c <HAL_RCC_OscConfig+0x604>)
 80057c0:	6bda      	ldr	r2, [r3, #60]	; 0x3c
 80057c2:	4ba6      	ldr	r3, [pc, #664]	; (8005a5c <HAL_RCC_OscConfig+0x604>)
 80057c4:	2180      	movs	r1, #128	; 0x80
 80057c6:	0549      	lsls	r1, r1, #21
 80057c8:	430a      	orrs	r2, r1
 80057ca:	63da      	str	r2, [r3, #60]	; 0x3c
 80057cc:	4ba3      	ldr	r3, [pc, #652]	; (8005a5c <HAL_RCC_OscConfig+0x604>)
 80057ce:	6bda      	ldr	r2, [r3, #60]	; 0x3c
 80057d0:	2380      	movs	r3, #128	; 0x80
 80057d2:	055b      	lsls	r3, r3, #21
 80057d4:	4013      	ands	r3, r2
 80057d6:	60fb      	str	r3, [r7, #12]
 80057d8:	68fb      	ldr	r3, [r7, #12]
        pwrclkchanged = SET;
 80057da:	231f      	movs	r3, #31
 80057dc:	18fb      	adds	r3, r7, r3
 80057de:	2201      	movs	r2, #1
 80057e0:	701a      	strb	r2, [r3, #0]
      }

      if (HAL_IS_BIT_CLR(PWR->CR1, PWR_CR1_DBP))
 80057e2:	4b9f      	ldr	r3, [pc, #636]	; (8005a60 <HAL_RCC_OscConfig+0x608>)
 80057e4:	681a      	ldr	r2, [r3, #0]
 80057e6:	2380      	movs	r3, #128	; 0x80
 80057e8:	005b      	lsls	r3, r3, #1
 80057ea:	4013      	ands	r3, r2
 80057ec:	d11a      	bne.n	8005824 <HAL_RCC_OscConfig+0x3cc>
      {
        /* Enable write access to Backup domain */
        SET_BIT(PWR->CR1, PWR_CR1_DBP);
 80057ee:	4b9c      	ldr	r3, [pc, #624]	; (8005a60 <HAL_RCC_OscConfig+0x608>)
 80057f0:	681a      	ldr	r2, [r3, #0]
 80057f2:	4b9b      	ldr	r3, [pc, #620]	; (8005a60 <HAL_RCC_OscConfig+0x608>)
 80057f4:	2180      	movs	r1, #128	; 0x80
 80057f6:	0049      	lsls	r1, r1, #1
 80057f8:	430a      	orrs	r2, r1
 80057fa:	601a      	str	r2, [r3, #0]

        /* Wait for Backup domain Write protection disable */
        tickstart = HAL_GetTick();
 80057fc:	f7ff fa6e 	bl	8004cdc <HAL_GetTick>
 8005800:	0003      	movs	r3, r0
 8005802:	613b      	str	r3, [r7, #16]

        while (HAL_IS_BIT_CLR(PWR->CR1, PWR_CR1_DBP))
 8005804:	e008      	b.n	8005818 <HAL_RCC_OscConfig+0x3c0>
        {
          if ((HAL_GetTick() - tickstart) > RCC_DBP_TIMEOUT_VALUE)
 8005806:	f7ff fa69 	bl	8004cdc <HAL_GetTick>
 800580a:	0002      	movs	r2, r0
 800580c:	693b      	ldr	r3, [r7, #16]
 800580e:	1ad3      	subs	r3, r2, r3
 8005810:	2b02      	cmp	r3, #2
 8005812:	d901      	bls.n	8005818 <HAL_RCC_OscConfig+0x3c0>
          {
            return HAL_TIMEOUT;
 8005814:	2303      	movs	r3, #3
 8005816:	e11c      	b.n	8005a52 <HAL_RCC_OscConfig+0x5fa>
        while (HAL_IS_BIT_CLR(PWR->CR1, PWR_CR1_DBP))
 8005818:	4b91      	ldr	r3, [pc, #580]	; (8005a60 <HAL_RCC_OscConfig+0x608>)
 800581a:	681a      	ldr	r2, [r3, #0]
 800581c:	2380      	movs	r3, #128	; 0x80
 800581e:	005b      	lsls	r3, r3, #1
 8005820:	4013      	ands	r3, r2
 8005822:	d0f0      	beq.n	8005806 <HAL_RCC_OscConfig+0x3ae>
          }
        }
      }

      /* Set the new LSE configuration -----------------------------------------*/
      __HAL_RCC_LSE_CONFIG(RCC_OscInitStruct->LSEState);
 8005824:	687b      	ldr	r3, [r7, #4]
 8005826:	689b      	ldr	r3, [r3, #8]
 8005828:	2b01      	cmp	r3, #1
 800582a:	d106      	bne.n	800583a <HAL_RCC_OscConfig+0x3e2>
 800582c:	4b8b      	ldr	r3, [pc, #556]	; (8005a5c <HAL_RCC_OscConfig+0x604>)
 800582e:	6dda      	ldr	r2, [r3, #92]	; 0x5c
 8005830:	4b8a      	ldr	r3, [pc, #552]	; (8005a5c <HAL_RCC_OscConfig+0x604>)
 8005832:	2101      	movs	r1, #1
 8005834:	430a      	orrs	r2, r1
 8005836:	65da      	str	r2, [r3, #92]	; 0x5c
 8005838:	e01c      	b.n	8005874 <HAL_RCC_OscConfig+0x41c>
 800583a:	687b      	ldr	r3, [r7, #4]
 800583c:	689b      	ldr	r3, [r3, #8]
 800583e:	2b05      	cmp	r3, #5
 8005840:	d10c      	bne.n	800585c <HAL_RCC_OscConfig+0x404>
 8005842:	4b86      	ldr	r3, [pc, #536]	; (8005a5c <HAL_RCC_OscConfig+0x604>)
 8005844:	6dda      	ldr	r2, [r3, #92]	; 0x5c
 8005846:	4b85      	ldr	r3, [pc, #532]	; (8005a5c <HAL_RCC_OscConfig+0x604>)
 8005848:	2104      	movs	r1, #4
 800584a:	430a      	orrs	r2, r1
 800584c:	65da      	str	r2, [r3, #92]	; 0x5c
 800584e:	4b83      	ldr	r3, [pc, #524]	; (8005a5c <HAL_RCC_OscConfig+0x604>)
 8005850:	6dda      	ldr	r2, [r3, #92]	; 0x5c
 8005852:	4b82      	ldr	r3, [pc, #520]	; (8005a5c <HAL_RCC_OscConfig+0x604>)
 8005854:	2101      	movs	r1, #1
 8005856:	430a      	orrs	r2, r1
 8005858:	65da      	str	r2, [r3, #92]	; 0x5c
 800585a:	e00b      	b.n	8005874 <HAL_RCC_OscConfig+0x41c>
 800585c:	4b7f      	ldr	r3, [pc, #508]	; (8005a5c <HAL_RCC_OscConfig+0x604>)
 800585e:	6dda      	ldr	r2, [r3, #92]	; 0x5c
 8005860:	4b7e      	ldr	r3, [pc, #504]	; (8005a5c <HAL_RCC_OscConfig+0x604>)
 8005862:	2101      	movs	r1, #1
 8005864:	438a      	bics	r2, r1
 8005866:	65da      	str	r2, [r3, #92]	; 0x5c
 8005868:	4b7c      	ldr	r3, [pc, #496]	; (8005a5c <HAL_RCC_OscConfig+0x604>)
 800586a:	6dda      	ldr	r2, [r3, #92]	; 0x5c
 800586c:	4b7b      	ldr	r3, [pc, #492]	; (8005a5c <HAL_RCC_OscConfig+0x604>)
 800586e:	2104      	movs	r1, #4
 8005870:	438a      	bics	r2, r1
 8005872:	65da      	str	r2, [r3, #92]	; 0x5c

      /* Check the LSE State */
      if (RCC_OscInitStruct->LSEState != RCC_LSE_OFF)
 8005874:	687b      	ldr	r3, [r7, #4]
 8005876:	689b      	ldr	r3, [r3, #8]
 8005878:	2b00      	cmp	r3, #0
 800587a:	d014      	beq.n	80058a6 <HAL_RCC_OscConfig+0x44e>
      {
        /* Get Start Tick*/
        tickstart = HAL_GetTick();
 800587c:	f7ff fa2e 	bl	8004cdc <HAL_GetTick>
 8005880:	0003      	movs	r3, r0
 8005882:	613b      	str	r3, [r7, #16]

        /* Wait till LSE is ready */
        while (READ_BIT(RCC->BDCR, RCC_BDCR_LSERDY) == 0U)
 8005884:	e009      	b.n	800589a <HAL_RCC_OscConfig+0x442>
        {
          if ((HAL_GetTick() - tickstart) > RCC_LSE_TIMEOUT_VALUE)
 8005886:	f7ff fa29 	bl	8004cdc <HAL_GetTick>
 800588a:	0002      	movs	r2, r0
 800588c:	693b      	ldr	r3, [r7, #16]
 800588e:	1ad3      	subs	r3, r2, r3
 8005890:	4a74      	ldr	r2, [pc, #464]	; (8005a64 <HAL_RCC_OscConfig+0x60c>)
 8005892:	4293      	cmp	r3, r2
 8005894:	d901      	bls.n	800589a <HAL_RCC_OscConfig+0x442>
          {
            return HAL_TIMEOUT;
 8005896:	2303      	movs	r3, #3
 8005898:	e0db      	b.n	8005a52 <HAL_RCC_OscConfig+0x5fa>
        while (READ_BIT(RCC->BDCR, RCC_BDCR_LSERDY) == 0U)
 800589a:	4b70      	ldr	r3, [pc, #448]	; (8005a5c <HAL_RCC_OscConfig+0x604>)
 800589c:	6ddb      	ldr	r3, [r3, #92]	; 0x5c
 800589e:	2202      	movs	r2, #2
 80058a0:	4013      	ands	r3, r2
 80058a2:	d0f0      	beq.n	8005886 <HAL_RCC_OscConfig+0x42e>
 80058a4:	e013      	b.n	80058ce <HAL_RCC_OscConfig+0x476>
        }
      }
      else
      {
        /* Get Start Tick*/
        tickstart = HAL_GetTick();
 80058a6:	f7ff fa19 	bl	8004cdc <HAL_GetTick>
 80058aa:	0003      	movs	r3, r0
 80058ac:	613b      	str	r3, [r7, #16]

        /* Wait till LSE is disabled */
        while (READ_BIT(RCC->BDCR, RCC_BDCR_LSERDY) != 0U)
 80058ae:	e009      	b.n	80058c4 <HAL_RCC_OscConfig+0x46c>
        {
          if ((HAL_GetTick() - tickstart) > RCC_LSE_TIMEOUT_VALUE)
 80058b0:	f7ff fa14 	bl	8004cdc <HAL_GetTick>
 80058b4:	0002      	movs	r2, r0
 80058b6:	693b      	ldr	r3, [r7, #16]
 80058b8:	1ad3      	subs	r3, r2, r3
 80058ba:	4a6a      	ldr	r2, [pc, #424]	; (8005a64 <HAL_RCC_OscConfig+0x60c>)
 80058bc:	4293      	cmp	r3, r2
 80058be:	d901      	bls.n	80058c4 <HAL_RCC_OscConfig+0x46c>
          {
            return HAL_TIMEOUT;
 80058c0:	2303      	movs	r3, #3
 80058c2:	e0c6      	b.n	8005a52 <HAL_RCC_OscConfig+0x5fa>
        while (READ_BIT(RCC->BDCR, RCC_BDCR_LSERDY) != 0U)
 80058c4:	4b65      	ldr	r3, [pc, #404]	; (8005a5c <HAL_RCC_OscConfig+0x604>)
 80058c6:	6ddb      	ldr	r3, [r3, #92]	; 0x5c
 80058c8:	2202      	movs	r2, #2
 80058ca:	4013      	ands	r3, r2
 80058cc:	d1f0      	bne.n	80058b0 <HAL_RCC_OscConfig+0x458>
          }
        }
      }

      /* Restore clock configuration if changed */
      if (pwrclkchanged == SET)
 80058ce:	231f      	movs	r3, #31
 80058d0:	18fb      	adds	r3, r7, r3
 80058d2:	781b      	ldrb	r3, [r3, #0]
 80058d4:	2b01      	cmp	r3, #1
 80058d6:	d105      	bne.n	80058e4 <HAL_RCC_OscConfig+0x48c>
      {
        __HAL_RCC_PWR_CLK_DISABLE();
 80058d8:	4b60      	ldr	r3, [pc, #384]	; (8005a5c <HAL_RCC_OscConfig+0x604>)
 80058da:	6bda      	ldr	r2, [r3, #60]	; 0x3c
 80058dc:	4b5f      	ldr	r3, [pc, #380]	; (8005a5c <HAL_RCC_OscConfig+0x604>)
 80058de:	4962      	ldr	r1, [pc, #392]	; (8005a68 <HAL_RCC_OscConfig+0x610>)
 80058e0:	400a      	ands	r2, r1
 80058e2:	63da      	str	r2, [r3, #60]	; 0x3c
#endif /* RCC_HSI48_SUPPORT */
  /*-------------------------------- PLL Configuration -----------------------*/
  /* Check the parameters */
  assert_param(IS_RCC_PLL(RCC_OscInitStruct->PLL.PLLState));

  if (RCC_OscInitStruct->PLL.PLLState != RCC_PLL_NONE)
 80058e4:	687b      	ldr	r3, [r7, #4]
 80058e6:	69db      	ldr	r3, [r3, #28]
 80058e8:	2b00      	cmp	r3, #0
 80058ea:	d100      	bne.n	80058ee <HAL_RCC_OscConfig+0x496>
 80058ec:	e0b0      	b.n	8005a50 <HAL_RCC_OscConfig+0x5f8>
  {
    /* Check if the PLL is used as system clock or not */
    if (__HAL_RCC_GET_SYSCLK_SOURCE() != RCC_SYSCLKSOURCE_STATUS_PLLCLK)
 80058ee:	4b5b      	ldr	r3, [pc, #364]	; (8005a5c <HAL_RCC_OscConfig+0x604>)
 80058f0:	689b      	ldr	r3, [r3, #8]
 80058f2:	2238      	movs	r2, #56	; 0x38
 80058f4:	4013      	ands	r3, r2
 80058f6:	2b10      	cmp	r3, #16
 80058f8:	d100      	bne.n	80058fc <HAL_RCC_OscConfig+0x4a4>
 80058fa:	e078      	b.n	80059ee <HAL_RCC_OscConfig+0x596>
    {
      if (RCC_OscInitStruct->PLL.PLLState == RCC_PLL_ON)
 80058fc:	687b      	ldr	r3, [r7, #4]
 80058fe:	69db      	ldr	r3, [r3, #28]
 8005900:	2b02      	cmp	r3, #2
 8005902:	d153      	bne.n	80059ac <HAL_RCC_OscConfig+0x554>
        assert_param(IS_RCC_PLLQ_VALUE(RCC_OscInitStruct->PLL.PLLQ));
#endif /* RCC_PLLQ_SUPPORT */
        assert_param(IS_RCC_PLLR_VALUE(RCC_OscInitStruct->PLL.PLLR));

        /* Disable the main PLL. */
        __HAL_RCC_PLL_DISABLE();
 8005904:	4b55      	ldr	r3, [pc, #340]	; (8005a5c <HAL_RCC_OscConfig+0x604>)
 8005906:	681a      	ldr	r2, [r3, #0]
 8005908:	4b54      	ldr	r3, [pc, #336]	; (8005a5c <HAL_RCC_OscConfig+0x604>)
 800590a:	4958      	ldr	r1, [pc, #352]	; (8005a6c <HAL_RCC_OscConfig+0x614>)
 800590c:	400a      	ands	r2, r1
 800590e:	601a      	str	r2, [r3, #0]

        /* Get Start Tick*/
        tickstart = HAL_GetTick();
 8005910:	f7ff f9e4 	bl	8004cdc <HAL_GetTick>
 8005914:	0003      	movs	r3, r0
 8005916:	613b      	str	r3, [r7, #16]

        /* Wait till PLL is ready */
        while (READ_BIT(RCC->CR, RCC_CR_PLLRDY) != 0U)
 8005918:	e008      	b.n	800592c <HAL_RCC_OscConfig+0x4d4>
        {
          if ((HAL_GetTick() - tickstart) > PLL_TIMEOUT_VALUE)
 800591a:	f7ff f9df 	bl	8004cdc <HAL_GetTick>
 800591e:	0002      	movs	r2, r0
 8005920:	693b      	ldr	r3, [r7, #16]
 8005922:	1ad3      	subs	r3, r2, r3
 8005924:	2b02      	cmp	r3, #2
 8005926:	d901      	bls.n	800592c <HAL_RCC_OscConfig+0x4d4>
          {
            return HAL_TIMEOUT;
 8005928:	2303      	movs	r3, #3
 800592a:	e092      	b.n	8005a52 <HAL_RCC_OscConfig+0x5fa>
        while (READ_BIT(RCC->CR, RCC_CR_PLLRDY) != 0U)
 800592c:	4b4b      	ldr	r3, [pc, #300]	; (8005a5c <HAL_RCC_OscConfig+0x604>)
 800592e:	681a      	ldr	r2, [r3, #0]
 8005930:	2380      	movs	r3, #128	; 0x80
 8005932:	049b      	lsls	r3, r3, #18
 8005934:	4013      	ands	r3, r2
 8005936:	d1f0      	bne.n	800591a <HAL_RCC_OscConfig+0x4c2>
                             RCC_OscInitStruct->PLL.PLLN,
                             RCC_OscInitStruct->PLL.PLLP,
                             RCC_OscInitStruct->PLL.PLLQ,
                             RCC_OscInitStruct->PLL.PLLR);
#else /* !RCC_PLLQ_SUPPORT */
        __HAL_RCC_PLL_CONFIG(RCC_OscInitStruct->PLL.PLLSource,
 8005938:	4b48      	ldr	r3, [pc, #288]	; (8005a5c <HAL_RCC_OscConfig+0x604>)
 800593a:	68db      	ldr	r3, [r3, #12]
 800593c:	4a4c      	ldr	r2, [pc, #304]	; (8005a70 <HAL_RCC_OscConfig+0x618>)
 800593e:	4013      	ands	r3, r2
 8005940:	0019      	movs	r1, r3
 8005942:	687b      	ldr	r3, [r7, #4]
 8005944:	6a1a      	ldr	r2, [r3, #32]
 8005946:	687b      	ldr	r3, [r7, #4]
 8005948:	6a5b      	ldr	r3, [r3, #36]	; 0x24
 800594a:	431a      	orrs	r2, r3
 800594c:	687b      	ldr	r3, [r7, #4]
 800594e:	6a9b      	ldr	r3, [r3, #40]	; 0x28
 8005950:	021b      	lsls	r3, r3, #8
 8005952:	431a      	orrs	r2, r3
 8005954:	687b      	ldr	r3, [r7, #4]
 8005956:	6adb      	ldr	r3, [r3, #44]	; 0x2c
 8005958:	431a      	orrs	r2, r3
 800595a:	687b      	ldr	r3, [r7, #4]
 800595c:	6b1b      	ldr	r3, [r3, #48]	; 0x30
 800595e:	431a      	orrs	r2, r3
 8005960:	4b3e      	ldr	r3, [pc, #248]	; (8005a5c <HAL_RCC_OscConfig+0x604>)
 8005962:	430a      	orrs	r2, r1
 8005964:	60da      	str	r2, [r3, #12]
                             RCC_OscInitStruct->PLL.PLLP,
                             RCC_OscInitStruct->PLL.PLLR);
#endif /* RCC_PLLQ_SUPPORT */

        /* Enable the main PLL. */
        __HAL_RCC_PLL_ENABLE();
 8005966:	4b3d      	ldr	r3, [pc, #244]	; (8005a5c <HAL_RCC_OscConfig+0x604>)
 8005968:	681a      	ldr	r2, [r3, #0]
 800596a:	4b3c      	ldr	r3, [pc, #240]	; (8005a5c <HAL_RCC_OscConfig+0x604>)
 800596c:	2180      	movs	r1, #128	; 0x80
 800596e:	0449      	lsls	r1, r1, #17
 8005970:	430a      	orrs	r2, r1
 8005972:	601a      	str	r2, [r3, #0]

        /* Enable PLLR Clock output. */
        __HAL_RCC_PLLCLKOUT_ENABLE(RCC_PLLRCLK);
 8005974:	4b39      	ldr	r3, [pc, #228]	; (8005a5c <HAL_RCC_OscConfig+0x604>)
 8005976:	68da      	ldr	r2, [r3, #12]
 8005978:	4b38      	ldr	r3, [pc, #224]	; (8005a5c <HAL_RCC_OscConfig+0x604>)
 800597a:	2180      	movs	r1, #128	; 0x80
 800597c:	0549      	lsls	r1, r1, #21
 800597e:	430a      	orrs	r2, r1
 8005980:	60da      	str	r2, [r3, #12]

        /* Get Start Tick*/
        tickstart = HAL_GetTick();
 8005982:	f7ff f9ab 	bl	8004cdc <HAL_GetTick>
 8005986:	0003      	movs	r3, r0
 8005988:	613b      	str	r3, [r7, #16]

        /* Wait till PLL is ready */
        while (READ_BIT(RCC->CR, RCC_CR_PLLRDY) == 0U)
 800598a:	e008      	b.n	800599e <HAL_RCC_OscConfig+0x546>
        {
          if ((HAL_GetTick() - tickstart) > PLL_TIMEOUT_VALUE)
 800598c:	f7ff f9a6 	bl	8004cdc <HAL_GetTick>
 8005990:	0002      	movs	r2, r0
 8005992:	693b      	ldr	r3, [r7, #16]
 8005994:	1ad3      	subs	r3, r2, r3
 8005996:	2b02      	cmp	r3, #2
 8005998:	d901      	bls.n	800599e <HAL_RCC_OscConfig+0x546>
          {
            return HAL_TIMEOUT;
 800599a:	2303      	movs	r3, #3
 800599c:	e059      	b.n	8005a52 <HAL_RCC_OscConfig+0x5fa>
        while (READ_BIT(RCC->CR, RCC_CR_PLLRDY) == 0U)
 800599e:	4b2f      	ldr	r3, [pc, #188]	; (8005a5c <HAL_RCC_OscConfig+0x604>)
 80059a0:	681a      	ldr	r2, [r3, #0]
 80059a2:	2380      	movs	r3, #128	; 0x80
 80059a4:	049b      	lsls	r3, r3, #18
 80059a6:	4013      	ands	r3, r2
 80059a8:	d0f0      	beq.n	800598c <HAL_RCC_OscConfig+0x534>
 80059aa:	e051      	b.n	8005a50 <HAL_RCC_OscConfig+0x5f8>
        }
      }
      else
      {
        /* Disable the main PLL. */
        __HAL_RCC_PLL_DISABLE();
 80059ac:	4b2b      	ldr	r3, [pc, #172]	; (8005a5c <HAL_RCC_OscConfig+0x604>)
 80059ae:	681a      	ldr	r2, [r3, #0]
 80059b0:	4b2a      	ldr	r3, [pc, #168]	; (8005a5c <HAL_RCC_OscConfig+0x604>)
 80059b2:	492e      	ldr	r1, [pc, #184]	; (8005a6c <HAL_RCC_OscConfig+0x614>)
 80059b4:	400a      	ands	r2, r1
 80059b6:	601a      	str	r2, [r3, #0]

        /* Get Start Tick*/
        tickstart = HAL_GetTick();
 80059b8:	f7ff f990 	bl	8004cdc <HAL_GetTick>
 80059bc:	0003      	movs	r3, r0
 80059be:	613b      	str	r3, [r7, #16]

        /* Wait till PLL is disabled */
        while (READ_BIT(RCC->CR, RCC_CR_PLLRDY) != 0U)
 80059c0:	e008      	b.n	80059d4 <HAL_RCC_OscConfig+0x57c>
        {
          if ((HAL_GetTick() - tickstart) > PLL_TIMEOUT_VALUE)
 80059c2:	f7ff f98b 	bl	8004cdc <HAL_GetTick>
 80059c6:	0002      	movs	r2, r0
 80059c8:	693b      	ldr	r3, [r7, #16]
 80059ca:	1ad3      	subs	r3, r2, r3
 80059cc:	2b02      	cmp	r3, #2
 80059ce:	d901      	bls.n	80059d4 <HAL_RCC_OscConfig+0x57c>
          {
            return HAL_TIMEOUT;
 80059d0:	2303      	movs	r3, #3
 80059d2:	e03e      	b.n	8005a52 <HAL_RCC_OscConfig+0x5fa>
        while (READ_BIT(RCC->CR, RCC_CR_PLLRDY) != 0U)
 80059d4:	4b21      	ldr	r3, [pc, #132]	; (8005a5c <HAL_RCC_OscConfig+0x604>)
 80059d6:	681a      	ldr	r2, [r3, #0]
 80059d8:	2380      	movs	r3, #128	; 0x80
 80059da:	049b      	lsls	r3, r3, #18
 80059dc:	4013      	ands	r3, r2
 80059de:	d1f0      	bne.n	80059c2 <HAL_RCC_OscConfig+0x56a>
        }
        /* Unselect main PLL clock source and disable main PLL outputs to save power */
#if defined(RCC_PLLQ_SUPPORT)
        RCC->PLLCFGR &= ~(RCC_PLLCFGR_PLLSRC | RCC_PLLCFGR_PLLPEN | RCC_PLLCFGR_PLLQEN | RCC_PLLCFGR_PLLREN);
#else
        RCC->PLLCFGR &= ~(RCC_PLLCFGR_PLLSRC | RCC_PLLCFGR_PLLPEN | RCC_PLLCFGR_PLLREN);
 80059e0:	4b1e      	ldr	r3, [pc, #120]	; (8005a5c <HAL_RCC_OscConfig+0x604>)
 80059e2:	68da      	ldr	r2, [r3, #12]
 80059e4:	4b1d      	ldr	r3, [pc, #116]	; (8005a5c <HAL_RCC_OscConfig+0x604>)
 80059e6:	4923      	ldr	r1, [pc, #140]	; (8005a74 <HAL_RCC_OscConfig+0x61c>)
 80059e8:	400a      	ands	r2, r1
 80059ea:	60da      	str	r2, [r3, #12]
 80059ec:	e030      	b.n	8005a50 <HAL_RCC_OscConfig+0x5f8>
      }
    }
    else
    {
      /* Check if there is a request to disable the PLL used as System clock source */
      if ((RCC_OscInitStruct->PLL.PLLState) == RCC_PLL_OFF)
 80059ee:	687b      	ldr	r3, [r7, #4]
 80059f0:	69db      	ldr	r3, [r3, #28]
 80059f2:	2b01      	cmp	r3, #1
 80059f4:	d101      	bne.n	80059fa <HAL_RCC_OscConfig+0x5a2>
      {
        return HAL_ERROR;
 80059f6:	2301      	movs	r3, #1
 80059f8:	e02b      	b.n	8005a52 <HAL_RCC_OscConfig+0x5fa>
      }
      else
      {
        /* Do not return HAL_ERROR if request repeats the current configuration */
        temp_pllckcfg = RCC->PLLCFGR;
 80059fa:	4b18      	ldr	r3, [pc, #96]	; (8005a5c <HAL_RCC_OscConfig+0x604>)
 80059fc:	68db      	ldr	r3, [r3, #12]
 80059fe:	617b      	str	r3, [r7, #20]
        if ((READ_BIT(temp_pllckcfg, RCC_PLLCFGR_PLLSRC) != RCC_OscInitStruct->PLL.PLLSource) ||
 8005a00:	697b      	ldr	r3, [r7, #20]
 8005a02:	2203      	movs	r2, #3
 8005a04:	401a      	ands	r2, r3
 8005a06:	687b      	ldr	r3, [r7, #4]
 8005a08:	6a1b      	ldr	r3, [r3, #32]
 8005a0a:	429a      	cmp	r2, r3
 8005a0c:	d11e      	bne.n	8005a4c <HAL_RCC_OscConfig+0x5f4>
            (READ_BIT(temp_pllckcfg, RCC_PLLCFGR_PLLM) != RCC_OscInitStruct->PLL.PLLM) ||
 8005a0e:	697b      	ldr	r3, [r7, #20]
 8005a10:	2270      	movs	r2, #112	; 0x70
 8005a12:	401a      	ands	r2, r3
 8005a14:	687b      	ldr	r3, [r7, #4]
 8005a16:	6a5b      	ldr	r3, [r3, #36]	; 0x24
        if ((READ_BIT(temp_pllckcfg, RCC_PLLCFGR_PLLSRC) != RCC_OscInitStruct->PLL.PLLSource) ||
 8005a18:	429a      	cmp	r2, r3
 8005a1a:	d117      	bne.n	8005a4c <HAL_RCC_OscConfig+0x5f4>
            (READ_BIT(temp_pllckcfg, RCC_PLLCFGR_PLLN) != (RCC_OscInitStruct->PLL.PLLN << RCC_PLLCFGR_PLLN_Pos)) ||
 8005a1c:	697a      	ldr	r2, [r7, #20]
 8005a1e:	23fe      	movs	r3, #254	; 0xfe
 8005a20:	01db      	lsls	r3, r3, #7
 8005a22:	401a      	ands	r2, r3
 8005a24:	687b      	ldr	r3, [r7, #4]
 8005a26:	6a9b      	ldr	r3, [r3, #40]	; 0x28
 8005a28:	021b      	lsls	r3, r3, #8
            (READ_BIT(temp_pllckcfg, RCC_PLLCFGR_PLLM) != RCC_OscInitStruct->PLL.PLLM) ||
 8005a2a:	429a      	cmp	r2, r3
 8005a2c:	d10e      	bne.n	8005a4c <HAL_RCC_OscConfig+0x5f4>
            (READ_BIT(temp_pllckcfg, RCC_PLLCFGR_PLLP) != RCC_OscInitStruct->PLL.PLLP) ||
 8005a2e:	697a      	ldr	r2, [r7, #20]
 8005a30:	23f8      	movs	r3, #248	; 0xf8
 8005a32:	039b      	lsls	r3, r3, #14
 8005a34:	401a      	ands	r2, r3
 8005a36:	687b      	ldr	r3, [r7, #4]
 8005a38:	6adb      	ldr	r3, [r3, #44]	; 0x2c
            (READ_BIT(temp_pllckcfg, RCC_PLLCFGR_PLLN) != (RCC_OscInitStruct->PLL.PLLN << RCC_PLLCFGR_PLLN_Pos)) ||
 8005a3a:	429a      	cmp	r2, r3
 8005a3c:	d106      	bne.n	8005a4c <HAL_RCC_OscConfig+0x5f4>
#if defined (RCC_PLLQ_SUPPORT)
            (READ_BIT(temp_pllckcfg, RCC_PLLCFGR_PLLQ) != RCC_OscInitStruct->PLL.PLLQ) ||
#endif /* RCC_PLLQ_SUPPORT */
            (READ_BIT(temp_pllckcfg, RCC_PLLCFGR_PLLR) != RCC_OscInitStruct->PLL.PLLR))
 8005a3e:	697b      	ldr	r3, [r7, #20]
 8005a40:	0f5b      	lsrs	r3, r3, #29
 8005a42:	075a      	lsls	r2, r3, #29
 8005a44:	687b      	ldr	r3, [r7, #4]
 8005a46:	6b1b      	ldr	r3, [r3, #48]	; 0x30
            (READ_BIT(temp_pllckcfg, RCC_PLLCFGR_PLLP) != RCC_OscInitStruct->PLL.PLLP) ||
 8005a48:	429a      	cmp	r2, r3
 8005a4a:	d001      	beq.n	8005a50 <HAL_RCC_OscConfig+0x5f8>
        {
          return HAL_ERROR;
 8005a4c:	2301      	movs	r3, #1
 8005a4e:	e000      	b.n	8005a52 <HAL_RCC_OscConfig+0x5fa>
        }
      }
    }
  }
  return HAL_OK;
 8005a50:	2300      	movs	r3, #0
}
 8005a52:	0018      	movs	r0, r3
 8005a54:	46bd      	mov	sp, r7
 8005a56:	b008      	add	sp, #32
 8005a58:	bd80      	pop	{r7, pc}
 8005a5a:	46c0      	nop			; (mov r8, r8)
 8005a5c:	40021000 	.word	0x40021000
 8005a60:	40007000 	.word	0x40007000
 8005a64:	00001388 	.word	0x00001388
 8005a68:	efffffff 	.word	0xefffffff
 8005a6c:	feffffff 	.word	0xfeffffff
 8005a70:	1fc1808c 	.word	0x1fc1808c
 8005a74:	effefffc 	.word	0xeffefffc

08005a78 <HAL_RCC_ClockConfig>:
  *         HPRE[3:0] bits to ensure that HCLK not exceed the maximum allowed frequency
  *         (for more details refer to section above "Initialization/de-initialization functions")
  * @retval None
  */
HAL_StatusTypeDef HAL_RCC_ClockConfig(const RCC_ClkInitTypeDef  *RCC_ClkInitStruct, uint32_t FLatency)
{
 8005a78:	b580      	push	{r7, lr}
 8005a7a:	b084      	sub	sp, #16
 8005a7c:	af00      	add	r7, sp, #0
 8005a7e:	6078      	str	r0, [r7, #4]
 8005a80:	6039      	str	r1, [r7, #0]
  uint32_t tickstart;

  /* Check Null pointer */
  if (RCC_ClkInitStruct == NULL)
 8005a82:	687b      	ldr	r3, [r7, #4]
 8005a84:	2b00      	cmp	r3, #0
 8005a86:	d101      	bne.n	8005a8c <HAL_RCC_ClockConfig+0x14>
  {
    return HAL_ERROR;
 8005a88:	2301      	movs	r3, #1
 8005a8a:	e0e9      	b.n	8005c60 <HAL_RCC_ClockConfig+0x1e8>
  /* To correctly read data from FLASH memory, the number of wait states (LATENCY)
    must be correctly programmed according to the frequency of the FLASH clock
    (HCLK) and the supply voltage of the device. */

  /* Increasing the number of wait states because of higher CPU frequency */
  if (FLatency > __HAL_FLASH_GET_LATENCY())
 8005a8c:	4b76      	ldr	r3, [pc, #472]	; (8005c68 <HAL_RCC_ClockConfig+0x1f0>)
 8005a8e:	681b      	ldr	r3, [r3, #0]
 8005a90:	2207      	movs	r2, #7
 8005a92:	4013      	ands	r3, r2
 8005a94:	683a      	ldr	r2, [r7, #0]
 8005a96:	429a      	cmp	r2, r3
 8005a98:	d91e      	bls.n	8005ad8 <HAL_RCC_ClockConfig+0x60>
  {
    /* Program the new number of wait states to the LATENCY bits in the FLASH_ACR register */
    __HAL_FLASH_SET_LATENCY(FLatency);
 8005a9a:	4b73      	ldr	r3, [pc, #460]	; (8005c68 <HAL_RCC_ClockConfig+0x1f0>)
 8005a9c:	681b      	ldr	r3, [r3, #0]
 8005a9e:	2207      	movs	r2, #7
 8005aa0:	4393      	bics	r3, r2
 8005aa2:	0019      	movs	r1, r3
 8005aa4:	4b70      	ldr	r3, [pc, #448]	; (8005c68 <HAL_RCC_ClockConfig+0x1f0>)
 8005aa6:	683a      	ldr	r2, [r7, #0]
 8005aa8:	430a      	orrs	r2, r1
 8005aaa:	601a      	str	r2, [r3, #0]

    /* Check that the new number of wait states is taken into account to access the Flash
    memory by polling the FLASH_ACR register */
    tickstart = HAL_GetTick();
 8005aac:	f7ff f916 	bl	8004cdc <HAL_GetTick>
 8005ab0:	0003      	movs	r3, r0
 8005ab2:	60fb      	str	r3, [r7, #12]

    while ((FLASH->ACR & FLASH_ACR_LATENCY) != FLatency)
 8005ab4:	e009      	b.n	8005aca <HAL_RCC_ClockConfig+0x52>
    {
      if ((HAL_GetTick() - tickstart) > CLOCKSWITCH_TIMEOUT_VALUE)
 8005ab6:	f7ff f911 	bl	8004cdc <HAL_GetTick>
 8005aba:	0002      	movs	r2, r0
 8005abc:	68fb      	ldr	r3, [r7, #12]
 8005abe:	1ad3      	subs	r3, r2, r3
 8005ac0:	4a6a      	ldr	r2, [pc, #424]	; (8005c6c <HAL_RCC_ClockConfig+0x1f4>)
 8005ac2:	4293      	cmp	r3, r2
 8005ac4:	d901      	bls.n	8005aca <HAL_RCC_ClockConfig+0x52>
      {
        return HAL_TIMEOUT;
 8005ac6:	2303      	movs	r3, #3
 8005ac8:	e0ca      	b.n	8005c60 <HAL_RCC_ClockConfig+0x1e8>
    while ((FLASH->ACR & FLASH_ACR_LATENCY) != FLatency)
 8005aca:	4b67      	ldr	r3, [pc, #412]	; (8005c68 <HAL_RCC_ClockConfig+0x1f0>)
 8005acc:	681b      	ldr	r3, [r3, #0]
 8005ace:	2207      	movs	r2, #7
 8005ad0:	4013      	ands	r3, r2
 8005ad2:	683a      	ldr	r2, [r7, #0]
 8005ad4:	429a      	cmp	r2, r3
 8005ad6:	d1ee      	bne.n	8005ab6 <HAL_RCC_ClockConfig+0x3e>
      }
    }
  }

  /*-------------------------- HCLK Configuration --------------------------*/
  if (((RCC_ClkInitStruct->ClockType) & RCC_CLOCKTYPE_HCLK) == RCC_CLOCKTYPE_HCLK)
 8005ad8:	687b      	ldr	r3, [r7, #4]
 8005ada:	681b      	ldr	r3, [r3, #0]
 8005adc:	2202      	movs	r2, #2
 8005ade:	4013      	ands	r3, r2
 8005ae0:	d015      	beq.n	8005b0e <HAL_RCC_ClockConfig+0x96>
  {
    /* Set the highest APB divider in order to ensure that we do not go through
       a non-spec phase whatever we decrease or increase HCLK. */
    if (((RCC_ClkInitStruct->ClockType) & RCC_CLOCKTYPE_PCLK1) == RCC_CLOCKTYPE_PCLK1)
 8005ae2:	687b      	ldr	r3, [r7, #4]
 8005ae4:	681b      	ldr	r3, [r3, #0]
 8005ae6:	2204      	movs	r2, #4
 8005ae8:	4013      	ands	r3, r2
 8005aea:	d006      	beq.n	8005afa <HAL_RCC_ClockConfig+0x82>
    {
      MODIFY_REG(RCC->CFGR, RCC_CFGR_PPRE, RCC_HCLK_DIV16);
 8005aec:	4b60      	ldr	r3, [pc, #384]	; (8005c70 <HAL_RCC_ClockConfig+0x1f8>)
 8005aee:	689a      	ldr	r2, [r3, #8]
 8005af0:	4b5f      	ldr	r3, [pc, #380]	; (8005c70 <HAL_RCC_ClockConfig+0x1f8>)
 8005af2:	21e0      	movs	r1, #224	; 0xe0
 8005af4:	01c9      	lsls	r1, r1, #7
 8005af6:	430a      	orrs	r2, r1
 8005af8:	609a      	str	r2, [r3, #8]
    }

    /* Set the new HCLK clock divider */
    assert_param(IS_RCC_HCLK(RCC_ClkInitStruct->AHBCLKDivider));
    MODIFY_REG(RCC->CFGR, RCC_CFGR_HPRE, RCC_ClkInitStruct->AHBCLKDivider);
 8005afa:	4b5d      	ldr	r3, [pc, #372]	; (8005c70 <HAL_RCC_ClockConfig+0x1f8>)
 8005afc:	689b      	ldr	r3, [r3, #8]
 8005afe:	4a5d      	ldr	r2, [pc, #372]	; (8005c74 <HAL_RCC_ClockConfig+0x1fc>)
 8005b00:	4013      	ands	r3, r2
 8005b02:	0019      	movs	r1, r3
 8005b04:	687b      	ldr	r3, [r7, #4]
 8005b06:	689a      	ldr	r2, [r3, #8]
 8005b08:	4b59      	ldr	r3, [pc, #356]	; (8005c70 <HAL_RCC_ClockConfig+0x1f8>)
 8005b0a:	430a      	orrs	r2, r1
 8005b0c:	609a      	str	r2, [r3, #8]
  }

  /*------------------------- SYSCLK Configuration ---------------------------*/
  if (((RCC_ClkInitStruct->ClockType) & RCC_CLOCKTYPE_SYSCLK) == RCC_CLOCKTYPE_SYSCLK)
 8005b0e:	687b      	ldr	r3, [r7, #4]
 8005b10:	681b      	ldr	r3, [r3, #0]
 8005b12:	2201      	movs	r2, #1
 8005b14:	4013      	ands	r3, r2
 8005b16:	d057      	beq.n	8005bc8 <HAL_RCC_ClockConfig+0x150>
  {
    assert_param(IS_RCC_SYSCLKSOURCE(RCC_ClkInitStruct->SYSCLKSource));

    /* HSE is selected as System Clock Source */
    if (RCC_ClkInitStruct->SYSCLKSource == RCC_SYSCLKSOURCE_HSE)
 8005b18:	687b      	ldr	r3, [r7, #4]
 8005b1a:	685b      	ldr	r3, [r3, #4]
 8005b1c:	2b01      	cmp	r3, #1
 8005b1e:	d107      	bne.n	8005b30 <HAL_RCC_ClockConfig+0xb8>
    {
      /* Check the HSE ready flag */
      if (READ_BIT(RCC->CR, RCC_CR_HSERDY) == 0U)
 8005b20:	4b53      	ldr	r3, [pc, #332]	; (8005c70 <HAL_RCC_ClockConfig+0x1f8>)
 8005b22:	681a      	ldr	r2, [r3, #0]
 8005b24:	2380      	movs	r3, #128	; 0x80
 8005b26:	029b      	lsls	r3, r3, #10
 8005b28:	4013      	ands	r3, r2
 8005b2a:	d12b      	bne.n	8005b84 <HAL_RCC_ClockConfig+0x10c>
      {
        return HAL_ERROR;
 8005b2c:	2301      	movs	r3, #1
 8005b2e:	e097      	b.n	8005c60 <HAL_RCC_ClockConfig+0x1e8>
      }
    }
    /* PLL is selected as System Clock Source */
    else if (RCC_ClkInitStruct->SYSCLKSource == RCC_SYSCLKSOURCE_PLLCLK)
 8005b30:	687b      	ldr	r3, [r7, #4]
 8005b32:	685b      	ldr	r3, [r3, #4]
 8005b34:	2b02      	cmp	r3, #2
 8005b36:	d107      	bne.n	8005b48 <HAL_RCC_ClockConfig+0xd0>
    {
      /* Check the PLL ready flag */
      if (READ_BIT(RCC->CR, RCC_CR_PLLRDY) == 0U)
 8005b38:	4b4d      	ldr	r3, [pc, #308]	; (8005c70 <HAL_RCC_ClockConfig+0x1f8>)
 8005b3a:	681a      	ldr	r2, [r3, #0]
 8005b3c:	2380      	movs	r3, #128	; 0x80
 8005b3e:	049b      	lsls	r3, r3, #18
 8005b40:	4013      	ands	r3, r2
 8005b42:	d11f      	bne.n	8005b84 <HAL_RCC_ClockConfig+0x10c>
      {
        return HAL_ERROR;
 8005b44:	2301      	movs	r3, #1
 8005b46:	e08b      	b.n	8005c60 <HAL_RCC_ClockConfig+0x1e8>
      }
    }
    /* HSI is selected as System Clock Source */
    else if (RCC_ClkInitStruct->SYSCLKSource == RCC_SYSCLKSOURCE_HSI)
 8005b48:	687b      	ldr	r3, [r7, #4]
 8005b4a:	685b      	ldr	r3, [r3, #4]
 8005b4c:	2b00      	cmp	r3, #0
 8005b4e:	d107      	bne.n	8005b60 <HAL_RCC_ClockConfig+0xe8>
    {
      /* Check the HSI ready flag */
      if (READ_BIT(RCC->CR, RCC_CR_HSIRDY) == 0U)
 8005b50:	4b47      	ldr	r3, [pc, #284]	; (8005c70 <HAL_RCC_ClockConfig+0x1f8>)
 8005b52:	681a      	ldr	r2, [r3, #0]
 8005b54:	2380      	movs	r3, #128	; 0x80
 8005b56:	00db      	lsls	r3, r3, #3
 8005b58:	4013      	ands	r3, r2
 8005b5a:	d113      	bne.n	8005b84 <HAL_RCC_ClockConfig+0x10c>
      {
        return HAL_ERROR;
 8005b5c:	2301      	movs	r3, #1
 8005b5e:	e07f      	b.n	8005c60 <HAL_RCC_ClockConfig+0x1e8>
      }
    }
    /* LSI is selected as System Clock Source */
    else if (RCC_ClkInitStruct->SYSCLKSource == RCC_SYSCLKSOURCE_LSI)
 8005b60:	687b      	ldr	r3, [r7, #4]
 8005b62:	685b      	ldr	r3, [r3, #4]
 8005b64:	2b03      	cmp	r3, #3
 8005b66:	d106      	bne.n	8005b76 <HAL_RCC_ClockConfig+0xfe>
    {
      /* Check the LSI ready flag */
      if (READ_BIT(RCC->CSR, RCC_CSR_LSIRDY) == 0U)
 8005b68:	4b41      	ldr	r3, [pc, #260]	; (8005c70 <HAL_RCC_ClockConfig+0x1f8>)
 8005b6a:	6e1b      	ldr	r3, [r3, #96]	; 0x60
 8005b6c:	2202      	movs	r2, #2
 8005b6e:	4013      	ands	r3, r2
 8005b70:	d108      	bne.n	8005b84 <HAL_RCC_ClockConfig+0x10c>
      {
        return HAL_ERROR;
 8005b72:	2301      	movs	r3, #1
 8005b74:	e074      	b.n	8005c60 <HAL_RCC_ClockConfig+0x1e8>
    }
    /* LSE is selected as System Clock Source */
    else
    {
      /* Check the LSE ready flag */
      if (READ_BIT(RCC->BDCR, RCC_BDCR_LSERDY) == 0U)
 8005b76:	4b3e      	ldr	r3, [pc, #248]	; (8005c70 <HAL_RCC_ClockConfig+0x1f8>)
 8005b78:	6ddb      	ldr	r3, [r3, #92]	; 0x5c
 8005b7a:	2202      	movs	r2, #2
 8005b7c:	4013      	ands	r3, r2
 8005b7e:	d101      	bne.n	8005b84 <HAL_RCC_ClockConfig+0x10c>
      {
        return HAL_ERROR;
 8005b80:	2301      	movs	r3, #1
 8005b82:	e06d      	b.n	8005c60 <HAL_RCC_ClockConfig+0x1e8>
      }
    }
    MODIFY_REG(RCC->CFGR, RCC_CFGR_SW, RCC_ClkInitStruct->SYSCLKSource);
 8005b84:	4b3a      	ldr	r3, [pc, #232]	; (8005c70 <HAL_RCC_ClockConfig+0x1f8>)
 8005b86:	689b      	ldr	r3, [r3, #8]
 8005b88:	2207      	movs	r2, #7
 8005b8a:	4393      	bics	r3, r2
 8005b8c:	0019      	movs	r1, r3
 8005b8e:	687b      	ldr	r3, [r7, #4]
 8005b90:	685a      	ldr	r2, [r3, #4]
 8005b92:	4b37      	ldr	r3, [pc, #220]	; (8005c70 <HAL_RCC_ClockConfig+0x1f8>)
 8005b94:	430a      	orrs	r2, r1
 8005b96:	609a      	str	r2, [r3, #8]

    /* Get Start Tick*/
    tickstart = HAL_GetTick();
 8005b98:	f7ff f8a0 	bl	8004cdc <HAL_GetTick>
 8005b9c:	0003      	movs	r3, r0
 8005b9e:	60fb      	str	r3, [r7, #12]

    while (__HAL_RCC_GET_SYSCLK_SOURCE() != (RCC_ClkInitStruct->SYSCLKSource << RCC_CFGR_SWS_Pos))
 8005ba0:	e009      	b.n	8005bb6 <HAL_RCC_ClockConfig+0x13e>
    {
      if ((HAL_GetTick() - tickstart) > CLOCKSWITCH_TIMEOUT_VALUE)
 8005ba2:	f7ff f89b 	bl	8004cdc <HAL_GetTick>
 8005ba6:	0002      	movs	r2, r0
 8005ba8:	68fb      	ldr	r3, [r7, #12]
 8005baa:	1ad3      	subs	r3, r2, r3
 8005bac:	4a2f      	ldr	r2, [pc, #188]	; (8005c6c <HAL_RCC_ClockConfig+0x1f4>)
 8005bae:	4293      	cmp	r3, r2
 8005bb0:	d901      	bls.n	8005bb6 <HAL_RCC_ClockConfig+0x13e>
      {
        return HAL_TIMEOUT;
 8005bb2:	2303      	movs	r3, #3
 8005bb4:	e054      	b.n	8005c60 <HAL_RCC_ClockConfig+0x1e8>
    while (__HAL_RCC_GET_SYSCLK_SOURCE() != (RCC_ClkInitStruct->SYSCLKSource << RCC_CFGR_SWS_Pos))
 8005bb6:	4b2e      	ldr	r3, [pc, #184]	; (8005c70 <HAL_RCC_ClockConfig+0x1f8>)
 8005bb8:	689b      	ldr	r3, [r3, #8]
 8005bba:	2238      	movs	r2, #56	; 0x38
 8005bbc:	401a      	ands	r2, r3
 8005bbe:	687b      	ldr	r3, [r7, #4]
 8005bc0:	685b      	ldr	r3, [r3, #4]
 8005bc2:	00db      	lsls	r3, r3, #3
 8005bc4:	429a      	cmp	r2, r3
 8005bc6:	d1ec      	bne.n	8005ba2 <HAL_RCC_ClockConfig+0x12a>
      }
    }
  }

  /* Decreasing the number of wait states because of lower CPU frequency */
  if (FLatency < __HAL_FLASH_GET_LATENCY())
 8005bc8:	4b27      	ldr	r3, [pc, #156]	; (8005c68 <HAL_RCC_ClockConfig+0x1f0>)
 8005bca:	681b      	ldr	r3, [r3, #0]
 8005bcc:	2207      	movs	r2, #7
 8005bce:	4013      	ands	r3, r2
 8005bd0:	683a      	ldr	r2, [r7, #0]
 8005bd2:	429a      	cmp	r2, r3
 8005bd4:	d21e      	bcs.n	8005c14 <HAL_RCC_ClockConfig+0x19c>
  {
    /* Program the new number of wait states to the LATENCY bits in the FLASH_ACR register */
    __HAL_FLASH_SET_LATENCY(FLatency);
 8005bd6:	4b24      	ldr	r3, [pc, #144]	; (8005c68 <HAL_RCC_ClockConfig+0x1f0>)
 8005bd8:	681b      	ldr	r3, [r3, #0]
 8005bda:	2207      	movs	r2, #7
 8005bdc:	4393      	bics	r3, r2
 8005bde:	0019      	movs	r1, r3
 8005be0:	4b21      	ldr	r3, [pc, #132]	; (8005c68 <HAL_RCC_ClockConfig+0x1f0>)
 8005be2:	683a      	ldr	r2, [r7, #0]
 8005be4:	430a      	orrs	r2, r1
 8005be6:	601a      	str	r2, [r3, #0]

    /* Check that the new number of wait states is taken into account to access the Flash
    memory by polling the FLASH_ACR register */
    tickstart = HAL_GetTick();
 8005be8:	f7ff f878 	bl	8004cdc <HAL_GetTick>
 8005bec:	0003      	movs	r3, r0
 8005bee:	60fb      	str	r3, [r7, #12]

    while ((FLASH->ACR & FLASH_ACR_LATENCY) != FLatency)
 8005bf0:	e009      	b.n	8005c06 <HAL_RCC_ClockConfig+0x18e>
    {
      if ((HAL_GetTick() - tickstart) > CLOCKSWITCH_TIMEOUT_VALUE)
 8005bf2:	f7ff f873 	bl	8004cdc <HAL_GetTick>
 8005bf6:	0002      	movs	r2, r0
 8005bf8:	68fb      	ldr	r3, [r7, #12]
 8005bfa:	1ad3      	subs	r3, r2, r3
 8005bfc:	4a1b      	ldr	r2, [pc, #108]	; (8005c6c <HAL_RCC_ClockConfig+0x1f4>)
 8005bfe:	4293      	cmp	r3, r2
 8005c00:	d901      	bls.n	8005c06 <HAL_RCC_ClockConfig+0x18e>
      {
        return HAL_TIMEOUT;
 8005c02:	2303      	movs	r3, #3
 8005c04:	e02c      	b.n	8005c60 <HAL_RCC_ClockConfig+0x1e8>
    while ((FLASH->ACR & FLASH_ACR_LATENCY) != FLatency)
 8005c06:	4b18      	ldr	r3, [pc, #96]	; (8005c68 <HAL_RCC_ClockConfig+0x1f0>)
 8005c08:	681b      	ldr	r3, [r3, #0]
 8005c0a:	2207      	movs	r2, #7
 8005c0c:	4013      	ands	r3, r2
 8005c0e:	683a      	ldr	r2, [r7, #0]
 8005c10:	429a      	cmp	r2, r3
 8005c12:	d1ee      	bne.n	8005bf2 <HAL_RCC_ClockConfig+0x17a>
      }
    }
  }

  /*-------------------------- PCLK1 Configuration ---------------------------*/
  if (((RCC_ClkInitStruct->ClockType) & RCC_CLOCKTYPE_PCLK1) == RCC_CLOCKTYPE_PCLK1)
 8005c14:	687b      	ldr	r3, [r7, #4]
 8005c16:	681b      	ldr	r3, [r3, #0]
 8005c18:	2204      	movs	r2, #4
 8005c1a:	4013      	ands	r3, r2
 8005c1c:	d009      	beq.n	8005c32 <HAL_RCC_ClockConfig+0x1ba>
  {
    assert_param(IS_RCC_PCLK(RCC_ClkInitStruct->APB1CLKDivider));
    MODIFY_REG(RCC->CFGR, RCC_CFGR_PPRE, RCC_ClkInitStruct->APB1CLKDivider);
 8005c1e:	4b14      	ldr	r3, [pc, #80]	; (8005c70 <HAL_RCC_ClockConfig+0x1f8>)
 8005c20:	689b      	ldr	r3, [r3, #8]
 8005c22:	4a15      	ldr	r2, [pc, #84]	; (8005c78 <HAL_RCC_ClockConfig+0x200>)
 8005c24:	4013      	ands	r3, r2
 8005c26:	0019      	movs	r1, r3
 8005c28:	687b      	ldr	r3, [r7, #4]
 8005c2a:	68da      	ldr	r2, [r3, #12]
 8005c2c:	4b10      	ldr	r3, [pc, #64]	; (8005c70 <HAL_RCC_ClockConfig+0x1f8>)
 8005c2e:	430a      	orrs	r2, r1
 8005c30:	609a      	str	r2, [r3, #8]
  }

  /* Update the SystemCoreClock global variable */
  SystemCoreClock = (HAL_RCC_GetSysClockFreq() >> ((AHBPrescTable[(RCC->CFGR & RCC_CFGR_HPRE) >> RCC_CFGR_HPRE_Pos]) & 0x1FU));
 8005c32:	f000 f829 	bl	8005c88 <HAL_RCC_GetSysClockFreq>
 8005c36:	0001      	movs	r1, r0
 8005c38:	4b0d      	ldr	r3, [pc, #52]	; (8005c70 <HAL_RCC_ClockConfig+0x1f8>)
 8005c3a:	689b      	ldr	r3, [r3, #8]
 8005c3c:	0a1b      	lsrs	r3, r3, #8
 8005c3e:	220f      	movs	r2, #15
 8005c40:	401a      	ands	r2, r3
 8005c42:	4b0e      	ldr	r3, [pc, #56]	; (8005c7c <HAL_RCC_ClockConfig+0x204>)
 8005c44:	0092      	lsls	r2, r2, #2
 8005c46:	58d3      	ldr	r3, [r2, r3]
 8005c48:	221f      	movs	r2, #31
 8005c4a:	4013      	ands	r3, r2
 8005c4c:	000a      	movs	r2, r1
 8005c4e:	40da      	lsrs	r2, r3
 8005c50:	4b0b      	ldr	r3, [pc, #44]	; (8005c80 <HAL_RCC_ClockConfig+0x208>)
 8005c52:	601a      	str	r2, [r3, #0]

  /* Configure the source of time base considering new system clocks settings*/
  return HAL_InitTick(uwTickPrio);
 8005c54:	4b0b      	ldr	r3, [pc, #44]	; (8005c84 <HAL_RCC_ClockConfig+0x20c>)
 8005c56:	681b      	ldr	r3, [r3, #0]
 8005c58:	0018      	movs	r0, r3
 8005c5a:	f7fe ffe3 	bl	8004c24 <HAL_InitTick>
 8005c5e:	0003      	movs	r3, r0
}
 8005c60:	0018      	movs	r0, r3
 8005c62:	46bd      	mov	sp, r7
 8005c64:	b004      	add	sp, #16
 8005c66:	bd80      	pop	{r7, pc}
 8005c68:	40022000 	.word	0x40022000
 8005c6c:	00001388 	.word	0x00001388
 8005c70:	40021000 	.word	0x40021000
 8005c74:	fffff0ff 	.word	0xfffff0ff
 8005c78:	ffff8fff 	.word	0xffff8fff
 8005c7c:	08007ab8 	.word	0x08007ab8
 8005c80:	20000004 	.word	0x20000004
 8005c84:	20000008 	.word	0x20000008

08005c88 <HAL_RCC_GetSysClockFreq>:
  *
  *
  * @retval SYSCLK frequency
  */
uint32_t HAL_RCC_GetSysClockFreq(void)
{
 8005c88:	b580      	push	{r7, lr}
 8005c8a:	b086      	sub	sp, #24
 8005c8c:	af00      	add	r7, sp, #0
  uint32_t pllvco, pllsource, pllr, pllm, hsidiv;
  uint32_t sysclockfreq;

  if (__HAL_RCC_GET_SYSCLK_SOURCE() == RCC_SYSCLKSOURCE_STATUS_HSI)
 8005c8e:	4b3c      	ldr	r3, [pc, #240]	; (8005d80 <HAL_RCC_GetSysClockFreq+0xf8>)
 8005c90:	689b      	ldr	r3, [r3, #8]
 8005c92:	2238      	movs	r2, #56	; 0x38
 8005c94:	4013      	ands	r3, r2
 8005c96:	d10f      	bne.n	8005cb8 <HAL_RCC_GetSysClockFreq+0x30>
  {
    /* HSISYS can be derived for HSI16 */
    hsidiv = (1UL << ((READ_BIT(RCC->CR, RCC_CR_HSIDIV)) >> RCC_CR_HSIDIV_Pos));
 8005c98:	4b39      	ldr	r3, [pc, #228]	; (8005d80 <HAL_RCC_GetSysClockFreq+0xf8>)
 8005c9a:	681b      	ldr	r3, [r3, #0]
 8005c9c:	0adb      	lsrs	r3, r3, #11
 8005c9e:	2207      	movs	r2, #7
 8005ca0:	4013      	ands	r3, r2
 8005ca2:	2201      	movs	r2, #1
 8005ca4:	409a      	lsls	r2, r3
 8005ca6:	0013      	movs	r3, r2
 8005ca8:	603b      	str	r3, [r7, #0]

    /* HSI used as system clock source */
    sysclockfreq = (HSI_VALUE / hsidiv);
 8005caa:	6839      	ldr	r1, [r7, #0]
 8005cac:	4835      	ldr	r0, [pc, #212]	; (8005d84 <HAL_RCC_GetSysClockFreq+0xfc>)
 8005cae:	f7fa fa2f 	bl	8000110 <__udivsi3>
 8005cb2:	0003      	movs	r3, r0
 8005cb4:	613b      	str	r3, [r7, #16]
 8005cb6:	e05d      	b.n	8005d74 <HAL_RCC_GetSysClockFreq+0xec>
  }
  else if (__HAL_RCC_GET_SYSCLK_SOURCE() == RCC_SYSCLKSOURCE_STATUS_HSE)
 8005cb8:	4b31      	ldr	r3, [pc, #196]	; (8005d80 <HAL_RCC_GetSysClockFreq+0xf8>)
 8005cba:	689b      	ldr	r3, [r3, #8]
 8005cbc:	2238      	movs	r2, #56	; 0x38
 8005cbe:	4013      	ands	r3, r2
 8005cc0:	2b08      	cmp	r3, #8
 8005cc2:	d102      	bne.n	8005cca <HAL_RCC_GetSysClockFreq+0x42>
  {
    /* HSE used as system clock source */
    sysclockfreq = HSE_VALUE;
 8005cc4:	4b30      	ldr	r3, [pc, #192]	; (8005d88 <HAL_RCC_GetSysClockFreq+0x100>)
 8005cc6:	613b      	str	r3, [r7, #16]
 8005cc8:	e054      	b.n	8005d74 <HAL_RCC_GetSysClockFreq+0xec>
  }
  else if (__HAL_RCC_GET_SYSCLK_SOURCE() == RCC_SYSCLKSOURCE_STATUS_PLLCLK)
 8005cca:	4b2d      	ldr	r3, [pc, #180]	; (8005d80 <HAL_RCC_GetSysClockFreq+0xf8>)
 8005ccc:	689b      	ldr	r3, [r3, #8]
 8005cce:	2238      	movs	r2, #56	; 0x38
 8005cd0:	4013      	ands	r3, r2
 8005cd2:	2b10      	cmp	r3, #16
 8005cd4:	d138      	bne.n	8005d48 <HAL_RCC_GetSysClockFreq+0xc0>
    /* PLL used as system clock  source */

    /* PLL_VCO = ((HSE_VALUE or HSI_VALUE)/ PLLM) * PLLN
    SYSCLK = PLL_VCO / PLLR
    */
    pllsource = (RCC->PLLCFGR & RCC_PLLCFGR_PLLSRC);
 8005cd6:	4b2a      	ldr	r3, [pc, #168]	; (8005d80 <HAL_RCC_GetSysClockFreq+0xf8>)
 8005cd8:	68db      	ldr	r3, [r3, #12]
 8005cda:	2203      	movs	r2, #3
 8005cdc:	4013      	ands	r3, r2
 8005cde:	60fb      	str	r3, [r7, #12]
    pllm = ((RCC->PLLCFGR & RCC_PLLCFGR_PLLM) >> RCC_PLLCFGR_PLLM_Pos) + 1U ;
 8005ce0:	4b27      	ldr	r3, [pc, #156]	; (8005d80 <HAL_RCC_GetSysClockFreq+0xf8>)
 8005ce2:	68db      	ldr	r3, [r3, #12]
 8005ce4:	091b      	lsrs	r3, r3, #4
 8005ce6:	2207      	movs	r2, #7
 8005ce8:	4013      	ands	r3, r2
 8005cea:	3301      	adds	r3, #1
 8005cec:	60bb      	str	r3, [r7, #8]

    switch (pllsource)
 8005cee:	68fb      	ldr	r3, [r7, #12]
 8005cf0:	2b03      	cmp	r3, #3
 8005cf2:	d10d      	bne.n	8005d10 <HAL_RCC_GetSysClockFreq+0x88>
    {
      case RCC_PLLSOURCE_HSE:  /* HSE used as PLL clock source */
        pllvco = (HSE_VALUE / pllm) * ((RCC->PLLCFGR & RCC_PLLCFGR_PLLN) >> RCC_PLLCFGR_PLLN_Pos);
 8005cf4:	68b9      	ldr	r1, [r7, #8]
 8005cf6:	4824      	ldr	r0, [pc, #144]	; (8005d88 <HAL_RCC_GetSysClockFreq+0x100>)
 8005cf8:	f7fa fa0a 	bl	8000110 <__udivsi3>
 8005cfc:	0003      	movs	r3, r0
 8005cfe:	0019      	movs	r1, r3
 8005d00:	4b1f      	ldr	r3, [pc, #124]	; (8005d80 <HAL_RCC_GetSysClockFreq+0xf8>)
 8005d02:	68db      	ldr	r3, [r3, #12]
 8005d04:	0a1b      	lsrs	r3, r3, #8
 8005d06:	227f      	movs	r2, #127	; 0x7f
 8005d08:	4013      	ands	r3, r2
 8005d0a:	434b      	muls	r3, r1
 8005d0c:	617b      	str	r3, [r7, #20]
        break;
 8005d0e:	e00d      	b.n	8005d2c <HAL_RCC_GetSysClockFreq+0xa4>

      case RCC_PLLSOURCE_HSI:  /* HSI16 used as PLL clock source */
      default:                 /* HSI16 used as PLL clock source */
        pllvco = (HSI_VALUE / pllm) * ((RCC->PLLCFGR & RCC_PLLCFGR_PLLN) >> RCC_PLLCFGR_PLLN_Pos) ;
 8005d10:	68b9      	ldr	r1, [r7, #8]
 8005d12:	481c      	ldr	r0, [pc, #112]	; (8005d84 <HAL_RCC_GetSysClockFreq+0xfc>)
 8005d14:	f7fa f9fc 	bl	8000110 <__udivsi3>
 8005d18:	0003      	movs	r3, r0
 8005d1a:	0019      	movs	r1, r3
 8005d1c:	4b18      	ldr	r3, [pc, #96]	; (8005d80 <HAL_RCC_GetSysClockFreq+0xf8>)
 8005d1e:	68db      	ldr	r3, [r3, #12]
 8005d20:	0a1b      	lsrs	r3, r3, #8
 8005d22:	227f      	movs	r2, #127	; 0x7f
 8005d24:	4013      	ands	r3, r2
 8005d26:	434b      	muls	r3, r1
 8005d28:	617b      	str	r3, [r7, #20]
        break;
 8005d2a:	46c0      	nop			; (mov r8, r8)
    }
    pllr = (((RCC->PLLCFGR & RCC_PLLCFGR_PLLR) >> RCC_PLLCFGR_PLLR_Pos) + 1U);
 8005d2c:	4b14      	ldr	r3, [pc, #80]	; (8005d80 <HAL_RCC_GetSysClockFreq+0xf8>)
 8005d2e:	68db      	ldr	r3, [r3, #12]
 8005d30:	0f5b      	lsrs	r3, r3, #29
 8005d32:	2207      	movs	r2, #7
 8005d34:	4013      	ands	r3, r2
 8005d36:	3301      	adds	r3, #1
 8005d38:	607b      	str	r3, [r7, #4]
    sysclockfreq = pllvco / pllr;
 8005d3a:	6879      	ldr	r1, [r7, #4]
 8005d3c:	6978      	ldr	r0, [r7, #20]
 8005d3e:	f7fa f9e7 	bl	8000110 <__udivsi3>
 8005d42:	0003      	movs	r3, r0
 8005d44:	613b      	str	r3, [r7, #16]
 8005d46:	e015      	b.n	8005d74 <HAL_RCC_GetSysClockFreq+0xec>
  }
  else if (__HAL_RCC_GET_SYSCLK_SOURCE() == RCC_SYSCLKSOURCE_STATUS_LSE)
 8005d48:	4b0d      	ldr	r3, [pc, #52]	; (8005d80 <HAL_RCC_GetSysClockFreq+0xf8>)
 8005d4a:	689b      	ldr	r3, [r3, #8]
 8005d4c:	2238      	movs	r2, #56	; 0x38
 8005d4e:	4013      	ands	r3, r2
 8005d50:	2b20      	cmp	r3, #32
 8005d52:	d103      	bne.n	8005d5c <HAL_RCC_GetSysClockFreq+0xd4>
  {
    /* LSE used as system clock source */
    sysclockfreq = LSE_VALUE;
 8005d54:	2380      	movs	r3, #128	; 0x80
 8005d56:	021b      	lsls	r3, r3, #8
 8005d58:	613b      	str	r3, [r7, #16]
 8005d5a:	e00b      	b.n	8005d74 <HAL_RCC_GetSysClockFreq+0xec>
  }
  else if (__HAL_RCC_GET_SYSCLK_SOURCE() == RCC_SYSCLKSOURCE_STATUS_LSI)
 8005d5c:	4b08      	ldr	r3, [pc, #32]	; (8005d80 <HAL_RCC_GetSysClockFreq+0xf8>)
 8005d5e:	689b      	ldr	r3, [r3, #8]
 8005d60:	2238      	movs	r2, #56	; 0x38
 8005d62:	4013      	ands	r3, r2
 8005d64:	2b18      	cmp	r3, #24
 8005d66:	d103      	bne.n	8005d70 <HAL_RCC_GetSysClockFreq+0xe8>
  {
    /* LSI used as system clock source */
    sysclockfreq = LSI_VALUE;
 8005d68:	23fa      	movs	r3, #250	; 0xfa
 8005d6a:	01db      	lsls	r3, r3, #7
 8005d6c:	613b      	str	r3, [r7, #16]
 8005d6e:	e001      	b.n	8005d74 <HAL_RCC_GetSysClockFreq+0xec>
  }
  else
  {
    sysclockfreq = 0U;
 8005d70:	2300      	movs	r3, #0
 8005d72:	613b      	str	r3, [r7, #16]
  }

  return sysclockfreq;
 8005d74:	693b      	ldr	r3, [r7, #16]
}
 8005d76:	0018      	movs	r0, r3
 8005d78:	46bd      	mov	sp, r7
 8005d7a:	b006      	add	sp, #24
 8005d7c:	bd80      	pop	{r7, pc}
 8005d7e:	46c0      	nop			; (mov r8, r8)
 8005d80:	40021000 	.word	0x40021000
 8005d84:	00f42400 	.word	0x00f42400
 8005d88:	007a1200 	.word	0x007a1200

08005d8c <HAL_RCC_GetHCLKFreq>:
  *
  * @note   The SystemCoreClock CMSIS variable is used to store System Clock Frequency.
  * @retval HCLK frequency in Hz
  */
uint32_t HAL_RCC_GetHCLKFreq(void)
{
 8005d8c:	b580      	push	{r7, lr}
 8005d8e:	af00      	add	r7, sp, #0
  return SystemCoreClock;
 8005d90:	4b02      	ldr	r3, [pc, #8]	; (8005d9c <HAL_RCC_GetHCLKFreq+0x10>)
 8005d92:	681b      	ldr	r3, [r3, #0]
}
 8005d94:	0018      	movs	r0, r3
 8005d96:	46bd      	mov	sp, r7
 8005d98:	bd80      	pop	{r7, pc}
 8005d9a:	46c0      	nop			; (mov r8, r8)
 8005d9c:	20000004 	.word	0x20000004

08005da0 <HAL_RCC_GetPCLK1Freq>:
  * @note   Each time PCLK1 changes, this function must be called to update the
  *         right PCLK1 value. Otherwise, any configuration based on this function will be incorrect.
  * @retval PCLK1 frequency in Hz
  */
uint32_t HAL_RCC_GetPCLK1Freq(void)
{
 8005da0:	b5b0      	push	{r4, r5, r7, lr}
 8005da2:	af00      	add	r7, sp, #0
  /* Get HCLK source and Compute PCLK1 frequency ---------------------------*/
  return ((uint32_t)(__LL_RCC_CALC_PCLK1_FREQ(HAL_RCC_GetHCLKFreq(), LL_RCC_GetAPB1Prescaler())));
 8005da4:	f7ff fff2 	bl	8005d8c <HAL_RCC_GetHCLKFreq>
 8005da8:	0004      	movs	r4, r0
 8005daa:	f7ff fb49 	bl	8005440 <LL_RCC_GetAPB1Prescaler>
 8005dae:	0003      	movs	r3, r0
 8005db0:	0b1a      	lsrs	r2, r3, #12
 8005db2:	4b05      	ldr	r3, [pc, #20]	; (8005dc8 <HAL_RCC_GetPCLK1Freq+0x28>)
 8005db4:	0092      	lsls	r2, r2, #2
 8005db6:	58d3      	ldr	r3, [r2, r3]
 8005db8:	221f      	movs	r2, #31
 8005dba:	4013      	ands	r3, r2
 8005dbc:	40dc      	lsrs	r4, r3
 8005dbe:	0023      	movs	r3, r4
}
 8005dc0:	0018      	movs	r0, r3
 8005dc2:	46bd      	mov	sp, r7
 8005dc4:	bdb0      	pop	{r4, r5, r7, pc}
 8005dc6:	46c0      	nop			; (mov r8, r8)
 8005dc8:	08007af8 	.word	0x08007af8

08005dcc <HAL_RCCEx_PeriphCLKConfig>:
  *         the RTC clock source: in this case the access to Backup domain is enabled.
  *
  * @retval HAL status
  */
HAL_StatusTypeDef HAL_RCCEx_PeriphCLKConfig(RCC_PeriphCLKInitTypeDef const *PeriphClkInit)
{
 8005dcc:	b580      	push	{r7, lr}
 8005dce:	b086      	sub	sp, #24
 8005dd0:	af00      	add	r7, sp, #0
 8005dd2:	6078      	str	r0, [r7, #4]
  uint32_t tmpregister;
  uint32_t tickstart;
  HAL_StatusTypeDef ret    = HAL_OK;   /* Intermediate status */
 8005dd4:	2313      	movs	r3, #19
 8005dd6:	18fb      	adds	r3, r7, r3
 8005dd8:	2200      	movs	r2, #0
 8005dda:	701a      	strb	r2, [r3, #0]
  HAL_StatusTypeDef status = HAL_OK;   /* Final status */
 8005ddc:	2312      	movs	r3, #18
 8005dde:	18fb      	adds	r3, r7, r3
 8005de0:	2200      	movs	r2, #0
 8005de2:	701a      	strb	r2, [r3, #0]

  /* Check the parameters */
  assert_param(IS_RCC_PERIPHCLOCK(PeriphClkInit->PeriphClockSelection));

  /*-------------------------- RTC clock source configuration ----------------------*/
  if ((PeriphClkInit->PeriphClockSelection & RCC_PERIPHCLK_RTC) == RCC_PERIPHCLK_RTC)
 8005de4:	687b      	ldr	r3, [r7, #4]
 8005de6:	681a      	ldr	r2, [r3, #0]
 8005de8:	2380      	movs	r3, #128	; 0x80
 8005dea:	029b      	lsls	r3, r3, #10
 8005dec:	4013      	ands	r3, r2
 8005dee:	d100      	bne.n	8005df2 <HAL_RCCEx_PeriphCLKConfig+0x26>
 8005df0:	e0a3      	b.n	8005f3a <HAL_RCCEx_PeriphCLKConfig+0x16e>
  {
    FlagStatus       pwrclkchanged = RESET;
 8005df2:	2011      	movs	r0, #17
 8005df4:	183b      	adds	r3, r7, r0
 8005df6:	2200      	movs	r2, #0
 8005df8:	701a      	strb	r2, [r3, #0]

    /* Check for RTC Parameters used to output RTCCLK */
    assert_param(IS_RCC_RTCCLKSOURCE(PeriphClkInit->RTCClockSelection));

    /* Enable Power Clock */
    if (__HAL_RCC_PWR_IS_CLK_DISABLED())
 8005dfa:	4b7f      	ldr	r3, [pc, #508]	; (8005ff8 <HAL_RCCEx_PeriphCLKConfig+0x22c>)
 8005dfc:	6bda      	ldr	r2, [r3, #60]	; 0x3c
 8005dfe:	2380      	movs	r3, #128	; 0x80
 8005e00:	055b      	lsls	r3, r3, #21
 8005e02:	4013      	ands	r3, r2
 8005e04:	d110      	bne.n	8005e28 <HAL_RCCEx_PeriphCLKConfig+0x5c>
    {
      __HAL_RCC_PWR_CLK_ENABLE();
 8005e06:	4b7c      	ldr	r3, [pc, #496]	; (8005ff8 <HAL_RCCEx_PeriphCLKConfig+0x22c>)
 8005e08:	6bda      	ldr	r2, [r3, #60]	; 0x3c
 8005e0a:	4b7b      	ldr	r3, [pc, #492]	; (8005ff8 <HAL_RCCEx_PeriphCLKConfig+0x22c>)
 8005e0c:	2180      	movs	r1, #128	; 0x80
 8005e0e:	0549      	lsls	r1, r1, #21
 8005e10:	430a      	orrs	r2, r1
 8005e12:	63da      	str	r2, [r3, #60]	; 0x3c
 8005e14:	4b78      	ldr	r3, [pc, #480]	; (8005ff8 <HAL_RCCEx_PeriphCLKConfig+0x22c>)
 8005e16:	6bda      	ldr	r2, [r3, #60]	; 0x3c
 8005e18:	2380      	movs	r3, #128	; 0x80
 8005e1a:	055b      	lsls	r3, r3, #21
 8005e1c:	4013      	ands	r3, r2
 8005e1e:	60bb      	str	r3, [r7, #8]
 8005e20:	68bb      	ldr	r3, [r7, #8]
      pwrclkchanged = SET;
 8005e22:	183b      	adds	r3, r7, r0
 8005e24:	2201      	movs	r2, #1
 8005e26:	701a      	strb	r2, [r3, #0]
    }

    /* Enable write access to Backup domain */
    SET_BIT(PWR->CR1, PWR_CR1_DBP);
 8005e28:	4b74      	ldr	r3, [pc, #464]	; (8005ffc <HAL_RCCEx_PeriphCLKConfig+0x230>)
 8005e2a:	681a      	ldr	r2, [r3, #0]
 8005e2c:	4b73      	ldr	r3, [pc, #460]	; (8005ffc <HAL_RCCEx_PeriphCLKConfig+0x230>)
 8005e2e:	2180      	movs	r1, #128	; 0x80
 8005e30:	0049      	lsls	r1, r1, #1
 8005e32:	430a      	orrs	r2, r1
 8005e34:	601a      	str	r2, [r3, #0]

    /* Wait for Backup domain Write protection disable */
    tickstart = HAL_GetTick();
 8005e36:	f7fe ff51 	bl	8004cdc <HAL_GetTick>
 8005e3a:	0003      	movs	r3, r0
 8005e3c:	60fb      	str	r3, [r7, #12]

    while ((PWR->CR1 & PWR_CR1_DBP) == 0U)
 8005e3e:	e00b      	b.n	8005e58 <HAL_RCCEx_PeriphCLKConfig+0x8c>
    {
      if ((HAL_GetTick() - tickstart) > RCC_DBP_TIMEOUT_VALUE)
 8005e40:	f7fe ff4c 	bl	8004cdc <HAL_GetTick>
 8005e44:	0002      	movs	r2, r0
 8005e46:	68fb      	ldr	r3, [r7, #12]
 8005e48:	1ad3      	subs	r3, r2, r3
 8005e4a:	2b02      	cmp	r3, #2
 8005e4c:	d904      	bls.n	8005e58 <HAL_RCCEx_PeriphCLKConfig+0x8c>
      {
        ret = HAL_TIMEOUT;
 8005e4e:	2313      	movs	r3, #19
 8005e50:	18fb      	adds	r3, r7, r3
 8005e52:	2203      	movs	r2, #3
 8005e54:	701a      	strb	r2, [r3, #0]
        break;
 8005e56:	e005      	b.n	8005e64 <HAL_RCCEx_PeriphCLKConfig+0x98>
    while ((PWR->CR1 & PWR_CR1_DBP) == 0U)
 8005e58:	4b68      	ldr	r3, [pc, #416]	; (8005ffc <HAL_RCCEx_PeriphCLKConfig+0x230>)
 8005e5a:	681a      	ldr	r2, [r3, #0]
 8005e5c:	2380      	movs	r3, #128	; 0x80
 8005e5e:	005b      	lsls	r3, r3, #1
 8005e60:	4013      	ands	r3, r2
 8005e62:	d0ed      	beq.n	8005e40 <HAL_RCCEx_PeriphCLKConfig+0x74>
      }
    }

    if (ret == HAL_OK)
 8005e64:	2313      	movs	r3, #19
 8005e66:	18fb      	adds	r3, r7, r3
 8005e68:	781b      	ldrb	r3, [r3, #0]
 8005e6a:	2b00      	cmp	r3, #0
 8005e6c:	d154      	bne.n	8005f18 <HAL_RCCEx_PeriphCLKConfig+0x14c>
    {
      /* Reset the Backup domain only if the RTC Clock source selection is modified from default */
      tmpregister = READ_BIT(RCC->BDCR, RCC_BDCR_RTCSEL);
 8005e6e:	4b62      	ldr	r3, [pc, #392]	; (8005ff8 <HAL_RCCEx_PeriphCLKConfig+0x22c>)
 8005e70:	6dda      	ldr	r2, [r3, #92]	; 0x5c
 8005e72:	23c0      	movs	r3, #192	; 0xc0
 8005e74:	009b      	lsls	r3, r3, #2
 8005e76:	4013      	ands	r3, r2
 8005e78:	617b      	str	r3, [r7, #20]

      /* Reset the Backup domain only if the RTC Clock source selection is modified */
      if ((tmpregister != RCC_RTCCLKSOURCE_NONE) && (tmpregister != PeriphClkInit->RTCClockSelection))
 8005e7a:	697b      	ldr	r3, [r7, #20]
 8005e7c:	2b00      	cmp	r3, #0
 8005e7e:	d019      	beq.n	8005eb4 <HAL_RCCEx_PeriphCLKConfig+0xe8>
 8005e80:	687b      	ldr	r3, [r7, #4]
 8005e82:	695b      	ldr	r3, [r3, #20]
 8005e84:	697a      	ldr	r2, [r7, #20]
 8005e86:	429a      	cmp	r2, r3
 8005e88:	d014      	beq.n	8005eb4 <HAL_RCCEx_PeriphCLKConfig+0xe8>
      {
        /* Store the content of BDCR register before the reset of Backup Domain */
        tmpregister = READ_BIT(RCC->BDCR, ~(RCC_BDCR_RTCSEL));
 8005e8a:	4b5b      	ldr	r3, [pc, #364]	; (8005ff8 <HAL_RCCEx_PeriphCLKConfig+0x22c>)
 8005e8c:	6ddb      	ldr	r3, [r3, #92]	; 0x5c
 8005e8e:	4a5c      	ldr	r2, [pc, #368]	; (8006000 <HAL_RCCEx_PeriphCLKConfig+0x234>)
 8005e90:	4013      	ands	r3, r2
 8005e92:	617b      	str	r3, [r7, #20]
        /* RTC Clock selection can be changed only if the Backup Domain is reset */
        __HAL_RCC_BACKUPRESET_FORCE();
 8005e94:	4b58      	ldr	r3, [pc, #352]	; (8005ff8 <HAL_RCCEx_PeriphCLKConfig+0x22c>)
 8005e96:	6dda      	ldr	r2, [r3, #92]	; 0x5c
 8005e98:	4b57      	ldr	r3, [pc, #348]	; (8005ff8 <HAL_RCCEx_PeriphCLKConfig+0x22c>)
 8005e9a:	2180      	movs	r1, #128	; 0x80
 8005e9c:	0249      	lsls	r1, r1, #9
 8005e9e:	430a      	orrs	r2, r1
 8005ea0:	65da      	str	r2, [r3, #92]	; 0x5c
        __HAL_RCC_BACKUPRESET_RELEASE();
 8005ea2:	4b55      	ldr	r3, [pc, #340]	; (8005ff8 <HAL_RCCEx_PeriphCLKConfig+0x22c>)
 8005ea4:	6dda      	ldr	r2, [r3, #92]	; 0x5c
 8005ea6:	4b54      	ldr	r3, [pc, #336]	; (8005ff8 <HAL_RCCEx_PeriphCLKConfig+0x22c>)
 8005ea8:	4956      	ldr	r1, [pc, #344]	; (8006004 <HAL_RCCEx_PeriphCLKConfig+0x238>)
 8005eaa:	400a      	ands	r2, r1
 8005eac:	65da      	str	r2, [r3, #92]	; 0x5c
        /* Restore the Content of BDCR register */
        RCC->BDCR = tmpregister;
 8005eae:	4b52      	ldr	r3, [pc, #328]	; (8005ff8 <HAL_RCCEx_PeriphCLKConfig+0x22c>)
 8005eb0:	697a      	ldr	r2, [r7, #20]
 8005eb2:	65da      	str	r2, [r3, #92]	; 0x5c
      }

      /* Wait for LSE reactivation if LSE was enable prior to Backup Domain reset */
      if (HAL_IS_BIT_SET(tmpregister, RCC_BDCR_LSEON))
 8005eb4:	697b      	ldr	r3, [r7, #20]
 8005eb6:	2201      	movs	r2, #1
 8005eb8:	4013      	ands	r3, r2
 8005eba:	d016      	beq.n	8005eea <HAL_RCCEx_PeriphCLKConfig+0x11e>
      {
        /* Get Start Tick*/
        tickstart = HAL_GetTick();
 8005ebc:	f7fe ff0e 	bl	8004cdc <HAL_GetTick>
 8005ec0:	0003      	movs	r3, r0
 8005ec2:	60fb      	str	r3, [r7, #12]

        /* Wait till LSE is ready */
        while (READ_BIT(RCC->BDCR, RCC_BDCR_LSERDY) == 0U)
 8005ec4:	e00c      	b.n	8005ee0 <HAL_RCCEx_PeriphCLKConfig+0x114>
        {
          if ((HAL_GetTick() - tickstart) > RCC_LSE_TIMEOUT_VALUE)
 8005ec6:	f7fe ff09 	bl	8004cdc <HAL_GetTick>
 8005eca:	0002      	movs	r2, r0
 8005ecc:	68fb      	ldr	r3, [r7, #12]
 8005ece:	1ad3      	subs	r3, r2, r3
 8005ed0:	4a4d      	ldr	r2, [pc, #308]	; (8006008 <HAL_RCCEx_PeriphCLKConfig+0x23c>)
 8005ed2:	4293      	cmp	r3, r2
 8005ed4:	d904      	bls.n	8005ee0 <HAL_RCCEx_PeriphCLKConfig+0x114>
          {
            ret = HAL_TIMEOUT;
 8005ed6:	2313      	movs	r3, #19
 8005ed8:	18fb      	adds	r3, r7, r3
 8005eda:	2203      	movs	r2, #3
 8005edc:	701a      	strb	r2, [r3, #0]
            break;
 8005ede:	e004      	b.n	8005eea <HAL_RCCEx_PeriphCLKConfig+0x11e>
        while (READ_BIT(RCC->BDCR, RCC_BDCR_LSERDY) == 0U)
 8005ee0:	4b45      	ldr	r3, [pc, #276]	; (8005ff8 <HAL_RCCEx_PeriphCLKConfig+0x22c>)
 8005ee2:	6ddb      	ldr	r3, [r3, #92]	; 0x5c
 8005ee4:	2202      	movs	r2, #2
 8005ee6:	4013      	ands	r3, r2
 8005ee8:	d0ed      	beq.n	8005ec6 <HAL_RCCEx_PeriphCLKConfig+0xfa>
          }
        }
      }

      if (ret == HAL_OK)
 8005eea:	2313      	movs	r3, #19
 8005eec:	18fb      	adds	r3, r7, r3
 8005eee:	781b      	ldrb	r3, [r3, #0]
 8005ef0:	2b00      	cmp	r3, #0
 8005ef2:	d10a      	bne.n	8005f0a <HAL_RCCEx_PeriphCLKConfig+0x13e>
      {
        /* Apply new RTC clock source selection */
        __HAL_RCC_RTC_CONFIG(PeriphClkInit->RTCClockSelection);
 8005ef4:	4b40      	ldr	r3, [pc, #256]	; (8005ff8 <HAL_RCCEx_PeriphCLKConfig+0x22c>)
 8005ef6:	6ddb      	ldr	r3, [r3, #92]	; 0x5c
 8005ef8:	4a41      	ldr	r2, [pc, #260]	; (8006000 <HAL_RCCEx_PeriphCLKConfig+0x234>)
 8005efa:	4013      	ands	r3, r2
 8005efc:	0019      	movs	r1, r3
 8005efe:	687b      	ldr	r3, [r7, #4]
 8005f00:	695a      	ldr	r2, [r3, #20]
 8005f02:	4b3d      	ldr	r3, [pc, #244]	; (8005ff8 <HAL_RCCEx_PeriphCLKConfig+0x22c>)
 8005f04:	430a      	orrs	r2, r1
 8005f06:	65da      	str	r2, [r3, #92]	; 0x5c
 8005f08:	e00c      	b.n	8005f24 <HAL_RCCEx_PeriphCLKConfig+0x158>
      }
      else
      {
        /* set overall return value */
        status = ret;
 8005f0a:	2312      	movs	r3, #18
 8005f0c:	18fb      	adds	r3, r7, r3
 8005f0e:	2213      	movs	r2, #19
 8005f10:	18ba      	adds	r2, r7, r2
 8005f12:	7812      	ldrb	r2, [r2, #0]
 8005f14:	701a      	strb	r2, [r3, #0]
 8005f16:	e005      	b.n	8005f24 <HAL_RCCEx_PeriphCLKConfig+0x158>
      }
    }
    else
    {
      /* set overall return value */
      status = ret;
 8005f18:	2312      	movs	r3, #18
 8005f1a:	18fb      	adds	r3, r7, r3
 8005f1c:	2213      	movs	r2, #19
 8005f1e:	18ba      	adds	r2, r7, r2
 8005f20:	7812      	ldrb	r2, [r2, #0]
 8005f22:	701a      	strb	r2, [r3, #0]
    }

    /* Restore clock configuration if changed */
    if (pwrclkchanged == SET)
 8005f24:	2311      	movs	r3, #17
 8005f26:	18fb      	adds	r3, r7, r3
 8005f28:	781b      	ldrb	r3, [r3, #0]
 8005f2a:	2b01      	cmp	r3, #1
 8005f2c:	d105      	bne.n	8005f3a <HAL_RCCEx_PeriphCLKConfig+0x16e>
    {
      __HAL_RCC_PWR_CLK_DISABLE();
 8005f2e:	4b32      	ldr	r3, [pc, #200]	; (8005ff8 <HAL_RCCEx_PeriphCLKConfig+0x22c>)
 8005f30:	6bda      	ldr	r2, [r3, #60]	; 0x3c
 8005f32:	4b31      	ldr	r3, [pc, #196]	; (8005ff8 <HAL_RCCEx_PeriphCLKConfig+0x22c>)
 8005f34:	4935      	ldr	r1, [pc, #212]	; (800600c <HAL_RCCEx_PeriphCLKConfig+0x240>)
 8005f36:	400a      	ands	r2, r1
 8005f38:	63da      	str	r2, [r3, #60]	; 0x3c
    }
  }

  /*-------------------------- USART1 clock source configuration -------------------*/
  if (((PeriphClkInit->PeriphClockSelection) & RCC_PERIPHCLK_USART1) == RCC_PERIPHCLK_USART1)
 8005f3a:	687b      	ldr	r3, [r7, #4]
 8005f3c:	681b      	ldr	r3, [r3, #0]
 8005f3e:	2201      	movs	r2, #1
 8005f40:	4013      	ands	r3, r2
 8005f42:	d009      	beq.n	8005f58 <HAL_RCCEx_PeriphCLKConfig+0x18c>
  {
    /* Check the parameters */
    assert_param(IS_RCC_USART1CLKSOURCE(PeriphClkInit->Usart1ClockSelection));

    /* Configure the USART1 clock source */
    __HAL_RCC_USART1_CONFIG(PeriphClkInit->Usart1ClockSelection);
 8005f44:	4b2c      	ldr	r3, [pc, #176]	; (8005ff8 <HAL_RCCEx_PeriphCLKConfig+0x22c>)
 8005f46:	6d5b      	ldr	r3, [r3, #84]	; 0x54
 8005f48:	2203      	movs	r2, #3
 8005f4a:	4393      	bics	r3, r2
 8005f4c:	0019      	movs	r1, r3
 8005f4e:	687b      	ldr	r3, [r7, #4]
 8005f50:	685a      	ldr	r2, [r3, #4]
 8005f52:	4b29      	ldr	r3, [pc, #164]	; (8005ff8 <HAL_RCCEx_PeriphCLKConfig+0x22c>)
 8005f54:	430a      	orrs	r2, r1
 8005f56:	655a      	str	r2, [r3, #84]	; 0x54
    __HAL_RCC_LPTIM2_CONFIG(PeriphClkInit->Lptim2ClockSelection);
  }
#endif /* RCC_CCIPR_LPTIM2SEL */

  /*-------------------------- I2C1 clock source configuration ---------------------*/
  if (((PeriphClkInit->PeriphClockSelection) & RCC_PERIPHCLK_I2C1) == RCC_PERIPHCLK_I2C1)
 8005f58:	687b      	ldr	r3, [r7, #4]
 8005f5a:	681b      	ldr	r3, [r3, #0]
 8005f5c:	2220      	movs	r2, #32
 8005f5e:	4013      	ands	r3, r2
 8005f60:	d009      	beq.n	8005f76 <HAL_RCCEx_PeriphCLKConfig+0x1aa>
  {
    /* Check the parameters */
    assert_param(IS_RCC_I2C1CLKSOURCE(PeriphClkInit->I2c1ClockSelection));

    /* Configure the I2C1 clock source */
    __HAL_RCC_I2C1_CONFIG(PeriphClkInit->I2c1ClockSelection);
 8005f62:	4b25      	ldr	r3, [pc, #148]	; (8005ff8 <HAL_RCCEx_PeriphCLKConfig+0x22c>)
 8005f64:	6d5b      	ldr	r3, [r3, #84]	; 0x54
 8005f66:	4a2a      	ldr	r2, [pc, #168]	; (8006010 <HAL_RCCEx_PeriphCLKConfig+0x244>)
 8005f68:	4013      	ands	r3, r2
 8005f6a:	0019      	movs	r1, r3
 8005f6c:	687b      	ldr	r3, [r7, #4]
 8005f6e:	689a      	ldr	r2, [r3, #8]
 8005f70:	4b21      	ldr	r3, [pc, #132]	; (8005ff8 <HAL_RCCEx_PeriphCLKConfig+0x22c>)
 8005f72:	430a      	orrs	r2, r1
 8005f74:	655a      	str	r2, [r3, #84]	; 0x54
      __HAL_RCC_PLLCLKOUT_ENABLE(RCC_PLLQCLK);
    }
  }
#endif /* RNG */
  /*-------------------------- ADC clock source configuration ----------------------*/
  if (((PeriphClkInit->PeriphClockSelection) & RCC_PERIPHCLK_ADC) == RCC_PERIPHCLK_ADC)
 8005f76:	687b      	ldr	r3, [r7, #4]
 8005f78:	681a      	ldr	r2, [r3, #0]
 8005f7a:	2380      	movs	r3, #128	; 0x80
 8005f7c:	01db      	lsls	r3, r3, #7
 8005f7e:	4013      	ands	r3, r2
 8005f80:	d015      	beq.n	8005fae <HAL_RCCEx_PeriphCLKConfig+0x1e2>
  {
    /* Check the parameters */
    assert_param(IS_RCC_ADCCLKSOURCE(PeriphClkInit->AdcClockSelection));

    /* Configure the ADC interface clock source */
    __HAL_RCC_ADC_CONFIG(PeriphClkInit->AdcClockSelection);
 8005f82:	4b1d      	ldr	r3, [pc, #116]	; (8005ff8 <HAL_RCCEx_PeriphCLKConfig+0x22c>)
 8005f84:	6d5b      	ldr	r3, [r3, #84]	; 0x54
 8005f86:	009b      	lsls	r3, r3, #2
 8005f88:	0899      	lsrs	r1, r3, #2
 8005f8a:	687b      	ldr	r3, [r7, #4]
 8005f8c:	691a      	ldr	r2, [r3, #16]
 8005f8e:	4b1a      	ldr	r3, [pc, #104]	; (8005ff8 <HAL_RCCEx_PeriphCLKConfig+0x22c>)
 8005f90:	430a      	orrs	r2, r1
 8005f92:	655a      	str	r2, [r3, #84]	; 0x54

    if (PeriphClkInit->AdcClockSelection == RCC_ADCCLKSOURCE_PLLADC)
 8005f94:	687b      	ldr	r3, [r7, #4]
 8005f96:	691a      	ldr	r2, [r3, #16]
 8005f98:	2380      	movs	r3, #128	; 0x80
 8005f9a:	05db      	lsls	r3, r3, #23
 8005f9c:	429a      	cmp	r2, r3
 8005f9e:	d106      	bne.n	8005fae <HAL_RCCEx_PeriphCLKConfig+0x1e2>
    {
      /* Enable PLLPCLK output */
      __HAL_RCC_PLLCLKOUT_ENABLE(RCC_PLLPCLK);
 8005fa0:	4b15      	ldr	r3, [pc, #84]	; (8005ff8 <HAL_RCCEx_PeriphCLKConfig+0x22c>)
 8005fa2:	68da      	ldr	r2, [r3, #12]
 8005fa4:	4b14      	ldr	r3, [pc, #80]	; (8005ff8 <HAL_RCCEx_PeriphCLKConfig+0x22c>)
 8005fa6:	2180      	movs	r1, #128	; 0x80
 8005fa8:	0249      	lsls	r1, r1, #9
 8005faa:	430a      	orrs	r2, r1
 8005fac:	60da      	str	r2, [r3, #12]
    }
  }
#endif /* RCC_CCIPR_TIM15SEL */

  /*-------------------------- I2S1 clock source configuration ---------------------*/
  if (((PeriphClkInit->PeriphClockSelection) & RCC_PERIPHCLK_I2S1) == RCC_PERIPHCLK_I2S1)
 8005fae:	687b      	ldr	r3, [r7, #4]
 8005fb0:	681a      	ldr	r2, [r3, #0]
 8005fb2:	2380      	movs	r3, #128	; 0x80
 8005fb4:	011b      	lsls	r3, r3, #4
 8005fb6:	4013      	ands	r3, r2
 8005fb8:	d016      	beq.n	8005fe8 <HAL_RCCEx_PeriphCLKConfig+0x21c>
  {
    /* Check the parameters */
    assert_param(IS_RCC_I2S1CLKSOURCE(PeriphClkInit->I2s1ClockSelection));

    /* Configure the I2S1 clock source */
    __HAL_RCC_I2S1_CONFIG(PeriphClkInit->I2s1ClockSelection);
 8005fba:	4b0f      	ldr	r3, [pc, #60]	; (8005ff8 <HAL_RCCEx_PeriphCLKConfig+0x22c>)
 8005fbc:	6d5b      	ldr	r3, [r3, #84]	; 0x54
 8005fbe:	4a15      	ldr	r2, [pc, #84]	; (8006014 <HAL_RCCEx_PeriphCLKConfig+0x248>)
 8005fc0:	4013      	ands	r3, r2
 8005fc2:	0019      	movs	r1, r3
 8005fc4:	687b      	ldr	r3, [r7, #4]
 8005fc6:	68da      	ldr	r2, [r3, #12]
 8005fc8:	4b0b      	ldr	r3, [pc, #44]	; (8005ff8 <HAL_RCCEx_PeriphCLKConfig+0x22c>)
 8005fca:	430a      	orrs	r2, r1
 8005fcc:	655a      	str	r2, [r3, #84]	; 0x54

    if (PeriphClkInit->I2s1ClockSelection == RCC_I2S1CLKSOURCE_PLL)
 8005fce:	687b      	ldr	r3, [r7, #4]
 8005fd0:	68da      	ldr	r2, [r3, #12]
 8005fd2:	2380      	movs	r3, #128	; 0x80
 8005fd4:	01db      	lsls	r3, r3, #7
 8005fd6:	429a      	cmp	r2, r3
 8005fd8:	d106      	bne.n	8005fe8 <HAL_RCCEx_PeriphCLKConfig+0x21c>
    {
      /* Enable PLLPCLK output */
      __HAL_RCC_PLLCLKOUT_ENABLE(RCC_PLLPCLK);
 8005fda:	4b07      	ldr	r3, [pc, #28]	; (8005ff8 <HAL_RCCEx_PeriphCLKConfig+0x22c>)
 8005fdc:	68da      	ldr	r2, [r3, #12]
 8005fde:	4b06      	ldr	r3, [pc, #24]	; (8005ff8 <HAL_RCCEx_PeriphCLKConfig+0x22c>)
 8005fe0:	2180      	movs	r1, #128	; 0x80
 8005fe2:	0249      	lsls	r1, r1, #9
 8005fe4:	430a      	orrs	r2, r1
 8005fe6:	60da      	str	r2, [r3, #12]
      __HAL_RCC_PLLCLKOUT_ENABLE(RCC_PLLQCLK);
    }
  }
#endif /* FDCAN1 || FDCAN2 */

  return status;
 8005fe8:	2312      	movs	r3, #18
 8005fea:	18fb      	adds	r3, r7, r3
 8005fec:	781b      	ldrb	r3, [r3, #0]
}
 8005fee:	0018      	movs	r0, r3
 8005ff0:	46bd      	mov	sp, r7
 8005ff2:	b006      	add	sp, #24
 8005ff4:	bd80      	pop	{r7, pc}
 8005ff6:	46c0      	nop			; (mov r8, r8)
 8005ff8:	40021000 	.word	0x40021000
 8005ffc:	40007000 	.word	0x40007000
 8006000:	fffffcff 	.word	0xfffffcff
 8006004:	fffeffff 	.word	0xfffeffff
 8006008:	00001388 	.word	0x00001388
 800600c:	efffffff 	.word	0xefffffff
 8006010:	ffffcfff 	.word	0xffffcfff
 8006014:	ffff3fff 	.word	0xffff3fff

08006018 <HAL_RTC_Init>:
  * @brief  Initialize the RTC peripheral
  * @param  hrtc RTC handle
  * @retval HAL status
  */
HAL_StatusTypeDef HAL_RTC_Init(RTC_HandleTypeDef *hrtc)
{
 8006018:	b5b0      	push	{r4, r5, r7, lr}
 800601a:	b084      	sub	sp, #16
 800601c:	af00      	add	r7, sp, #0
 800601e:	6078      	str	r0, [r7, #4]
  HAL_StatusTypeDef status = HAL_ERROR;
 8006020:	230f      	movs	r3, #15
 8006022:	18fb      	adds	r3, r7, r3
 8006024:	2201      	movs	r2, #1
 8006026:	701a      	strb	r2, [r3, #0]

  /* Check the RTC peripheral state */
  if(hrtc != NULL)
 8006028:	687b      	ldr	r3, [r7, #4]
 800602a:	2b00      	cmp	r3, #0
 800602c:	d100      	bne.n	8006030 <HAL_RTC_Init+0x18>
 800602e:	e08c      	b.n	800614a <HAL_RTC_Init+0x132>
    assert_param(IS_RTC_OUTPUT_REMAP(hrtc->Init.OutPutRemap));
    assert_param(IS_RTC_OUTPUT_POL(hrtc->Init.OutPutPolarity));
    assert_param(IS_RTC_OUTPUT_TYPE(hrtc->Init.OutPutType));
    assert_param(IS_RTC_OUTPUT_PULLUP(hrtc->Init.OutPutPullUp));

    if(hrtc->State == HAL_RTC_STATE_RESET)
 8006030:	687b      	ldr	r3, [r7, #4]
 8006032:	2229      	movs	r2, #41	; 0x29
 8006034:	5c9b      	ldrb	r3, [r3, r2]
 8006036:	b2db      	uxtb	r3, r3
 8006038:	2b00      	cmp	r3, #0
 800603a:	d10b      	bne.n	8006054 <HAL_RTC_Init+0x3c>
    {
      /* Allocate lock resource and initialize it */
      hrtc->Lock = HAL_UNLOCKED;
 800603c:	687b      	ldr	r3, [r7, #4]
 800603e:	2228      	movs	r2, #40	; 0x28
 8006040:	2100      	movs	r1, #0
 8006042:	5499      	strb	r1, [r3, r2]

      /* Process TAMP peripheral offset from RTC one */
      hrtc->TampOffset = (TAMP_BASE - RTC_BASE);
 8006044:	687b      	ldr	r3, [r7, #4]
 8006046:	2288      	movs	r2, #136	; 0x88
 8006048:	0212      	lsls	r2, r2, #8
 800604a:	605a      	str	r2, [r3, #4]
      {
        hrtc->MspDeInitCallback = HAL_RTC_MspDeInit;
      }
#else
      /* Initialize RTC MSP */
      HAL_RTC_MspInit(hrtc);
 800604c:	687b      	ldr	r3, [r7, #4]
 800604e:	0018      	movs	r0, r3
 8006050:	f7fe fbe4 	bl	800481c <HAL_RTC_MspInit>
#endif /* (USE_HAL_RTC_REGISTER_CALLBACKS) */
    }

    /* Set RTC state */
    hrtc->State = HAL_RTC_STATE_BUSY;
 8006054:	687b      	ldr	r3, [r7, #4]
 8006056:	2229      	movs	r2, #41	; 0x29
 8006058:	2102      	movs	r1, #2
 800605a:	5499      	strb	r1, [r3, r2]

    /* Check whether the calendar needs to be initialized */
    if (__HAL_RTC_IS_CALENDAR_INITIALIZED(hrtc) == 0U)
 800605c:	687b      	ldr	r3, [r7, #4]
 800605e:	681b      	ldr	r3, [r3, #0]
 8006060:	68db      	ldr	r3, [r3, #12]
 8006062:	2210      	movs	r2, #16
 8006064:	4013      	ands	r3, r2
 8006066:	2b10      	cmp	r3, #16
 8006068:	d062      	beq.n	8006130 <HAL_RTC_Init+0x118>
    {
      /* Disable the write protection for RTC registers */
      __HAL_RTC_WRITEPROTECTION_DISABLE(hrtc);
 800606a:	687b      	ldr	r3, [r7, #4]
 800606c:	681b      	ldr	r3, [r3, #0]
 800606e:	22ca      	movs	r2, #202	; 0xca
 8006070:	625a      	str	r2, [r3, #36]	; 0x24
 8006072:	687b      	ldr	r3, [r7, #4]
 8006074:	681b      	ldr	r3, [r3, #0]
 8006076:	2253      	movs	r2, #83	; 0x53
 8006078:	625a      	str	r2, [r3, #36]	; 0x24

      /* Enter Initialization mode */
      status = RTC_EnterInitMode(hrtc);
 800607a:	250f      	movs	r5, #15
 800607c:	197c      	adds	r4, r7, r5
 800607e:	687b      	ldr	r3, [r7, #4]
 8006080:	0018      	movs	r0, r3
 8006082:	f000 f9cb 	bl	800641c <RTC_EnterInitMode>
 8006086:	0003      	movs	r3, r0
 8006088:	7023      	strb	r3, [r4, #0]

      if(status == HAL_OK)
 800608a:	0028      	movs	r0, r5
 800608c:	183b      	adds	r3, r7, r0
 800608e:	781b      	ldrb	r3, [r3, #0]
 8006090:	2b00      	cmp	r3, #0
 8006092:	d12c      	bne.n	80060ee <HAL_RTC_Init+0xd6>
      {
        /* Clear RTC_CR FMT, OSEL and POL Bits */
        hrtc->Instance->CR &= ~(RTC_CR_FMT | RTC_CR_POL | RTC_CR_OSEL | RTC_CR_TAMPOE);
 8006094:	687b      	ldr	r3, [r7, #4]
 8006096:	681b      	ldr	r3, [r3, #0]
 8006098:	699a      	ldr	r2, [r3, #24]
 800609a:	687b      	ldr	r3, [r7, #4]
 800609c:	681b      	ldr	r3, [r3, #0]
 800609e:	492e      	ldr	r1, [pc, #184]	; (8006158 <HAL_RTC_Init+0x140>)
 80060a0:	400a      	ands	r2, r1
 80060a2:	619a      	str	r2, [r3, #24]
        /* Set RTC_CR register */
        hrtc->Instance->CR |= (hrtc->Init.HourFormat | hrtc->Init.OutPut | hrtc->Init.OutPutPolarity);
 80060a4:	687b      	ldr	r3, [r7, #4]
 80060a6:	681b      	ldr	r3, [r3, #0]
 80060a8:	6999      	ldr	r1, [r3, #24]
 80060aa:	687b      	ldr	r3, [r7, #4]
 80060ac:	689a      	ldr	r2, [r3, #8]
 80060ae:	687b      	ldr	r3, [r7, #4]
 80060b0:	695b      	ldr	r3, [r3, #20]
 80060b2:	431a      	orrs	r2, r3
 80060b4:	687b      	ldr	r3, [r7, #4]
 80060b6:	69db      	ldr	r3, [r3, #28]
 80060b8:	431a      	orrs	r2, r3
 80060ba:	687b      	ldr	r3, [r7, #4]
 80060bc:	681b      	ldr	r3, [r3, #0]
 80060be:	430a      	orrs	r2, r1
 80060c0:	619a      	str	r2, [r3, #24]

        /* Configure the RTC PRER */
        hrtc->Instance->PRER = (hrtc->Init.SynchPrediv);
 80060c2:	687b      	ldr	r3, [r7, #4]
 80060c4:	681b      	ldr	r3, [r3, #0]
 80060c6:	687a      	ldr	r2, [r7, #4]
 80060c8:	6912      	ldr	r2, [r2, #16]
 80060ca:	611a      	str	r2, [r3, #16]
        hrtc->Instance->PRER |= (hrtc->Init.AsynchPrediv << RTC_PRER_PREDIV_A_Pos);
 80060cc:	687b      	ldr	r3, [r7, #4]
 80060ce:	681b      	ldr	r3, [r3, #0]
 80060d0:	6919      	ldr	r1, [r3, #16]
 80060d2:	687b      	ldr	r3, [r7, #4]
 80060d4:	68db      	ldr	r3, [r3, #12]
 80060d6:	041a      	lsls	r2, r3, #16
 80060d8:	687b      	ldr	r3, [r7, #4]
 80060da:	681b      	ldr	r3, [r3, #0]
 80060dc:	430a      	orrs	r2, r1
 80060de:	611a      	str	r2, [r3, #16]

        /* Exit Initialization mode */
        status = RTC_ExitInitMode(hrtc);
 80060e0:	183c      	adds	r4, r7, r0
 80060e2:	687b      	ldr	r3, [r7, #4]
 80060e4:	0018      	movs	r0, r3
 80060e6:	f000 f9db 	bl	80064a0 <RTC_ExitInitMode>
 80060ea:	0003      	movs	r3, r0
 80060ec:	7023      	strb	r3, [r4, #0]
      }

      if (status == HAL_OK)
 80060ee:	230f      	movs	r3, #15
 80060f0:	18fb      	adds	r3, r7, r3
 80060f2:	781b      	ldrb	r3, [r3, #0]
 80060f4:	2b00      	cmp	r3, #0
 80060f6:	d116      	bne.n	8006126 <HAL_RTC_Init+0x10e>
      {
        hrtc->Instance->CR &= ~(RTC_CR_TAMPALRM_PU |RTC_CR_TAMPALRM_TYPE | RTC_CR_OUT2EN);
 80060f8:	687b      	ldr	r3, [r7, #4]
 80060fa:	681b      	ldr	r3, [r3, #0]
 80060fc:	699a      	ldr	r2, [r3, #24]
 80060fe:	687b      	ldr	r3, [r7, #4]
 8006100:	681b      	ldr	r3, [r3, #0]
 8006102:	00d2      	lsls	r2, r2, #3
 8006104:	08d2      	lsrs	r2, r2, #3
 8006106:	619a      	str	r2, [r3, #24]
        hrtc->Instance->CR |= (hrtc->Init.OutPutPullUp | hrtc->Init.OutPutType | hrtc->Init.OutPutRemap);
 8006108:	687b      	ldr	r3, [r7, #4]
 800610a:	681b      	ldr	r3, [r3, #0]
 800610c:	6999      	ldr	r1, [r3, #24]
 800610e:	687b      	ldr	r3, [r7, #4]
 8006110:	6a5a      	ldr	r2, [r3, #36]	; 0x24
 8006112:	687b      	ldr	r3, [r7, #4]
 8006114:	6a1b      	ldr	r3, [r3, #32]
 8006116:	431a      	orrs	r2, r3
 8006118:	687b      	ldr	r3, [r7, #4]
 800611a:	699b      	ldr	r3, [r3, #24]
 800611c:	431a      	orrs	r2, r3
 800611e:	687b      	ldr	r3, [r7, #4]
 8006120:	681b      	ldr	r3, [r3, #0]
 8006122:	430a      	orrs	r2, r1
 8006124:	619a      	str	r2, [r3, #24]
      }

      /* Enable the write protection for RTC registers */
      __HAL_RTC_WRITEPROTECTION_ENABLE(hrtc);
 8006126:	687b      	ldr	r3, [r7, #4]
 8006128:	681b      	ldr	r3, [r3, #0]
 800612a:	22ff      	movs	r2, #255	; 0xff
 800612c:	625a      	str	r2, [r3, #36]	; 0x24
 800612e:	e003      	b.n	8006138 <HAL_RTC_Init+0x120>
    }
    else
    {
      /* The calendar is already initialized */
      status = HAL_OK;
 8006130:	230f      	movs	r3, #15
 8006132:	18fb      	adds	r3, r7, r3
 8006134:	2200      	movs	r2, #0
 8006136:	701a      	strb	r2, [r3, #0]
    }

    if (status == HAL_OK)
 8006138:	230f      	movs	r3, #15
 800613a:	18fb      	adds	r3, r7, r3
 800613c:	781b      	ldrb	r3, [r3, #0]
 800613e:	2b00      	cmp	r3, #0
 8006140:	d103      	bne.n	800614a <HAL_RTC_Init+0x132>
    {
      hrtc->State = HAL_RTC_STATE_READY;
 8006142:	687b      	ldr	r3, [r7, #4]
 8006144:	2229      	movs	r2, #41	; 0x29
 8006146:	2101      	movs	r1, #1
 8006148:	5499      	strb	r1, [r3, r2]
    }
  }

  return status;
 800614a:	230f      	movs	r3, #15
 800614c:	18fb      	adds	r3, r7, r3
 800614e:	781b      	ldrb	r3, [r3, #0]
}
 8006150:	0018      	movs	r0, r3
 8006152:	46bd      	mov	sp, r7
 8006154:	b004      	add	sp, #16
 8006156:	bdb0      	pop	{r4, r5, r7, pc}
 8006158:	fb8fffbf 	.word	0xfb8fffbf

0800615c <HAL_RTC_SetTime>:
  *            @arg RTC_FORMAT_BIN: Binary data format
  *            @arg RTC_FORMAT_BCD: BCD data format
  * @retval HAL status
  */
HAL_StatusTypeDef HAL_RTC_SetTime(RTC_HandleTypeDef *hrtc, RTC_TimeTypeDef *sTime, uint32_t Format)
{
 800615c:	b5b0      	push	{r4, r5, r7, lr}
 800615e:	b086      	sub	sp, #24
 8006160:	af00      	add	r7, sp, #0
 8006162:	60f8      	str	r0, [r7, #12]
 8006164:	60b9      	str	r1, [r7, #8]
 8006166:	607a      	str	r2, [r7, #4]
  assert_param(IS_RTC_FORMAT(Format));
  assert_param(IS_RTC_DAYLIGHT_SAVING(sTime->DayLightSaving));
  assert_param(IS_RTC_STORE_OPERATION(sTime->StoreOperation));

  /* Process Locked */
  __HAL_LOCK(hrtc);
 8006168:	68fb      	ldr	r3, [r7, #12]
 800616a:	2228      	movs	r2, #40	; 0x28
 800616c:	5c9b      	ldrb	r3, [r3, r2]
 800616e:	2b01      	cmp	r3, #1
 8006170:	d101      	bne.n	8006176 <HAL_RTC_SetTime+0x1a>
 8006172:	2302      	movs	r3, #2
 8006174:	e092      	b.n	800629c <HAL_RTC_SetTime+0x140>
 8006176:	68fb      	ldr	r3, [r7, #12]
 8006178:	2228      	movs	r2, #40	; 0x28
 800617a:	2101      	movs	r1, #1
 800617c:	5499      	strb	r1, [r3, r2]

  hrtc->State = HAL_RTC_STATE_BUSY;
 800617e:	68fb      	ldr	r3, [r7, #12]
 8006180:	2229      	movs	r2, #41	; 0x29
 8006182:	2102      	movs	r1, #2
 8006184:	5499      	strb	r1, [r3, r2]

  /* Disable the write protection for RTC registers */
  __HAL_RTC_WRITEPROTECTION_DISABLE(hrtc);
 8006186:	68fb      	ldr	r3, [r7, #12]
 8006188:	681b      	ldr	r3, [r3, #0]
 800618a:	22ca      	movs	r2, #202	; 0xca
 800618c:	625a      	str	r2, [r3, #36]	; 0x24
 800618e:	68fb      	ldr	r3, [r7, #12]
 8006190:	681b      	ldr	r3, [r3, #0]
 8006192:	2253      	movs	r2, #83	; 0x53
 8006194:	625a      	str	r2, [r3, #36]	; 0x24

  /* Enter Initialization mode */
  status = RTC_EnterInitMode(hrtc);
 8006196:	2513      	movs	r5, #19
 8006198:	197c      	adds	r4, r7, r5
 800619a:	68fb      	ldr	r3, [r7, #12]
 800619c:	0018      	movs	r0, r3
 800619e:	f000 f93d 	bl	800641c <RTC_EnterInitMode>
 80061a2:	0003      	movs	r3, r0
 80061a4:	7023      	strb	r3, [r4, #0]
  if(status == HAL_OK)
 80061a6:	197b      	adds	r3, r7, r5
 80061a8:	781b      	ldrb	r3, [r3, #0]
 80061aa:	2b00      	cmp	r3, #0
 80061ac:	d162      	bne.n	8006274 <HAL_RTC_SetTime+0x118>
  {
    if(Format == RTC_FORMAT_BIN)
 80061ae:	687b      	ldr	r3, [r7, #4]
 80061b0:	2b00      	cmp	r3, #0
 80061b2:	d125      	bne.n	8006200 <HAL_RTC_SetTime+0xa4>
    {
      if((hrtc->Instance->CR & RTC_CR_FMT) != 0U)
 80061b4:	68fb      	ldr	r3, [r7, #12]
 80061b6:	681b      	ldr	r3, [r3, #0]
 80061b8:	699b      	ldr	r3, [r3, #24]
 80061ba:	2240      	movs	r2, #64	; 0x40
 80061bc:	4013      	ands	r3, r2
 80061be:	d102      	bne.n	80061c6 <HAL_RTC_SetTime+0x6a>
        assert_param(IS_RTC_HOUR12(sTime->Hours));
        assert_param(IS_RTC_HOURFORMAT12(sTime->TimeFormat));
      }
      else
      {
        sTime->TimeFormat = 0x00U;
 80061c0:	68bb      	ldr	r3, [r7, #8]
 80061c2:	2200      	movs	r2, #0
 80061c4:	70da      	strb	r2, [r3, #3]
        assert_param(IS_RTC_HOUR24(sTime->Hours));
      }
      assert_param(IS_RTC_MINUTES(sTime->Minutes));
      assert_param(IS_RTC_SECONDS(sTime->Seconds));

      tmpreg = (uint32_t)(((uint32_t)RTC_ByteToBcd2(sTime->Hours) << RTC_TR_HU_Pos) | \
 80061c6:	68bb      	ldr	r3, [r7, #8]
 80061c8:	781b      	ldrb	r3, [r3, #0]
 80061ca:	0018      	movs	r0, r3
 80061cc:	f000 f9ac 	bl	8006528 <RTC_ByteToBcd2>
 80061d0:	0003      	movs	r3, r0
 80061d2:	041c      	lsls	r4, r3, #16
                          ((uint32_t)RTC_ByteToBcd2(sTime->Minutes) << RTC_TR_MNU_Pos) | \
 80061d4:	68bb      	ldr	r3, [r7, #8]
 80061d6:	785b      	ldrb	r3, [r3, #1]
 80061d8:	0018      	movs	r0, r3
 80061da:	f000 f9a5 	bl	8006528 <RTC_ByteToBcd2>
 80061de:	0003      	movs	r3, r0
 80061e0:	021b      	lsls	r3, r3, #8
      tmpreg = (uint32_t)(((uint32_t)RTC_ByteToBcd2(sTime->Hours) << RTC_TR_HU_Pos) | \
 80061e2:	431c      	orrs	r4, r3
                          ((uint32_t)RTC_ByteToBcd2(sTime->Seconds) << RTC_TR_SU_Pos) | \
 80061e4:	68bb      	ldr	r3, [r7, #8]
 80061e6:	789b      	ldrb	r3, [r3, #2]
 80061e8:	0018      	movs	r0, r3
 80061ea:	f000 f99d 	bl	8006528 <RTC_ByteToBcd2>
 80061ee:	0003      	movs	r3, r0
                          ((uint32_t)RTC_ByteToBcd2(sTime->Minutes) << RTC_TR_MNU_Pos) | \
 80061f0:	0022      	movs	r2, r4
 80061f2:	431a      	orrs	r2, r3
                          (((uint32_t)sTime->TimeFormat) << RTC_TR_PM_Pos));
 80061f4:	68bb      	ldr	r3, [r7, #8]
 80061f6:	78db      	ldrb	r3, [r3, #3]
 80061f8:	059b      	lsls	r3, r3, #22
      tmpreg = (uint32_t)(((uint32_t)RTC_ByteToBcd2(sTime->Hours) << RTC_TR_HU_Pos) | \
 80061fa:	4313      	orrs	r3, r2
 80061fc:	617b      	str	r3, [r7, #20]
 80061fe:	e017      	b.n	8006230 <HAL_RTC_SetTime+0xd4>
    }
    else
    {
      if((hrtc->Instance->CR & RTC_CR_FMT) != 0U)
 8006200:	68fb      	ldr	r3, [r7, #12]
 8006202:	681b      	ldr	r3, [r3, #0]
 8006204:	699b      	ldr	r3, [r3, #24]
 8006206:	2240      	movs	r2, #64	; 0x40
 8006208:	4013      	ands	r3, r2
 800620a:	d102      	bne.n	8006212 <HAL_RTC_SetTime+0xb6>
        assert_param(IS_RTC_HOUR12(RTC_Bcd2ToByte(sTime->Hours)));
        assert_param(IS_RTC_HOURFORMAT12(sTime->TimeFormat));
      }
      else
      {
        sTime->TimeFormat = 0x00U;
 800620c:	68bb      	ldr	r3, [r7, #8]
 800620e:	2200      	movs	r2, #0
 8006210:	70da      	strb	r2, [r3, #3]
        assert_param(IS_RTC_HOUR24(RTC_Bcd2ToByte(sTime->Hours)));
      }
      assert_param(IS_RTC_MINUTES(RTC_Bcd2ToByte(sTime->Minutes)));
      assert_param(IS_RTC_SECONDS(RTC_Bcd2ToByte(sTime->Seconds)));
      tmpreg = (((uint32_t)(sTime->Hours) << RTC_TR_HU_Pos) | \
 8006212:	68bb      	ldr	r3, [r7, #8]
 8006214:	781b      	ldrb	r3, [r3, #0]
 8006216:	041a      	lsls	r2, r3, #16
                ((uint32_t)(sTime->Minutes) << RTC_TR_MNU_Pos) | \
 8006218:	68bb      	ldr	r3, [r7, #8]
 800621a:	785b      	ldrb	r3, [r3, #1]
 800621c:	021b      	lsls	r3, r3, #8
      tmpreg = (((uint32_t)(sTime->Hours) << RTC_TR_HU_Pos) | \
 800621e:	4313      	orrs	r3, r2
                ((uint32_t)(sTime->Seconds) << RTC_TR_SU_Pos) | \
 8006220:	68ba      	ldr	r2, [r7, #8]
 8006222:	7892      	ldrb	r2, [r2, #2]
                ((uint32_t)(sTime->Minutes) << RTC_TR_MNU_Pos) | \
 8006224:	431a      	orrs	r2, r3
                ((uint32_t)(sTime->TimeFormat) << RTC_TR_PM_Pos));
 8006226:	68bb      	ldr	r3, [r7, #8]
 8006228:	78db      	ldrb	r3, [r3, #3]
 800622a:	059b      	lsls	r3, r3, #22
      tmpreg = (((uint32_t)(sTime->Hours) << RTC_TR_HU_Pos) | \
 800622c:	4313      	orrs	r3, r2
 800622e:	617b      	str	r3, [r7, #20]
    }

    /* Set the RTC_TR register */
    hrtc->Instance->TR = (uint32_t)(tmpreg & RTC_TR_RESERVED_MASK);
 8006230:	68fb      	ldr	r3, [r7, #12]
 8006232:	681b      	ldr	r3, [r3, #0]
 8006234:	697a      	ldr	r2, [r7, #20]
 8006236:	491b      	ldr	r1, [pc, #108]	; (80062a4 <HAL_RTC_SetTime+0x148>)
 8006238:	400a      	ands	r2, r1
 800623a:	601a      	str	r2, [r3, #0]

    /* This interface is deprecated. To manage Daylight Saving Time, please use HAL_RTC_DST_xxx functions */
    hrtc->Instance->CR &= ((uint32_t)~RTC_CR_BKP);
 800623c:	68fb      	ldr	r3, [r7, #12]
 800623e:	681b      	ldr	r3, [r3, #0]
 8006240:	699a      	ldr	r2, [r3, #24]
 8006242:	68fb      	ldr	r3, [r7, #12]
 8006244:	681b      	ldr	r3, [r3, #0]
 8006246:	4918      	ldr	r1, [pc, #96]	; (80062a8 <HAL_RTC_SetTime+0x14c>)
 8006248:	400a      	ands	r2, r1
 800624a:	619a      	str	r2, [r3, #24]

    /* This interface is deprecated. To manage Daylight Saving Time, please use HAL_RTC_DST_xxx functions */
    hrtc->Instance->CR |= (uint32_t)(sTime->DayLightSaving | sTime->StoreOperation);
 800624c:	68fb      	ldr	r3, [r7, #12]
 800624e:	681b      	ldr	r3, [r3, #0]
 8006250:	6999      	ldr	r1, [r3, #24]
 8006252:	68bb      	ldr	r3, [r7, #8]
 8006254:	68da      	ldr	r2, [r3, #12]
 8006256:	68bb      	ldr	r3, [r7, #8]
 8006258:	691b      	ldr	r3, [r3, #16]
 800625a:	431a      	orrs	r2, r3
 800625c:	68fb      	ldr	r3, [r7, #12]
 800625e:	681b      	ldr	r3, [r3, #0]
 8006260:	430a      	orrs	r2, r1
 8006262:	619a      	str	r2, [r3, #24]

    /* Exit Initialization mode */
    status = RTC_ExitInitMode(hrtc);
 8006264:	2313      	movs	r3, #19
 8006266:	18fc      	adds	r4, r7, r3
 8006268:	68fb      	ldr	r3, [r7, #12]
 800626a:	0018      	movs	r0, r3
 800626c:	f000 f918 	bl	80064a0 <RTC_ExitInitMode>
 8006270:	0003      	movs	r3, r0
 8006272:	7023      	strb	r3, [r4, #0]
  }

  /* Enable the write protection for RTC registers */
  __HAL_RTC_WRITEPROTECTION_ENABLE(hrtc);
 8006274:	68fb      	ldr	r3, [r7, #12]
 8006276:	681b      	ldr	r3, [r3, #0]
 8006278:	22ff      	movs	r2, #255	; 0xff
 800627a:	625a      	str	r2, [r3, #36]	; 0x24
  
  if (status == HAL_OK)
 800627c:	2313      	movs	r3, #19
 800627e:	18fb      	adds	r3, r7, r3
 8006280:	781b      	ldrb	r3, [r3, #0]
 8006282:	2b00      	cmp	r3, #0
 8006284:	d103      	bne.n	800628e <HAL_RTC_SetTime+0x132>
  {
   hrtc->State = HAL_RTC_STATE_READY;
 8006286:	68fb      	ldr	r3, [r7, #12]
 8006288:	2229      	movs	r2, #41	; 0x29
 800628a:	2101      	movs	r1, #1
 800628c:	5499      	strb	r1, [r3, r2]
  }

  /* Process Unlocked */
  __HAL_UNLOCK(hrtc);
 800628e:	68fb      	ldr	r3, [r7, #12]
 8006290:	2228      	movs	r2, #40	; 0x28
 8006292:	2100      	movs	r1, #0
 8006294:	5499      	strb	r1, [r3, r2]

  return status;
 8006296:	2313      	movs	r3, #19
 8006298:	18fb      	adds	r3, r7, r3
 800629a:	781b      	ldrb	r3, [r3, #0]
}
 800629c:	0018      	movs	r0, r3
 800629e:	46bd      	mov	sp, r7
 80062a0:	b006      	add	sp, #24
 80062a2:	bdb0      	pop	{r4, r5, r7, pc}
 80062a4:	007f7f7f 	.word	0x007f7f7f
 80062a8:	fffbffff 	.word	0xfffbffff

080062ac <HAL_RTC_SetDate>:
  *            @arg RTC_FORMAT_BIN: Binary data format
  *            @arg RTC_FORMAT_BCD: BCD data format
  * @retval HAL status
  */
HAL_StatusTypeDef HAL_RTC_SetDate(RTC_HandleTypeDef *hrtc, RTC_DateTypeDef *sDate, uint32_t Format)
{
 80062ac:	b5b0      	push	{r4, r5, r7, lr}
 80062ae:	b086      	sub	sp, #24
 80062b0:	af00      	add	r7, sp, #0
 80062b2:	60f8      	str	r0, [r7, #12]
 80062b4:	60b9      	str	r1, [r7, #8]
 80062b6:	607a      	str	r2, [r7, #4]

 /* Check the parameters */
  assert_param(IS_RTC_FORMAT(Format));

 /* Process Locked */
 __HAL_LOCK(hrtc);
 80062b8:	68fb      	ldr	r3, [r7, #12]
 80062ba:	2228      	movs	r2, #40	; 0x28
 80062bc:	5c9b      	ldrb	r3, [r3, r2]
 80062be:	2b01      	cmp	r3, #1
 80062c0:	d101      	bne.n	80062c6 <HAL_RTC_SetDate+0x1a>
 80062c2:	2302      	movs	r3, #2
 80062c4:	e07e      	b.n	80063c4 <HAL_RTC_SetDate+0x118>
 80062c6:	68fb      	ldr	r3, [r7, #12]
 80062c8:	2228      	movs	r2, #40	; 0x28
 80062ca:	2101      	movs	r1, #1
 80062cc:	5499      	strb	r1, [r3, r2]

  hrtc->State = HAL_RTC_STATE_BUSY;
 80062ce:	68fb      	ldr	r3, [r7, #12]
 80062d0:	2229      	movs	r2, #41	; 0x29
 80062d2:	2102      	movs	r1, #2
 80062d4:	5499      	strb	r1, [r3, r2]

  if((Format == RTC_FORMAT_BIN) && ((sDate->Month & 0x10U) == 0x10U))
 80062d6:	687b      	ldr	r3, [r7, #4]
 80062d8:	2b00      	cmp	r3, #0
 80062da:	d10e      	bne.n	80062fa <HAL_RTC_SetDate+0x4e>
 80062dc:	68bb      	ldr	r3, [r7, #8]
 80062de:	785b      	ldrb	r3, [r3, #1]
 80062e0:	001a      	movs	r2, r3
 80062e2:	2310      	movs	r3, #16
 80062e4:	4013      	ands	r3, r2
 80062e6:	d008      	beq.n	80062fa <HAL_RTC_SetDate+0x4e>
  {
    sDate->Month = (uint8_t)((sDate->Month & (uint8_t)~(0x10U)) + (uint8_t)0x0AU);
 80062e8:	68bb      	ldr	r3, [r7, #8]
 80062ea:	785b      	ldrb	r3, [r3, #1]
 80062ec:	2210      	movs	r2, #16
 80062ee:	4393      	bics	r3, r2
 80062f0:	b2db      	uxtb	r3, r3
 80062f2:	330a      	adds	r3, #10
 80062f4:	b2da      	uxtb	r2, r3
 80062f6:	68bb      	ldr	r3, [r7, #8]
 80062f8:	705a      	strb	r2, [r3, #1]
  }

  assert_param(IS_RTC_WEEKDAY(sDate->WeekDay));

  if(Format == RTC_FORMAT_BIN)
 80062fa:	687b      	ldr	r3, [r7, #4]
 80062fc:	2b00      	cmp	r3, #0
 80062fe:	d11c      	bne.n	800633a <HAL_RTC_SetDate+0x8e>
  {
    assert_param(IS_RTC_YEAR(sDate->Year));
    assert_param(IS_RTC_MONTH(sDate->Month));
    assert_param(IS_RTC_DATE(sDate->Date));

   datetmpreg = (((uint32_t)RTC_ByteToBcd2(sDate->Year)  << RTC_DR_YU_Pos) | \
 8006300:	68bb      	ldr	r3, [r7, #8]
 8006302:	78db      	ldrb	r3, [r3, #3]
 8006304:	0018      	movs	r0, r3
 8006306:	f000 f90f 	bl	8006528 <RTC_ByteToBcd2>
 800630a:	0003      	movs	r3, r0
 800630c:	041c      	lsls	r4, r3, #16
                 ((uint32_t)RTC_ByteToBcd2(sDate->Month) << RTC_DR_MU_Pos) | \
 800630e:	68bb      	ldr	r3, [r7, #8]
 8006310:	785b      	ldrb	r3, [r3, #1]
 8006312:	0018      	movs	r0, r3
 8006314:	f000 f908 	bl	8006528 <RTC_ByteToBcd2>
 8006318:	0003      	movs	r3, r0
 800631a:	021b      	lsls	r3, r3, #8
   datetmpreg = (((uint32_t)RTC_ByteToBcd2(sDate->Year)  << RTC_DR_YU_Pos) | \
 800631c:	431c      	orrs	r4, r3
                 ((uint32_t)RTC_ByteToBcd2(sDate->Date)  << RTC_DR_DU_Pos) | \
 800631e:	68bb      	ldr	r3, [r7, #8]
 8006320:	789b      	ldrb	r3, [r3, #2]
 8006322:	0018      	movs	r0, r3
 8006324:	f000 f900 	bl	8006528 <RTC_ByteToBcd2>
 8006328:	0003      	movs	r3, r0
                 ((uint32_t)RTC_ByteToBcd2(sDate->Month) << RTC_DR_MU_Pos) | \
 800632a:	0022      	movs	r2, r4
 800632c:	431a      	orrs	r2, r3
                 ((uint32_t)sDate->WeekDay << RTC_DR_WDU_Pos));
 800632e:	68bb      	ldr	r3, [r7, #8]
 8006330:	781b      	ldrb	r3, [r3, #0]
 8006332:	035b      	lsls	r3, r3, #13
   datetmpreg = (((uint32_t)RTC_ByteToBcd2(sDate->Year)  << RTC_DR_YU_Pos) | \
 8006334:	4313      	orrs	r3, r2
 8006336:	617b      	str	r3, [r7, #20]
 8006338:	e00e      	b.n	8006358 <HAL_RTC_SetDate+0xac>
  {
    assert_param(IS_RTC_YEAR(RTC_Bcd2ToByte(sDate->Year)));
    assert_param(IS_RTC_MONTH(RTC_Bcd2ToByte(sDate->Month)));
    assert_param(IS_RTC_DATE(RTC_Bcd2ToByte(sDate->Date)));

    datetmpreg = ((((uint32_t)sDate->Year) << RTC_DR_YU_Pos) | \
 800633a:	68bb      	ldr	r3, [r7, #8]
 800633c:	78db      	ldrb	r3, [r3, #3]
 800633e:	041a      	lsls	r2, r3, #16
                  (((uint32_t)sDate->Month) << RTC_DR_MU_Pos) | \
 8006340:	68bb      	ldr	r3, [r7, #8]
 8006342:	785b      	ldrb	r3, [r3, #1]
 8006344:	021b      	lsls	r3, r3, #8
    datetmpreg = ((((uint32_t)sDate->Year) << RTC_DR_YU_Pos) | \
 8006346:	4313      	orrs	r3, r2
                  (((uint32_t)sDate->Date) << RTC_DR_DU_Pos)| \
 8006348:	68ba      	ldr	r2, [r7, #8]
 800634a:	7892      	ldrb	r2, [r2, #2]
                  (((uint32_t)sDate->Month) << RTC_DR_MU_Pos) | \
 800634c:	431a      	orrs	r2, r3
                  (((uint32_t)sDate->WeekDay) << RTC_DR_WDU_Pos));
 800634e:	68bb      	ldr	r3, [r7, #8]
 8006350:	781b      	ldrb	r3, [r3, #0]
 8006352:	035b      	lsls	r3, r3, #13
    datetmpreg = ((((uint32_t)sDate->Year) << RTC_DR_YU_Pos) | \
 8006354:	4313      	orrs	r3, r2
 8006356:	617b      	str	r3, [r7, #20]
  }

  /* Disable the write protection for RTC registers */
  __HAL_RTC_WRITEPROTECTION_DISABLE(hrtc);
 8006358:	68fb      	ldr	r3, [r7, #12]
 800635a:	681b      	ldr	r3, [r3, #0]
 800635c:	22ca      	movs	r2, #202	; 0xca
 800635e:	625a      	str	r2, [r3, #36]	; 0x24
 8006360:	68fb      	ldr	r3, [r7, #12]
 8006362:	681b      	ldr	r3, [r3, #0]
 8006364:	2253      	movs	r2, #83	; 0x53
 8006366:	625a      	str	r2, [r3, #36]	; 0x24

  /* Enter Initialization mode */
  status = RTC_EnterInitMode(hrtc);
 8006368:	2513      	movs	r5, #19
 800636a:	197c      	adds	r4, r7, r5
 800636c:	68fb      	ldr	r3, [r7, #12]
 800636e:	0018      	movs	r0, r3
 8006370:	f000 f854 	bl	800641c <RTC_EnterInitMode>
 8006374:	0003      	movs	r3, r0
 8006376:	7023      	strb	r3, [r4, #0]
  if(status == HAL_OK)
 8006378:	0028      	movs	r0, r5
 800637a:	183b      	adds	r3, r7, r0
 800637c:	781b      	ldrb	r3, [r3, #0]
 800637e:	2b00      	cmp	r3, #0
 8006380:	d10c      	bne.n	800639c <HAL_RTC_SetDate+0xf0>
  {
    /* Set the RTC_DR register */
    hrtc->Instance->DR = (uint32_t)(datetmpreg & RTC_DR_RESERVED_MASK);
 8006382:	68fb      	ldr	r3, [r7, #12]
 8006384:	681b      	ldr	r3, [r3, #0]
 8006386:	697a      	ldr	r2, [r7, #20]
 8006388:	4910      	ldr	r1, [pc, #64]	; (80063cc <HAL_RTC_SetDate+0x120>)
 800638a:	400a      	ands	r2, r1
 800638c:	605a      	str	r2, [r3, #4]

    /* Exit Initialization mode */
    status = RTC_ExitInitMode(hrtc);
 800638e:	183c      	adds	r4, r7, r0
 8006390:	68fb      	ldr	r3, [r7, #12]
 8006392:	0018      	movs	r0, r3
 8006394:	f000 f884 	bl	80064a0 <RTC_ExitInitMode>
 8006398:	0003      	movs	r3, r0
 800639a:	7023      	strb	r3, [r4, #0]
  }

  /* Enable the write protection for RTC registers */
  __HAL_RTC_WRITEPROTECTION_ENABLE(hrtc);
 800639c:	68fb      	ldr	r3, [r7, #12]
 800639e:	681b      	ldr	r3, [r3, #0]
 80063a0:	22ff      	movs	r2, #255	; 0xff
 80063a2:	625a      	str	r2, [r3, #36]	; 0x24

  if (status == HAL_OK)
 80063a4:	2313      	movs	r3, #19
 80063a6:	18fb      	adds	r3, r7, r3
 80063a8:	781b      	ldrb	r3, [r3, #0]
 80063aa:	2b00      	cmp	r3, #0
 80063ac:	d103      	bne.n	80063b6 <HAL_RTC_SetDate+0x10a>
  {
    hrtc->State = HAL_RTC_STATE_READY;
 80063ae:	68fb      	ldr	r3, [r7, #12]
 80063b0:	2229      	movs	r2, #41	; 0x29
 80063b2:	2101      	movs	r1, #1
 80063b4:	5499      	strb	r1, [r3, r2]
  }

  /* Process Unlocked */
  __HAL_UNLOCK(hrtc);
 80063b6:	68fb      	ldr	r3, [r7, #12]
 80063b8:	2228      	movs	r2, #40	; 0x28
 80063ba:	2100      	movs	r1, #0
 80063bc:	5499      	strb	r1, [r3, r2]

  return status;
 80063be:	2313      	movs	r3, #19
 80063c0:	18fb      	adds	r3, r7, r3
 80063c2:	781b      	ldrb	r3, [r3, #0]
}
 80063c4:	0018      	movs	r0, r3
 80063c6:	46bd      	mov	sp, r7
 80063c8:	b006      	add	sp, #24
 80063ca:	bdb0      	pop	{r4, r5, r7, pc}
 80063cc:	00ffff3f 	.word	0x00ffff3f

080063d0 <HAL_RTC_WaitForSynchro>:
  *         correctly copied into the RTC_TR and RTC_DR shadow registers.
  * @param  hrtc RTC handle
  * @retval HAL status
  */
HAL_StatusTypeDef HAL_RTC_WaitForSynchro(RTC_HandleTypeDef* hrtc)
{
 80063d0:	b580      	push	{r7, lr}
 80063d2:	b084      	sub	sp, #16
 80063d4:	af00      	add	r7, sp, #0
 80063d6:	6078      	str	r0, [r7, #4]
  uint32_t tickstart;

  /* Clear RSF flag, keep reserved bits at reset values (setting other flags has no effect) */
  hrtc->Instance->ICSR = ((uint32_t)(RTC_RSF_MASK & RTC_ICSR_RESERVED_MASK));
 80063d8:	687b      	ldr	r3, [r7, #4]
 80063da:	681b      	ldr	r3, [r3, #0]
 80063dc:	4a0e      	ldr	r2, [pc, #56]	; (8006418 <HAL_RTC_WaitForSynchro+0x48>)
 80063de:	60da      	str	r2, [r3, #12]

  tickstart = HAL_GetTick();
 80063e0:	f7fe fc7c 	bl	8004cdc <HAL_GetTick>
 80063e4:	0003      	movs	r3, r0
 80063e6:	60fb      	str	r3, [r7, #12]

  /* Wait the registers to be synchronised */
  while((hrtc->Instance->ICSR & RTC_ICSR_RSF) == 0U)
 80063e8:	e00a      	b.n	8006400 <HAL_RTC_WaitForSynchro+0x30>
  {
    if((HAL_GetTick() - tickstart ) > RTC_TIMEOUT_VALUE)
 80063ea:	f7fe fc77 	bl	8004cdc <HAL_GetTick>
 80063ee:	0002      	movs	r2, r0
 80063f0:	68fb      	ldr	r3, [r7, #12]
 80063f2:	1ad2      	subs	r2, r2, r3
 80063f4:	23fa      	movs	r3, #250	; 0xfa
 80063f6:	009b      	lsls	r3, r3, #2
 80063f8:	429a      	cmp	r2, r3
 80063fa:	d901      	bls.n	8006400 <HAL_RTC_WaitForSynchro+0x30>
    {
      return HAL_TIMEOUT;
 80063fc:	2303      	movs	r3, #3
 80063fe:	e006      	b.n	800640e <HAL_RTC_WaitForSynchro+0x3e>
  while((hrtc->Instance->ICSR & RTC_ICSR_RSF) == 0U)
 8006400:	687b      	ldr	r3, [r7, #4]
 8006402:	681b      	ldr	r3, [r3, #0]
 8006404:	68db      	ldr	r3, [r3, #12]
 8006406:	2220      	movs	r2, #32
 8006408:	4013      	ands	r3, r2
 800640a:	d0ee      	beq.n	80063ea <HAL_RTC_WaitForSynchro+0x1a>
    }
  }

  return HAL_OK;
 800640c:	2300      	movs	r3, #0
}
 800640e:	0018      	movs	r0, r3
 8006410:	46bd      	mov	sp, r7
 8006412:	b004      	add	sp, #16
 8006414:	bd80      	pop	{r7, pc}
 8006416:	46c0      	nop			; (mov r8, r8)
 8006418:	0001005f 	.word	0x0001005f

0800641c <RTC_EnterInitMode>:
  *         __HAL_RTC_WRITEPROTECTION_DISABLE() before calling this function.
  * @param  hrtc RTC handle
  * @retval HAL status
  */
HAL_StatusTypeDef RTC_EnterInitMode(RTC_HandleTypeDef* hrtc)
{
 800641c:	b580      	push	{r7, lr}
 800641e:	b084      	sub	sp, #16
 8006420:	af00      	add	r7, sp, #0
 8006422:	6078      	str	r0, [r7, #4]
  uint32_t tickstart;
  HAL_StatusTypeDef status = HAL_OK;  
 8006424:	230f      	movs	r3, #15
 8006426:	18fb      	adds	r3, r7, r3
 8006428:	2200      	movs	r2, #0
 800642a:	701a      	strb	r2, [r3, #0]

  /* Check if the Initialization mode is set */
  if((hrtc->Instance->ICSR & RTC_ICSR_INITF) == 0U)
 800642c:	687b      	ldr	r3, [r7, #4]
 800642e:	681b      	ldr	r3, [r3, #0]
 8006430:	68db      	ldr	r3, [r3, #12]
 8006432:	2240      	movs	r2, #64	; 0x40
 8006434:	4013      	ands	r3, r2
 8006436:	d12c      	bne.n	8006492 <RTC_EnterInitMode+0x76>
  {
    /* Set the Initialization mode */
    SET_BIT(hrtc->Instance->ICSR, RTC_ICSR_INIT);
 8006438:	687b      	ldr	r3, [r7, #4]
 800643a:	681b      	ldr	r3, [r3, #0]
 800643c:	68da      	ldr	r2, [r3, #12]
 800643e:	687b      	ldr	r3, [r7, #4]
 8006440:	681b      	ldr	r3, [r3, #0]
 8006442:	2180      	movs	r1, #128	; 0x80
 8006444:	430a      	orrs	r2, r1
 8006446:	60da      	str	r2, [r3, #12]

    tickstart = HAL_GetTick();
 8006448:	f7fe fc48 	bl	8004cdc <HAL_GetTick>
 800644c:	0003      	movs	r3, r0
 800644e:	60bb      	str	r3, [r7, #8]
    /* Wait till RTC is in INIT state and if Time out is reached exit */
    while(((hrtc->Instance->ICSR & RTC_ICSR_INITF) == 0U) && (status != HAL_TIMEOUT))
 8006450:	e014      	b.n	800647c <RTC_EnterInitMode+0x60>
    {
      if((HAL_GetTick()  - tickstart ) > RTC_TIMEOUT_VALUE)
 8006452:	f7fe fc43 	bl	8004cdc <HAL_GetTick>
 8006456:	0002      	movs	r2, r0
 8006458:	68bb      	ldr	r3, [r7, #8]
 800645a:	1ad2      	subs	r2, r2, r3
 800645c:	200f      	movs	r0, #15
 800645e:	183b      	adds	r3, r7, r0
 8006460:	1839      	adds	r1, r7, r0
 8006462:	7809      	ldrb	r1, [r1, #0]
 8006464:	7019      	strb	r1, [r3, #0]
 8006466:	23fa      	movs	r3, #250	; 0xfa
 8006468:	009b      	lsls	r3, r3, #2
 800646a:	429a      	cmp	r2, r3
 800646c:	d906      	bls.n	800647c <RTC_EnterInitMode+0x60>
      {
        status = HAL_TIMEOUT;
 800646e:	183b      	adds	r3, r7, r0
 8006470:	2203      	movs	r2, #3
 8006472:	701a      	strb	r2, [r3, #0]
        hrtc->State = HAL_RTC_STATE_TIMEOUT;
 8006474:	687b      	ldr	r3, [r7, #4]
 8006476:	2229      	movs	r2, #41	; 0x29
 8006478:	2103      	movs	r1, #3
 800647a:	5499      	strb	r1, [r3, r2]
    while(((hrtc->Instance->ICSR & RTC_ICSR_INITF) == 0U) && (status != HAL_TIMEOUT))
 800647c:	687b      	ldr	r3, [r7, #4]
 800647e:	681b      	ldr	r3, [r3, #0]
 8006480:	68db      	ldr	r3, [r3, #12]
 8006482:	2240      	movs	r2, #64	; 0x40
 8006484:	4013      	ands	r3, r2
 8006486:	d104      	bne.n	8006492 <RTC_EnterInitMode+0x76>
 8006488:	230f      	movs	r3, #15
 800648a:	18fb      	adds	r3, r7, r3
 800648c:	781b      	ldrb	r3, [r3, #0]
 800648e:	2b03      	cmp	r3, #3
 8006490:	d1df      	bne.n	8006452 <RTC_EnterInitMode+0x36>
      }
    }
  }

  return status;
 8006492:	230f      	movs	r3, #15
 8006494:	18fb      	adds	r3, r7, r3
 8006496:	781b      	ldrb	r3, [r3, #0]
}
 8006498:	0018      	movs	r0, r3
 800649a:	46bd      	mov	sp, r7
 800649c:	b004      	add	sp, #16
 800649e:	bd80      	pop	{r7, pc}

080064a0 <RTC_ExitInitMode>:
  * @brief  Exit the RTC Initialization mode.
  * @param  hrtc RTC handle
  * @retval HAL status
  */
HAL_StatusTypeDef RTC_ExitInitMode(RTC_HandleTypeDef *hrtc)
{
 80064a0:	b590      	push	{r4, r7, lr}
 80064a2:	b085      	sub	sp, #20
 80064a4:	af00      	add	r7, sp, #0
 80064a6:	6078      	str	r0, [r7, #4]
  HAL_StatusTypeDef status = HAL_OK;
 80064a8:	240f      	movs	r4, #15
 80064aa:	193b      	adds	r3, r7, r4
 80064ac:	2200      	movs	r2, #0
 80064ae:	701a      	strb	r2, [r3, #0]

  /* Exit Initialization mode */
  CLEAR_BIT(RTC->ICSR, RTC_ICSR_INIT);
 80064b0:	4b1c      	ldr	r3, [pc, #112]	; (8006524 <RTC_ExitInitMode+0x84>)
 80064b2:	68da      	ldr	r2, [r3, #12]
 80064b4:	4b1b      	ldr	r3, [pc, #108]	; (8006524 <RTC_ExitInitMode+0x84>)
 80064b6:	2180      	movs	r1, #128	; 0x80
 80064b8:	438a      	bics	r2, r1
 80064ba:	60da      	str	r2, [r3, #12]

  /* If CR_BYPSHAD bit = 0, wait for synchro */
  if (READ_BIT(RTC->CR, RTC_CR_BYPSHAD) == 0U)
 80064bc:	4b19      	ldr	r3, [pc, #100]	; (8006524 <RTC_ExitInitMode+0x84>)
 80064be:	699b      	ldr	r3, [r3, #24]
 80064c0:	2220      	movs	r2, #32
 80064c2:	4013      	ands	r3, r2
 80064c4:	d10d      	bne.n	80064e2 <RTC_ExitInitMode+0x42>
  {
    if (HAL_RTC_WaitForSynchro(hrtc) != HAL_OK)
 80064c6:	687b      	ldr	r3, [r7, #4]
 80064c8:	0018      	movs	r0, r3
 80064ca:	f7ff ff81 	bl	80063d0 <HAL_RTC_WaitForSynchro>
 80064ce:	1e03      	subs	r3, r0, #0
 80064d0:	d021      	beq.n	8006516 <RTC_ExitInitMode+0x76>
    {
      hrtc->State = HAL_RTC_STATE_TIMEOUT;
 80064d2:	687b      	ldr	r3, [r7, #4]
 80064d4:	2229      	movs	r2, #41	; 0x29
 80064d6:	2103      	movs	r1, #3
 80064d8:	5499      	strb	r1, [r3, r2]
      status = HAL_TIMEOUT;
 80064da:	193b      	adds	r3, r7, r4
 80064dc:	2203      	movs	r2, #3
 80064de:	701a      	strb	r2, [r3, #0]
 80064e0:	e019      	b.n	8006516 <RTC_ExitInitMode+0x76>
  }
  else /* WA 2.7.1 Calendar initialization may fail in case of consecutive INIT mode entry.
          Please look at STM32G0 Errata sheet on the internet for details. */
  {
    /* Clear BYPSHAD bit */
    CLEAR_BIT(RTC->CR, RTC_CR_BYPSHAD);
 80064e2:	4b10      	ldr	r3, [pc, #64]	; (8006524 <RTC_ExitInitMode+0x84>)
 80064e4:	699a      	ldr	r2, [r3, #24]
 80064e6:	4b0f      	ldr	r3, [pc, #60]	; (8006524 <RTC_ExitInitMode+0x84>)
 80064e8:	2120      	movs	r1, #32
 80064ea:	438a      	bics	r2, r1
 80064ec:	619a      	str	r2, [r3, #24]
    if (HAL_RTC_WaitForSynchro(hrtc) != HAL_OK)
 80064ee:	687b      	ldr	r3, [r7, #4]
 80064f0:	0018      	movs	r0, r3
 80064f2:	f7ff ff6d 	bl	80063d0 <HAL_RTC_WaitForSynchro>
 80064f6:	1e03      	subs	r3, r0, #0
 80064f8:	d007      	beq.n	800650a <RTC_ExitInitMode+0x6a>
    {
      hrtc->State = HAL_RTC_STATE_TIMEOUT;
 80064fa:	687b      	ldr	r3, [r7, #4]
 80064fc:	2229      	movs	r2, #41	; 0x29
 80064fe:	2103      	movs	r1, #3
 8006500:	5499      	strb	r1, [r3, r2]
      status = HAL_TIMEOUT;
 8006502:	230f      	movs	r3, #15
 8006504:	18fb      	adds	r3, r7, r3
 8006506:	2203      	movs	r2, #3
 8006508:	701a      	strb	r2, [r3, #0]
    }
    /* Restore BYPSHAD bit */
    SET_BIT(RTC->CR, RTC_CR_BYPSHAD);
 800650a:	4b06      	ldr	r3, [pc, #24]	; (8006524 <RTC_ExitInitMode+0x84>)
 800650c:	699a      	ldr	r2, [r3, #24]
 800650e:	4b05      	ldr	r3, [pc, #20]	; (8006524 <RTC_ExitInitMode+0x84>)
 8006510:	2120      	movs	r1, #32
 8006512:	430a      	orrs	r2, r1
 8006514:	619a      	str	r2, [r3, #24]
  }

  return status;
 8006516:	230f      	movs	r3, #15
 8006518:	18fb      	adds	r3, r7, r3
 800651a:	781b      	ldrb	r3, [r3, #0]
}
 800651c:	0018      	movs	r0, r3
 800651e:	46bd      	mov	sp, r7
 8006520:	b005      	add	sp, #20
 8006522:	bd90      	pop	{r4, r7, pc}
 8006524:	40002800 	.word	0x40002800

08006528 <RTC_ByteToBcd2>:
  * @brief  Convert a 2 digit decimal to BCD format.
  * @param  Value Byte to be converted
  * @retval Converted byte
  */
uint8_t RTC_ByteToBcd2(uint8_t Value)
{
 8006528:	b580      	push	{r7, lr}
 800652a:	b084      	sub	sp, #16
 800652c:	af00      	add	r7, sp, #0
 800652e:	0002      	movs	r2, r0
 8006530:	1dfb      	adds	r3, r7, #7
 8006532:	701a      	strb	r2, [r3, #0]
  uint32_t bcdhigh = 0U;
 8006534:	2300      	movs	r3, #0
 8006536:	60fb      	str	r3, [r7, #12]
  uint8_t Param = Value;
 8006538:	230b      	movs	r3, #11
 800653a:	18fb      	adds	r3, r7, r3
 800653c:	1dfa      	adds	r2, r7, #7
 800653e:	7812      	ldrb	r2, [r2, #0]
 8006540:	701a      	strb	r2, [r3, #0]

  while(Param >= 10U)
 8006542:	e008      	b.n	8006556 <RTC_ByteToBcd2+0x2e>
  {
    bcdhigh++;
 8006544:	68fb      	ldr	r3, [r7, #12]
 8006546:	3301      	adds	r3, #1
 8006548:	60fb      	str	r3, [r7, #12]
    Param -= 10U;
 800654a:	220b      	movs	r2, #11
 800654c:	18bb      	adds	r3, r7, r2
 800654e:	18ba      	adds	r2, r7, r2
 8006550:	7812      	ldrb	r2, [r2, #0]
 8006552:	3a0a      	subs	r2, #10
 8006554:	701a      	strb	r2, [r3, #0]
  while(Param >= 10U)
 8006556:	210b      	movs	r1, #11
 8006558:	187b      	adds	r3, r7, r1
 800655a:	781b      	ldrb	r3, [r3, #0]
 800655c:	2b09      	cmp	r3, #9
 800655e:	d8f1      	bhi.n	8006544 <RTC_ByteToBcd2+0x1c>
  }

  return  ((uint8_t)(bcdhigh << 4U) | Param);
 8006560:	68fb      	ldr	r3, [r7, #12]
 8006562:	b2db      	uxtb	r3, r3
 8006564:	011b      	lsls	r3, r3, #4
 8006566:	b2da      	uxtb	r2, r3
 8006568:	187b      	adds	r3, r7, r1
 800656a:	781b      	ldrb	r3, [r3, #0]
 800656c:	4313      	orrs	r3, r2
 800656e:	b2db      	uxtb	r3, r3
}
 8006570:	0018      	movs	r0, r3
 8006572:	46bd      	mov	sp, r7
 8006574:	b004      	add	sp, #16
 8006576:	bd80      	pop	{r7, pc}

08006578 <HAL_UART_Init>:
  *        parameters in the UART_InitTypeDef and initialize the associated handle.
  * @param huart UART handle.
  * @retval HAL status
  */
HAL_StatusTypeDef HAL_UART_Init(UART_HandleTypeDef *huart)
{
 8006578:	b580      	push	{r7, lr}
 800657a:	b082      	sub	sp, #8
 800657c:	af00      	add	r7, sp, #0
 800657e:	6078      	str	r0, [r7, #4]
  /* Check the UART handle allocation */
  if (huart == NULL)
 8006580:	687b      	ldr	r3, [r7, #4]
 8006582:	2b00      	cmp	r3, #0
 8006584:	d101      	bne.n	800658a <HAL_UART_Init+0x12>
  {
    return HAL_ERROR;
 8006586:	2301      	movs	r3, #1
 8006588:	e046      	b.n	8006618 <HAL_UART_Init+0xa0>
  {
    /* Check the parameters */
    assert_param((IS_UART_INSTANCE(huart->Instance)) || (IS_LPUART_INSTANCE(huart->Instance)));
  }

  if (huart->gState == HAL_UART_STATE_RESET)
 800658a:	687b      	ldr	r3, [r7, #4]
 800658c:	2288      	movs	r2, #136	; 0x88
 800658e:	589b      	ldr	r3, [r3, r2]
 8006590:	2b00      	cmp	r3, #0
 8006592:	d107      	bne.n	80065a4 <HAL_UART_Init+0x2c>
  {
    /* Allocate lock resource and initialize it */
    huart->Lock = HAL_UNLOCKED;
 8006594:	687b      	ldr	r3, [r7, #4]
 8006596:	2284      	movs	r2, #132	; 0x84
 8006598:	2100      	movs	r1, #0
 800659a:	5499      	strb	r1, [r3, r2]

    /* Init the low level hardware */
    huart->MspInitCallback(huart);
#else
    /* Init the low level hardware : GPIO, CLOCK */
    HAL_UART_MspInit(huart);
 800659c:	687b      	ldr	r3, [r7, #4]
 800659e:	0018      	movs	r0, r3
 80065a0:	f7fe fa54 	bl	8004a4c <HAL_UART_MspInit>
#endif /* (USE_HAL_UART_REGISTER_CALLBACKS) */
  }

  huart->gState = HAL_UART_STATE_BUSY;
 80065a4:	687b      	ldr	r3, [r7, #4]
 80065a6:	2288      	movs	r2, #136	; 0x88
 80065a8:	2124      	movs	r1, #36	; 0x24
 80065aa:	5099      	str	r1, [r3, r2]

  __HAL_UART_DISABLE(huart);
 80065ac:	687b      	ldr	r3, [r7, #4]
 80065ae:	681b      	ldr	r3, [r3, #0]
 80065b0:	681a      	ldr	r2, [r3, #0]
 80065b2:	687b      	ldr	r3, [r7, #4]
 80065b4:	681b      	ldr	r3, [r3, #0]
 80065b6:	2101      	movs	r1, #1
 80065b8:	438a      	bics	r2, r1
 80065ba:	601a      	str	r2, [r3, #0]

  /* Perform advanced settings configuration */
  /* For some items, configuration requires to be done prior TE and RE bits are set */
  if (huart->AdvancedInit.AdvFeatureInit != UART_ADVFEATURE_NO_INIT)
 80065bc:	687b      	ldr	r3, [r7, #4]
 80065be:	6a9b      	ldr	r3, [r3, #40]	; 0x28
 80065c0:	2b00      	cmp	r3, #0
 80065c2:	d003      	beq.n	80065cc <HAL_UART_Init+0x54>
  {
    UART_AdvFeatureConfig(huart);
 80065c4:	687b      	ldr	r3, [r7, #4]
 80065c6:	0018      	movs	r0, r3
 80065c8:	f000 fda6 	bl	8007118 <UART_AdvFeatureConfig>
  }

  /* Set the UART Communication parameters */
  if (UART_SetConfig(huart) == HAL_ERROR)
 80065cc:	687b      	ldr	r3, [r7, #4]
 80065ce:	0018      	movs	r0, r3
 80065d0:	f000 fc38 	bl	8006e44 <UART_SetConfig>
 80065d4:	0003      	movs	r3, r0
 80065d6:	2b01      	cmp	r3, #1
 80065d8:	d101      	bne.n	80065de <HAL_UART_Init+0x66>
  {
    return HAL_ERROR;
 80065da:	2301      	movs	r3, #1
 80065dc:	e01c      	b.n	8006618 <HAL_UART_Init+0xa0>
  }

  /* In asynchronous mode, the following bits must be kept cleared:
  - LINEN and CLKEN bits in the USART_CR2 register,
  - SCEN, HDSEL and IREN  bits in the USART_CR3 register.*/
  CLEAR_BIT(huart->Instance->CR2, (USART_CR2_LINEN | USART_CR2_CLKEN));
 80065de:	687b      	ldr	r3, [r7, #4]
 80065e0:	681b      	ldr	r3, [r3, #0]
 80065e2:	685a      	ldr	r2, [r3, #4]
 80065e4:	687b      	ldr	r3, [r7, #4]
 80065e6:	681b      	ldr	r3, [r3, #0]
 80065e8:	490d      	ldr	r1, [pc, #52]	; (8006620 <HAL_UART_Init+0xa8>)
 80065ea:	400a      	ands	r2, r1
 80065ec:	605a      	str	r2, [r3, #4]
  CLEAR_BIT(huart->Instance->CR3, (USART_CR3_SCEN | USART_CR3_HDSEL | USART_CR3_IREN));
 80065ee:	687b      	ldr	r3, [r7, #4]
 80065f0:	681b      	ldr	r3, [r3, #0]
 80065f2:	689a      	ldr	r2, [r3, #8]
 80065f4:	687b      	ldr	r3, [r7, #4]
 80065f6:	681b      	ldr	r3, [r3, #0]
 80065f8:	212a      	movs	r1, #42	; 0x2a
 80065fa:	438a      	bics	r2, r1
 80065fc:	609a      	str	r2, [r3, #8]

  __HAL_UART_ENABLE(huart);
 80065fe:	687b      	ldr	r3, [r7, #4]
 8006600:	681b      	ldr	r3, [r3, #0]
 8006602:	681a      	ldr	r2, [r3, #0]
 8006604:	687b      	ldr	r3, [r7, #4]
 8006606:	681b      	ldr	r3, [r3, #0]
 8006608:	2101      	movs	r1, #1
 800660a:	430a      	orrs	r2, r1
 800660c:	601a      	str	r2, [r3, #0]

  /* TEACK and/or REACK to check before moving huart->gState and huart->RxState to Ready */
  return (UART_CheckIdleState(huart));
 800660e:	687b      	ldr	r3, [r7, #4]
 8006610:	0018      	movs	r0, r3
 8006612:	f000 fe35 	bl	8007280 <UART_CheckIdleState>
 8006616:	0003      	movs	r3, r0
}
 8006618:	0018      	movs	r0, r3
 800661a:	46bd      	mov	sp, r7
 800661c:	b002      	add	sp, #8
 800661e:	bd80      	pop	{r7, pc}
 8006620:	ffffb7ff 	.word	0xffffb7ff

08006624 <HAL_UART_Transmit>:
  * @param Size    Amount of data elements (u8 or u16) to be sent.
  * @param Timeout Timeout duration.
  * @retval HAL status
  */
HAL_StatusTypeDef HAL_UART_Transmit(UART_HandleTypeDef *huart, const uint8_t *pData, uint16_t Size, uint32_t Timeout)
{
 8006624:	b580      	push	{r7, lr}
 8006626:	b08a      	sub	sp, #40	; 0x28
 8006628:	af02      	add	r7, sp, #8
 800662a:	60f8      	str	r0, [r7, #12]
 800662c:	60b9      	str	r1, [r7, #8]
 800662e:	603b      	str	r3, [r7, #0]
 8006630:	1dbb      	adds	r3, r7, #6
 8006632:	801a      	strh	r2, [r3, #0]
  const uint8_t  *pdata8bits;
  const uint16_t *pdata16bits;
  uint32_t tickstart;

  /* Check that a Tx process is not already ongoing */
  if (huart->gState == HAL_UART_STATE_READY)
 8006634:	68fb      	ldr	r3, [r7, #12]
 8006636:	2288      	movs	r2, #136	; 0x88
 8006638:	589b      	ldr	r3, [r3, r2]
 800663a:	2b20      	cmp	r3, #32
 800663c:	d000      	beq.n	8006640 <HAL_UART_Transmit+0x1c>
 800663e:	e09a      	b.n	8006776 <HAL_UART_Transmit+0x152>
  {
    if ((pData == NULL) || (Size == 0U))
 8006640:	68bb      	ldr	r3, [r7, #8]
 8006642:	2b00      	cmp	r3, #0
 8006644:	d003      	beq.n	800664e <HAL_UART_Transmit+0x2a>
 8006646:	1dbb      	adds	r3, r7, #6
 8006648:	881b      	ldrh	r3, [r3, #0]
 800664a:	2b00      	cmp	r3, #0
 800664c:	d101      	bne.n	8006652 <HAL_UART_Transmit+0x2e>
    {
      return  HAL_ERROR;
 800664e:	2301      	movs	r3, #1
 8006650:	e092      	b.n	8006778 <HAL_UART_Transmit+0x154>
    }

    /* In case of 9bits/No Parity transfer, pData buffer provided as input parameter
       should be aligned on a u16 frontier, as data to be filled into TDR will be
       handled through a u16 cast. */
    if ((huart->Init.WordLength == UART_WORDLENGTH_9B) && (huart->Init.Parity == UART_PARITY_NONE))
 8006652:	68fb      	ldr	r3, [r7, #12]
 8006654:	689a      	ldr	r2, [r3, #8]
 8006656:	2380      	movs	r3, #128	; 0x80
 8006658:	015b      	lsls	r3, r3, #5
 800665a:	429a      	cmp	r2, r3
 800665c:	d109      	bne.n	8006672 <HAL_UART_Transmit+0x4e>
 800665e:	68fb      	ldr	r3, [r7, #12]
 8006660:	691b      	ldr	r3, [r3, #16]
 8006662:	2b00      	cmp	r3, #0
 8006664:	d105      	bne.n	8006672 <HAL_UART_Transmit+0x4e>
    {
      if ((((uint32_t)pData) & 1U) != 0U)
 8006666:	68bb      	ldr	r3, [r7, #8]
 8006668:	2201      	movs	r2, #1
 800666a:	4013      	ands	r3, r2
 800666c:	d001      	beq.n	8006672 <HAL_UART_Transmit+0x4e>
      {
        return  HAL_ERROR;
 800666e:	2301      	movs	r3, #1
 8006670:	e082      	b.n	8006778 <HAL_UART_Transmit+0x154>
      }
    }

    huart->ErrorCode = HAL_UART_ERROR_NONE;
 8006672:	68fb      	ldr	r3, [r7, #12]
 8006674:	2290      	movs	r2, #144	; 0x90
 8006676:	2100      	movs	r1, #0
 8006678:	5099      	str	r1, [r3, r2]
    huart->gState = HAL_UART_STATE_BUSY_TX;
 800667a:	68fb      	ldr	r3, [r7, #12]
 800667c:	2288      	movs	r2, #136	; 0x88
 800667e:	2121      	movs	r1, #33	; 0x21
 8006680:	5099      	str	r1, [r3, r2]

    /* Init tickstart for timeout management */
    tickstart = HAL_GetTick();
 8006682:	f7fe fb2b 	bl	8004cdc <HAL_GetTick>
 8006686:	0003      	movs	r3, r0
 8006688:	617b      	str	r3, [r7, #20]

    huart->TxXferSize  = Size;
 800668a:	68fb      	ldr	r3, [r7, #12]
 800668c:	1dba      	adds	r2, r7, #6
 800668e:	2154      	movs	r1, #84	; 0x54
 8006690:	8812      	ldrh	r2, [r2, #0]
 8006692:	525a      	strh	r2, [r3, r1]
    huart->TxXferCount = Size;
 8006694:	68fb      	ldr	r3, [r7, #12]
 8006696:	1dba      	adds	r2, r7, #6
 8006698:	2156      	movs	r1, #86	; 0x56
 800669a:	8812      	ldrh	r2, [r2, #0]
 800669c:	525a      	strh	r2, [r3, r1]

    /* In case of 9bits/No Parity transfer, pData needs to be handled as a uint16_t pointer */
    if ((huart->Init.WordLength == UART_WORDLENGTH_9B) && (huart->Init.Parity == UART_PARITY_NONE))
 800669e:	68fb      	ldr	r3, [r7, #12]
 80066a0:	689a      	ldr	r2, [r3, #8]
 80066a2:	2380      	movs	r3, #128	; 0x80
 80066a4:	015b      	lsls	r3, r3, #5
 80066a6:	429a      	cmp	r2, r3
 80066a8:	d108      	bne.n	80066bc <HAL_UART_Transmit+0x98>
 80066aa:	68fb      	ldr	r3, [r7, #12]
 80066ac:	691b      	ldr	r3, [r3, #16]
 80066ae:	2b00      	cmp	r3, #0
 80066b0:	d104      	bne.n	80066bc <HAL_UART_Transmit+0x98>
    {
      pdata8bits  = NULL;
 80066b2:	2300      	movs	r3, #0
 80066b4:	61fb      	str	r3, [r7, #28]
      pdata16bits = (const uint16_t *) pData;
 80066b6:	68bb      	ldr	r3, [r7, #8]
 80066b8:	61bb      	str	r3, [r7, #24]
 80066ba:	e003      	b.n	80066c4 <HAL_UART_Transmit+0xa0>
    }
    else
    {
      pdata8bits  = pData;
 80066bc:	68bb      	ldr	r3, [r7, #8]
 80066be:	61fb      	str	r3, [r7, #28]
      pdata16bits = NULL;
 80066c0:	2300      	movs	r3, #0
 80066c2:	61bb      	str	r3, [r7, #24]
    }

    while (huart->TxXferCount > 0U)
 80066c4:	e03a      	b.n	800673c <HAL_UART_Transmit+0x118>
    {
      if (UART_WaitOnFlagUntilTimeout(huart, UART_FLAG_TXE, RESET, tickstart, Timeout) != HAL_OK)
 80066c6:	697a      	ldr	r2, [r7, #20]
 80066c8:	68f8      	ldr	r0, [r7, #12]
 80066ca:	683b      	ldr	r3, [r7, #0]
 80066cc:	9300      	str	r3, [sp, #0]
 80066ce:	0013      	movs	r3, r2
 80066d0:	2200      	movs	r2, #0
 80066d2:	2180      	movs	r1, #128	; 0x80
 80066d4:	f000 fe7e 	bl	80073d4 <UART_WaitOnFlagUntilTimeout>
 80066d8:	1e03      	subs	r3, r0, #0
 80066da:	d005      	beq.n	80066e8 <HAL_UART_Transmit+0xc4>
      {

        huart->gState = HAL_UART_STATE_READY;
 80066dc:	68fb      	ldr	r3, [r7, #12]
 80066de:	2288      	movs	r2, #136	; 0x88
 80066e0:	2120      	movs	r1, #32
 80066e2:	5099      	str	r1, [r3, r2]

        return HAL_TIMEOUT;
 80066e4:	2303      	movs	r3, #3
 80066e6:	e047      	b.n	8006778 <HAL_UART_Transmit+0x154>
      }
      if (pdata8bits == NULL)
 80066e8:	69fb      	ldr	r3, [r7, #28]
 80066ea:	2b00      	cmp	r3, #0
 80066ec:	d10b      	bne.n	8006706 <HAL_UART_Transmit+0xe2>
      {
        huart->Instance->TDR = (uint16_t)(*pdata16bits & 0x01FFU);
 80066ee:	69bb      	ldr	r3, [r7, #24]
 80066f0:	881b      	ldrh	r3, [r3, #0]
 80066f2:	001a      	movs	r2, r3
 80066f4:	68fb      	ldr	r3, [r7, #12]
 80066f6:	681b      	ldr	r3, [r3, #0]
 80066f8:	05d2      	lsls	r2, r2, #23
 80066fa:	0dd2      	lsrs	r2, r2, #23
 80066fc:	629a      	str	r2, [r3, #40]	; 0x28
        pdata16bits++;
 80066fe:	69bb      	ldr	r3, [r7, #24]
 8006700:	3302      	adds	r3, #2
 8006702:	61bb      	str	r3, [r7, #24]
 8006704:	e007      	b.n	8006716 <HAL_UART_Transmit+0xf2>
      }
      else
      {
        huart->Instance->TDR = (uint8_t)(*pdata8bits & 0xFFU);
 8006706:	69fb      	ldr	r3, [r7, #28]
 8006708:	781a      	ldrb	r2, [r3, #0]
 800670a:	68fb      	ldr	r3, [r7, #12]
 800670c:	681b      	ldr	r3, [r3, #0]
 800670e:	629a      	str	r2, [r3, #40]	; 0x28
        pdata8bits++;
 8006710:	69fb      	ldr	r3, [r7, #28]
 8006712:	3301      	adds	r3, #1
 8006714:	61fb      	str	r3, [r7, #28]
      }
      if ((huart->gState & HAL_UART_STATE_BUSY_TX) == HAL_UART_STATE_BUSY_TX)
 8006716:	68fb      	ldr	r3, [r7, #12]
 8006718:	2288      	movs	r2, #136	; 0x88
 800671a:	589b      	ldr	r3, [r3, r2]
 800671c:	2221      	movs	r2, #33	; 0x21
 800671e:	4013      	ands	r3, r2
 8006720:	2b21      	cmp	r3, #33	; 0x21
 8006722:	d109      	bne.n	8006738 <HAL_UART_Transmit+0x114>
      {
        huart->TxXferCount--;
 8006724:	68fb      	ldr	r3, [r7, #12]
 8006726:	2256      	movs	r2, #86	; 0x56
 8006728:	5a9b      	ldrh	r3, [r3, r2]
 800672a:	b29b      	uxth	r3, r3
 800672c:	3b01      	subs	r3, #1
 800672e:	b299      	uxth	r1, r3
 8006730:	68fb      	ldr	r3, [r7, #12]
 8006732:	2256      	movs	r2, #86	; 0x56
 8006734:	5299      	strh	r1, [r3, r2]
 8006736:	e001      	b.n	800673c <HAL_UART_Transmit+0x118>
      }
      else
      {
        /* Process was aborted during the transmission */
        return HAL_ERROR;
 8006738:	2301      	movs	r3, #1
 800673a:	e01d      	b.n	8006778 <HAL_UART_Transmit+0x154>
    while (huart->TxXferCount > 0U)
 800673c:	68fb      	ldr	r3, [r7, #12]
 800673e:	2256      	movs	r2, #86	; 0x56
 8006740:	5a9b      	ldrh	r3, [r3, r2]
 8006742:	b29b      	uxth	r3, r3
 8006744:	2b00      	cmp	r3, #0
 8006746:	d1be      	bne.n	80066c6 <HAL_UART_Transmit+0xa2>
      }
    }

    if (UART_WaitOnFlagUntilTimeout(huart, UART_FLAG_TC, RESET, tickstart, Timeout) != HAL_OK)
 8006748:	697a      	ldr	r2, [r7, #20]
 800674a:	68f8      	ldr	r0, [r7, #12]
 800674c:	683b      	ldr	r3, [r7, #0]
 800674e:	9300      	str	r3, [sp, #0]
 8006750:	0013      	movs	r3, r2
 8006752:	2200      	movs	r2, #0
 8006754:	2140      	movs	r1, #64	; 0x40
 8006756:	f000 fe3d 	bl	80073d4 <UART_WaitOnFlagUntilTimeout>
 800675a:	1e03      	subs	r3, r0, #0
 800675c:	d005      	beq.n	800676a <HAL_UART_Transmit+0x146>
    {
      huart->gState = HAL_UART_STATE_READY;
 800675e:	68fb      	ldr	r3, [r7, #12]
 8006760:	2288      	movs	r2, #136	; 0x88
 8006762:	2120      	movs	r1, #32
 8006764:	5099      	str	r1, [r3, r2]

      return HAL_TIMEOUT;
 8006766:	2303      	movs	r3, #3
 8006768:	e006      	b.n	8006778 <HAL_UART_Transmit+0x154>
    }

    /* At end of Tx process, restore huart->gState to Ready */
    huart->gState = HAL_UART_STATE_READY;
 800676a:	68fb      	ldr	r3, [r7, #12]
 800676c:	2288      	movs	r2, #136	; 0x88
 800676e:	2120      	movs	r1, #32
 8006770:	5099      	str	r1, [r3, r2]

    return HAL_OK;
 8006772:	2300      	movs	r3, #0
 8006774:	e000      	b.n	8006778 <HAL_UART_Transmit+0x154>
  }
  else
  {
    return HAL_BUSY;
 8006776:	2302      	movs	r3, #2
  }
}
 8006778:	0018      	movs	r0, r3
 800677a:	46bd      	mov	sp, r7
 800677c:	b008      	add	sp, #32
 800677e:	bd80      	pop	{r7, pc}

08006780 <HAL_UART_IRQHandler>:
  * @brief Handle UART interrupt request.
  * @param huart UART handle.
  * @retval None
  */
void HAL_UART_IRQHandler(UART_HandleTypeDef *huart)
{
 8006780:	b5b0      	push	{r4, r5, r7, lr}
 8006782:	b0aa      	sub	sp, #168	; 0xa8
 8006784:	af00      	add	r7, sp, #0
 8006786:	6078      	str	r0, [r7, #4]
  uint32_t isrflags   = READ_REG(huart->Instance->ISR);
 8006788:	687b      	ldr	r3, [r7, #4]
 800678a:	681b      	ldr	r3, [r3, #0]
 800678c:	69db      	ldr	r3, [r3, #28]
 800678e:	22a4      	movs	r2, #164	; 0xa4
 8006790:	18b9      	adds	r1, r7, r2
 8006792:	600b      	str	r3, [r1, #0]
  uint32_t cr1its     = READ_REG(huart->Instance->CR1);
 8006794:	687b      	ldr	r3, [r7, #4]
 8006796:	681b      	ldr	r3, [r3, #0]
 8006798:	681b      	ldr	r3, [r3, #0]
 800679a:	20a0      	movs	r0, #160	; 0xa0
 800679c:	1839      	adds	r1, r7, r0
 800679e:	600b      	str	r3, [r1, #0]
  uint32_t cr3its     = READ_REG(huart->Instance->CR3);
 80067a0:	687b      	ldr	r3, [r7, #4]
 80067a2:	681b      	ldr	r3, [r3, #0]
 80067a4:	689b      	ldr	r3, [r3, #8]
 80067a6:	249c      	movs	r4, #156	; 0x9c
 80067a8:	1939      	adds	r1, r7, r4
 80067aa:	600b      	str	r3, [r1, #0]

  uint32_t errorflags;
  uint32_t errorcode;

  /* If no error occurs */
  errorflags = (isrflags & (uint32_t)(USART_ISR_PE | USART_ISR_FE | USART_ISR_ORE | USART_ISR_NE | USART_ISR_RTOF));
 80067ac:	0011      	movs	r1, r2
 80067ae:	18bb      	adds	r3, r7, r2
 80067b0:	681b      	ldr	r3, [r3, #0]
 80067b2:	4aa2      	ldr	r2, [pc, #648]	; (8006a3c <HAL_UART_IRQHandler+0x2bc>)
 80067b4:	4013      	ands	r3, r2
 80067b6:	2298      	movs	r2, #152	; 0x98
 80067b8:	18bd      	adds	r5, r7, r2
 80067ba:	602b      	str	r3, [r5, #0]
  if (errorflags == 0U)
 80067bc:	18bb      	adds	r3, r7, r2
 80067be:	681b      	ldr	r3, [r3, #0]
 80067c0:	2b00      	cmp	r3, #0
 80067c2:	d11a      	bne.n	80067fa <HAL_UART_IRQHandler+0x7a>
  {
    /* UART in mode Receiver ---------------------------------------------------*/
    if (((isrflags & USART_ISR_RXNE_RXFNE) != 0U)
 80067c4:	187b      	adds	r3, r7, r1
 80067c6:	681b      	ldr	r3, [r3, #0]
 80067c8:	2220      	movs	r2, #32
 80067ca:	4013      	ands	r3, r2
 80067cc:	d015      	beq.n	80067fa <HAL_UART_IRQHandler+0x7a>
        && (((cr1its & USART_CR1_RXNEIE_RXFNEIE) != 0U)
 80067ce:	183b      	adds	r3, r7, r0
 80067d0:	681b      	ldr	r3, [r3, #0]
 80067d2:	2220      	movs	r2, #32
 80067d4:	4013      	ands	r3, r2
 80067d6:	d105      	bne.n	80067e4 <HAL_UART_IRQHandler+0x64>
            || ((cr3its & USART_CR3_RXFTIE) != 0U)))
 80067d8:	193b      	adds	r3, r7, r4
 80067da:	681a      	ldr	r2, [r3, #0]
 80067dc:	2380      	movs	r3, #128	; 0x80
 80067de:	055b      	lsls	r3, r3, #21
 80067e0:	4013      	ands	r3, r2
 80067e2:	d00a      	beq.n	80067fa <HAL_UART_IRQHandler+0x7a>
    {
      if (huart->RxISR != NULL)
 80067e4:	687b      	ldr	r3, [r7, #4]
 80067e6:	6f5b      	ldr	r3, [r3, #116]	; 0x74
 80067e8:	2b00      	cmp	r3, #0
 80067ea:	d100      	bne.n	80067ee <HAL_UART_IRQHandler+0x6e>
 80067ec:	e2fb      	b.n	8006de6 <HAL_UART_IRQHandler+0x666>
      {
        huart->RxISR(huart);
 80067ee:	687b      	ldr	r3, [r7, #4]
 80067f0:	6f5b      	ldr	r3, [r3, #116]	; 0x74
 80067f2:	687a      	ldr	r2, [r7, #4]
 80067f4:	0010      	movs	r0, r2
 80067f6:	4798      	blx	r3
      }
      return;
 80067f8:	e2f5      	b.n	8006de6 <HAL_UART_IRQHandler+0x666>
    }
  }

  /* If some errors occur */
  if ((errorflags != 0U)
 80067fa:	2398      	movs	r3, #152	; 0x98
 80067fc:	18fb      	adds	r3, r7, r3
 80067fe:	681b      	ldr	r3, [r3, #0]
 8006800:	2b00      	cmp	r3, #0
 8006802:	d100      	bne.n	8006806 <HAL_UART_IRQHandler+0x86>
 8006804:	e122      	b.n	8006a4c <HAL_UART_IRQHandler+0x2cc>
      && ((((cr3its & (USART_CR3_RXFTIE | USART_CR3_EIE)) != 0U)
 8006806:	239c      	movs	r3, #156	; 0x9c
 8006808:	18fb      	adds	r3, r7, r3
 800680a:	681b      	ldr	r3, [r3, #0]
 800680c:	4a8c      	ldr	r2, [pc, #560]	; (8006a40 <HAL_UART_IRQHandler+0x2c0>)
 800680e:	4013      	ands	r3, r2
 8006810:	d106      	bne.n	8006820 <HAL_UART_IRQHandler+0xa0>
           || ((cr1its & (USART_CR1_RXNEIE_RXFNEIE | USART_CR1_PEIE | USART_CR1_RTOIE)) != 0U))))
 8006812:	23a0      	movs	r3, #160	; 0xa0
 8006814:	18fb      	adds	r3, r7, r3
 8006816:	681b      	ldr	r3, [r3, #0]
 8006818:	4a8a      	ldr	r2, [pc, #552]	; (8006a44 <HAL_UART_IRQHandler+0x2c4>)
 800681a:	4013      	ands	r3, r2
 800681c:	d100      	bne.n	8006820 <HAL_UART_IRQHandler+0xa0>
 800681e:	e115      	b.n	8006a4c <HAL_UART_IRQHandler+0x2cc>
  {
    /* UART parity error interrupt occurred -------------------------------------*/
    if (((isrflags & USART_ISR_PE) != 0U) && ((cr1its & USART_CR1_PEIE) != 0U))
 8006820:	23a4      	movs	r3, #164	; 0xa4
 8006822:	18fb      	adds	r3, r7, r3
 8006824:	681b      	ldr	r3, [r3, #0]
 8006826:	2201      	movs	r2, #1
 8006828:	4013      	ands	r3, r2
 800682a:	d012      	beq.n	8006852 <HAL_UART_IRQHandler+0xd2>
 800682c:	23a0      	movs	r3, #160	; 0xa0
 800682e:	18fb      	adds	r3, r7, r3
 8006830:	681a      	ldr	r2, [r3, #0]
 8006832:	2380      	movs	r3, #128	; 0x80
 8006834:	005b      	lsls	r3, r3, #1
 8006836:	4013      	ands	r3, r2
 8006838:	d00b      	beq.n	8006852 <HAL_UART_IRQHandler+0xd2>
    {
      __HAL_UART_CLEAR_FLAG(huart, UART_CLEAR_PEF);
 800683a:	687b      	ldr	r3, [r7, #4]
 800683c:	681b      	ldr	r3, [r3, #0]
 800683e:	2201      	movs	r2, #1
 8006840:	621a      	str	r2, [r3, #32]

      huart->ErrorCode |= HAL_UART_ERROR_PE;
 8006842:	687b      	ldr	r3, [r7, #4]
 8006844:	2290      	movs	r2, #144	; 0x90
 8006846:	589b      	ldr	r3, [r3, r2]
 8006848:	2201      	movs	r2, #1
 800684a:	431a      	orrs	r2, r3
 800684c:	687b      	ldr	r3, [r7, #4]
 800684e:	2190      	movs	r1, #144	; 0x90
 8006850:	505a      	str	r2, [r3, r1]
    }

    /* UART frame error interrupt occurred --------------------------------------*/
    if (((isrflags & USART_ISR_FE) != 0U) && ((cr3its & USART_CR3_EIE) != 0U))
 8006852:	23a4      	movs	r3, #164	; 0xa4
 8006854:	18fb      	adds	r3, r7, r3
 8006856:	681b      	ldr	r3, [r3, #0]
 8006858:	2202      	movs	r2, #2
 800685a:	4013      	ands	r3, r2
 800685c:	d011      	beq.n	8006882 <HAL_UART_IRQHandler+0x102>
 800685e:	239c      	movs	r3, #156	; 0x9c
 8006860:	18fb      	adds	r3, r7, r3
 8006862:	681b      	ldr	r3, [r3, #0]
 8006864:	2201      	movs	r2, #1
 8006866:	4013      	ands	r3, r2
 8006868:	d00b      	beq.n	8006882 <HAL_UART_IRQHandler+0x102>
    {
      __HAL_UART_CLEAR_FLAG(huart, UART_CLEAR_FEF);
 800686a:	687b      	ldr	r3, [r7, #4]
 800686c:	681b      	ldr	r3, [r3, #0]
 800686e:	2202      	movs	r2, #2
 8006870:	621a      	str	r2, [r3, #32]

      huart->ErrorCode |= HAL_UART_ERROR_FE;
 8006872:	687b      	ldr	r3, [r7, #4]
 8006874:	2290      	movs	r2, #144	; 0x90
 8006876:	589b      	ldr	r3, [r3, r2]
 8006878:	2204      	movs	r2, #4
 800687a:	431a      	orrs	r2, r3
 800687c:	687b      	ldr	r3, [r7, #4]
 800687e:	2190      	movs	r1, #144	; 0x90
 8006880:	505a      	str	r2, [r3, r1]
    }

    /* UART noise error interrupt occurred --------------------------------------*/
    if (((isrflags & USART_ISR_NE) != 0U) && ((cr3its & USART_CR3_EIE) != 0U))
 8006882:	23a4      	movs	r3, #164	; 0xa4
 8006884:	18fb      	adds	r3, r7, r3
 8006886:	681b      	ldr	r3, [r3, #0]
 8006888:	2204      	movs	r2, #4
 800688a:	4013      	ands	r3, r2
 800688c:	d011      	beq.n	80068b2 <HAL_UART_IRQHandler+0x132>
 800688e:	239c      	movs	r3, #156	; 0x9c
 8006890:	18fb      	adds	r3, r7, r3
 8006892:	681b      	ldr	r3, [r3, #0]
 8006894:	2201      	movs	r2, #1
 8006896:	4013      	ands	r3, r2
 8006898:	d00b      	beq.n	80068b2 <HAL_UART_IRQHandler+0x132>
    {
      __HAL_UART_CLEAR_FLAG(huart, UART_CLEAR_NEF);
 800689a:	687b      	ldr	r3, [r7, #4]
 800689c:	681b      	ldr	r3, [r3, #0]
 800689e:	2204      	movs	r2, #4
 80068a0:	621a      	str	r2, [r3, #32]

      huart->ErrorCode |= HAL_UART_ERROR_NE;
 80068a2:	687b      	ldr	r3, [r7, #4]
 80068a4:	2290      	movs	r2, #144	; 0x90
 80068a6:	589b      	ldr	r3, [r3, r2]
 80068a8:	2202      	movs	r2, #2
 80068aa:	431a      	orrs	r2, r3
 80068ac:	687b      	ldr	r3, [r7, #4]
 80068ae:	2190      	movs	r1, #144	; 0x90
 80068b0:	505a      	str	r2, [r3, r1]
    }

    /* UART Over-Run interrupt occurred -----------------------------------------*/
    if (((isrflags & USART_ISR_ORE) != 0U)
 80068b2:	23a4      	movs	r3, #164	; 0xa4
 80068b4:	18fb      	adds	r3, r7, r3
 80068b6:	681b      	ldr	r3, [r3, #0]
 80068b8:	2208      	movs	r2, #8
 80068ba:	4013      	ands	r3, r2
 80068bc:	d017      	beq.n	80068ee <HAL_UART_IRQHandler+0x16e>
        && (((cr1its & USART_CR1_RXNEIE_RXFNEIE) != 0U) ||
 80068be:	23a0      	movs	r3, #160	; 0xa0
 80068c0:	18fb      	adds	r3, r7, r3
 80068c2:	681b      	ldr	r3, [r3, #0]
 80068c4:	2220      	movs	r2, #32
 80068c6:	4013      	ands	r3, r2
 80068c8:	d105      	bne.n	80068d6 <HAL_UART_IRQHandler+0x156>
            ((cr3its & (USART_CR3_RXFTIE | USART_CR3_EIE)) != 0U)))
 80068ca:	239c      	movs	r3, #156	; 0x9c
 80068cc:	18fb      	adds	r3, r7, r3
 80068ce:	681b      	ldr	r3, [r3, #0]
 80068d0:	4a5b      	ldr	r2, [pc, #364]	; (8006a40 <HAL_UART_IRQHandler+0x2c0>)
 80068d2:	4013      	ands	r3, r2
        && (((cr1its & USART_CR1_RXNEIE_RXFNEIE) != 0U) ||
 80068d4:	d00b      	beq.n	80068ee <HAL_UART_IRQHandler+0x16e>
    {
      __HAL_UART_CLEAR_FLAG(huart, UART_CLEAR_OREF);
 80068d6:	687b      	ldr	r3, [r7, #4]
 80068d8:	681b      	ldr	r3, [r3, #0]
 80068da:	2208      	movs	r2, #8
 80068dc:	621a      	str	r2, [r3, #32]

      huart->ErrorCode |= HAL_UART_ERROR_ORE;
 80068de:	687b      	ldr	r3, [r7, #4]
 80068e0:	2290      	movs	r2, #144	; 0x90
 80068e2:	589b      	ldr	r3, [r3, r2]
 80068e4:	2208      	movs	r2, #8
 80068e6:	431a      	orrs	r2, r3
 80068e8:	687b      	ldr	r3, [r7, #4]
 80068ea:	2190      	movs	r1, #144	; 0x90
 80068ec:	505a      	str	r2, [r3, r1]
    }

    /* UART Receiver Timeout interrupt occurred ---------------------------------*/
    if (((isrflags & USART_ISR_RTOF) != 0U) && ((cr1its & USART_CR1_RTOIE) != 0U))
 80068ee:	23a4      	movs	r3, #164	; 0xa4
 80068f0:	18fb      	adds	r3, r7, r3
 80068f2:	681a      	ldr	r2, [r3, #0]
 80068f4:	2380      	movs	r3, #128	; 0x80
 80068f6:	011b      	lsls	r3, r3, #4
 80068f8:	4013      	ands	r3, r2
 80068fa:	d013      	beq.n	8006924 <HAL_UART_IRQHandler+0x1a4>
 80068fc:	23a0      	movs	r3, #160	; 0xa0
 80068fe:	18fb      	adds	r3, r7, r3
 8006900:	681a      	ldr	r2, [r3, #0]
 8006902:	2380      	movs	r3, #128	; 0x80
 8006904:	04db      	lsls	r3, r3, #19
 8006906:	4013      	ands	r3, r2
 8006908:	d00c      	beq.n	8006924 <HAL_UART_IRQHandler+0x1a4>
    {
      __HAL_UART_CLEAR_FLAG(huart, UART_CLEAR_RTOF);
 800690a:	687b      	ldr	r3, [r7, #4]
 800690c:	681b      	ldr	r3, [r3, #0]
 800690e:	2280      	movs	r2, #128	; 0x80
 8006910:	0112      	lsls	r2, r2, #4
 8006912:	621a      	str	r2, [r3, #32]

      huart->ErrorCode |= HAL_UART_ERROR_RTO;
 8006914:	687b      	ldr	r3, [r7, #4]
 8006916:	2290      	movs	r2, #144	; 0x90
 8006918:	589b      	ldr	r3, [r3, r2]
 800691a:	2220      	movs	r2, #32
 800691c:	431a      	orrs	r2, r3
 800691e:	687b      	ldr	r3, [r7, #4]
 8006920:	2190      	movs	r1, #144	; 0x90
 8006922:	505a      	str	r2, [r3, r1]
    }

    /* Call UART Error Call back function if need be ----------------------------*/
    if (huart->ErrorCode != HAL_UART_ERROR_NONE)
 8006924:	687b      	ldr	r3, [r7, #4]
 8006926:	2290      	movs	r2, #144	; 0x90
 8006928:	589b      	ldr	r3, [r3, r2]
 800692a:	2b00      	cmp	r3, #0
 800692c:	d100      	bne.n	8006930 <HAL_UART_IRQHandler+0x1b0>
 800692e:	e25c      	b.n	8006dea <HAL_UART_IRQHandler+0x66a>
    {
      /* UART in mode Receiver --------------------------------------------------*/
      if (((isrflags & USART_ISR_RXNE_RXFNE) != 0U)
 8006930:	23a4      	movs	r3, #164	; 0xa4
 8006932:	18fb      	adds	r3, r7, r3
 8006934:	681b      	ldr	r3, [r3, #0]
 8006936:	2220      	movs	r2, #32
 8006938:	4013      	ands	r3, r2
 800693a:	d015      	beq.n	8006968 <HAL_UART_IRQHandler+0x1e8>
          && (((cr1its & USART_CR1_RXNEIE_RXFNEIE) != 0U)
 800693c:	23a0      	movs	r3, #160	; 0xa0
 800693e:	18fb      	adds	r3, r7, r3
 8006940:	681b      	ldr	r3, [r3, #0]
 8006942:	2220      	movs	r2, #32
 8006944:	4013      	ands	r3, r2
 8006946:	d106      	bne.n	8006956 <HAL_UART_IRQHandler+0x1d6>
              || ((cr3its & USART_CR3_RXFTIE) != 0U)))
 8006948:	239c      	movs	r3, #156	; 0x9c
 800694a:	18fb      	adds	r3, r7, r3
 800694c:	681a      	ldr	r2, [r3, #0]
 800694e:	2380      	movs	r3, #128	; 0x80
 8006950:	055b      	lsls	r3, r3, #21
 8006952:	4013      	ands	r3, r2
 8006954:	d008      	beq.n	8006968 <HAL_UART_IRQHandler+0x1e8>
      {
        if (huart->RxISR != NULL)
 8006956:	687b      	ldr	r3, [r7, #4]
 8006958:	6f5b      	ldr	r3, [r3, #116]	; 0x74
 800695a:	2b00      	cmp	r3, #0
 800695c:	d004      	beq.n	8006968 <HAL_UART_IRQHandler+0x1e8>
        {
          huart->RxISR(huart);
 800695e:	687b      	ldr	r3, [r7, #4]
 8006960:	6f5b      	ldr	r3, [r3, #116]	; 0x74
 8006962:	687a      	ldr	r2, [r7, #4]
 8006964:	0010      	movs	r0, r2
 8006966:	4798      	blx	r3
      /* If Error is to be considered as blocking :
          - Receiver Timeout error in Reception
          - Overrun error in Reception
          - any error occurs in DMA mode reception
      */
      errorcode = huart->ErrorCode;
 8006968:	687b      	ldr	r3, [r7, #4]
 800696a:	2290      	movs	r2, #144	; 0x90
 800696c:	589b      	ldr	r3, [r3, r2]
 800696e:	2194      	movs	r1, #148	; 0x94
 8006970:	187a      	adds	r2, r7, r1
 8006972:	6013      	str	r3, [r2, #0]
      if ((HAL_IS_BIT_SET(huart->Instance->CR3, USART_CR3_DMAR)) ||
 8006974:	687b      	ldr	r3, [r7, #4]
 8006976:	681b      	ldr	r3, [r3, #0]
 8006978:	689b      	ldr	r3, [r3, #8]
 800697a:	2240      	movs	r2, #64	; 0x40
 800697c:	4013      	ands	r3, r2
 800697e:	2b40      	cmp	r3, #64	; 0x40
 8006980:	d004      	beq.n	800698c <HAL_UART_IRQHandler+0x20c>
          ((errorcode & (HAL_UART_ERROR_RTO | HAL_UART_ERROR_ORE)) != 0U))
 8006982:	187b      	adds	r3, r7, r1
 8006984:	681b      	ldr	r3, [r3, #0]
 8006986:	2228      	movs	r2, #40	; 0x28
 8006988:	4013      	ands	r3, r2
      if ((HAL_IS_BIT_SET(huart->Instance->CR3, USART_CR3_DMAR)) ||
 800698a:	d04c      	beq.n	8006a26 <HAL_UART_IRQHandler+0x2a6>
      {
        /* Blocking error : transfer is aborted
           Set the UART state ready to be able to start again the process,
           Disable Rx Interrupts, and disable Rx DMA request, if ongoing */
        UART_EndRxTransfer(huart);
 800698c:	687b      	ldr	r3, [r7, #4]
 800698e:	0018      	movs	r0, r3
 8006990:	f000 fd90 	bl	80074b4 <UART_EndRxTransfer>

        /* Abort the UART DMA Rx channel if enabled */
        if (HAL_IS_BIT_SET(huart->Instance->CR3, USART_CR3_DMAR))
 8006994:	687b      	ldr	r3, [r7, #4]
 8006996:	681b      	ldr	r3, [r3, #0]
 8006998:	689b      	ldr	r3, [r3, #8]
 800699a:	2240      	movs	r2, #64	; 0x40
 800699c:	4013      	ands	r3, r2
 800699e:	2b40      	cmp	r3, #64	; 0x40
 80069a0:	d13c      	bne.n	8006a1c <HAL_UART_IRQHandler+0x29c>
 */
__STATIC_FORCEINLINE uint32_t __get_PRIMASK(void)
{
  uint32_t result;

  __ASM volatile ("MRS %0, primask" : "=r" (result) :: "memory");
 80069a2:	f3ef 8310 	mrs	r3, PRIMASK
 80069a6:	663b      	str	r3, [r7, #96]	; 0x60
  return(result);
 80069a8:	6e3b      	ldr	r3, [r7, #96]	; 0x60
        {
          /* Disable the UART DMA Rx request if enabled */
          ATOMIC_CLEAR_BIT(huart->Instance->CR3, USART_CR3_DMAR);
 80069aa:	2090      	movs	r0, #144	; 0x90
 80069ac:	183a      	adds	r2, r7, r0
 80069ae:	6013      	str	r3, [r2, #0]
 80069b0:	2301      	movs	r3, #1
 80069b2:	667b      	str	r3, [r7, #100]	; 0x64
  \details Assigns the given value to the Priority Mask Register.
  \param [in]    priMask  Priority Mask
 */
__STATIC_FORCEINLINE void __set_PRIMASK(uint32_t priMask)
{
  __ASM volatile ("MSR primask, %0" : : "r" (priMask) : "memory");
 80069b4:	6e7b      	ldr	r3, [r7, #100]	; 0x64
 80069b6:	f383 8810 	msr	PRIMASK, r3
}
 80069ba:	46c0      	nop			; (mov r8, r8)
 80069bc:	687b      	ldr	r3, [r7, #4]
 80069be:	681b      	ldr	r3, [r3, #0]
 80069c0:	689a      	ldr	r2, [r3, #8]
 80069c2:	687b      	ldr	r3, [r7, #4]
 80069c4:	681b      	ldr	r3, [r3, #0]
 80069c6:	2140      	movs	r1, #64	; 0x40
 80069c8:	438a      	bics	r2, r1
 80069ca:	609a      	str	r2, [r3, #8]
 80069cc:	183b      	adds	r3, r7, r0
 80069ce:	681b      	ldr	r3, [r3, #0]
 80069d0:	66bb      	str	r3, [r7, #104]	; 0x68
  __ASM volatile ("MSR primask, %0" : : "r" (priMask) : "memory");
 80069d2:	6ebb      	ldr	r3, [r7, #104]	; 0x68
 80069d4:	f383 8810 	msr	PRIMASK, r3
}
 80069d8:	46c0      	nop			; (mov r8, r8)

          /* Abort the UART DMA Rx channel */
          if (huart->hdmarx != NULL)
 80069da:	687b      	ldr	r3, [r7, #4]
 80069dc:	2280      	movs	r2, #128	; 0x80
 80069de:	589b      	ldr	r3, [r3, r2]
 80069e0:	2b00      	cmp	r3, #0
 80069e2:	d016      	beq.n	8006a12 <HAL_UART_IRQHandler+0x292>
          {
            /* Set the UART DMA Abort callback :
               will lead to call HAL_UART_ErrorCallback() at end of DMA abort procedure */
            huart->hdmarx->XferAbortCallback = UART_DMAAbortOnError;
 80069e4:	687b      	ldr	r3, [r7, #4]
 80069e6:	2280      	movs	r2, #128	; 0x80
 80069e8:	589b      	ldr	r3, [r3, r2]
 80069ea:	4a17      	ldr	r2, [pc, #92]	; (8006a48 <HAL_UART_IRQHandler+0x2c8>)
 80069ec:	639a      	str	r2, [r3, #56]	; 0x38

            /* Abort DMA RX */
            if (HAL_DMA_Abort_IT(huart->hdmarx) != HAL_OK)
 80069ee:	687b      	ldr	r3, [r7, #4]
 80069f0:	2280      	movs	r2, #128	; 0x80
 80069f2:	589b      	ldr	r3, [r3, r2]
 80069f4:	0018      	movs	r0, r3
 80069f6:	f7fe fae9 	bl	8004fcc <HAL_DMA_Abort_IT>
 80069fa:	1e03      	subs	r3, r0, #0
 80069fc:	d01c      	beq.n	8006a38 <HAL_UART_IRQHandler+0x2b8>
            {
              /* Call Directly huart->hdmarx->XferAbortCallback function in case of error */
              huart->hdmarx->XferAbortCallback(huart->hdmarx);
 80069fe:	687b      	ldr	r3, [r7, #4]
 8006a00:	2280      	movs	r2, #128	; 0x80
 8006a02:	589b      	ldr	r3, [r3, r2]
 8006a04:	6b9b      	ldr	r3, [r3, #56]	; 0x38
 8006a06:	687a      	ldr	r2, [r7, #4]
 8006a08:	2180      	movs	r1, #128	; 0x80
 8006a0a:	5852      	ldr	r2, [r2, r1]
 8006a0c:	0010      	movs	r0, r2
 8006a0e:	4798      	blx	r3
        if (HAL_IS_BIT_SET(huart->Instance->CR3, USART_CR3_DMAR))
 8006a10:	e012      	b.n	8006a38 <HAL_UART_IRQHandler+0x2b8>
#if (USE_HAL_UART_REGISTER_CALLBACKS == 1)
            /*Call registered error callback*/
            huart->ErrorCallback(huart);
#else
            /*Call legacy weak error callback*/
            HAL_UART_ErrorCallback(huart);
 8006a12:	687b      	ldr	r3, [r7, #4]
 8006a14:	0018      	movs	r0, r3
 8006a16:	f000 fa01 	bl	8006e1c <HAL_UART_ErrorCallback>
        if (HAL_IS_BIT_SET(huart->Instance->CR3, USART_CR3_DMAR))
 8006a1a:	e00d      	b.n	8006a38 <HAL_UART_IRQHandler+0x2b8>
#if (USE_HAL_UART_REGISTER_CALLBACKS == 1)
          /*Call registered error callback*/
          huart->ErrorCallback(huart);
#else
          /*Call legacy weak error callback*/
          HAL_UART_ErrorCallback(huart);
 8006a1c:	687b      	ldr	r3, [r7, #4]
 8006a1e:	0018      	movs	r0, r3
 8006a20:	f000 f9fc 	bl	8006e1c <HAL_UART_ErrorCallback>
        if (HAL_IS_BIT_SET(huart->Instance->CR3, USART_CR3_DMAR))
 8006a24:	e008      	b.n	8006a38 <HAL_UART_IRQHandler+0x2b8>
#if (USE_HAL_UART_REGISTER_CALLBACKS == 1)
        /*Call registered error callback*/
        huart->ErrorCallback(huart);
#else
        /*Call legacy weak error callback*/
        HAL_UART_ErrorCallback(huart);
 8006a26:	687b      	ldr	r3, [r7, #4]
 8006a28:	0018      	movs	r0, r3
 8006a2a:	f000 f9f7 	bl	8006e1c <HAL_UART_ErrorCallback>
#endif /* USE_HAL_UART_REGISTER_CALLBACKS */
        huart->ErrorCode = HAL_UART_ERROR_NONE;
 8006a2e:	687b      	ldr	r3, [r7, #4]
 8006a30:	2290      	movs	r2, #144	; 0x90
 8006a32:	2100      	movs	r1, #0
 8006a34:	5099      	str	r1, [r3, r2]
      }
    }
    return;
 8006a36:	e1d8      	b.n	8006dea <HAL_UART_IRQHandler+0x66a>
        if (HAL_IS_BIT_SET(huart->Instance->CR3, USART_CR3_DMAR))
 8006a38:	46c0      	nop			; (mov r8, r8)
    return;
 8006a3a:	e1d6      	b.n	8006dea <HAL_UART_IRQHandler+0x66a>
 8006a3c:	0000080f 	.word	0x0000080f
 8006a40:	10000001 	.word	0x10000001
 8006a44:	04000120 	.word	0x04000120
 8006a48:	08007581 	.word	0x08007581

  } /* End if some error occurs */

  /* Check current reception Mode :
     If Reception till IDLE event has been selected : */
  if ((huart->ReceptionType == HAL_UART_RECEPTION_TOIDLE)
 8006a4c:	687b      	ldr	r3, [r7, #4]
 8006a4e:	6edb      	ldr	r3, [r3, #108]	; 0x6c
 8006a50:	2b01      	cmp	r3, #1
 8006a52:	d000      	beq.n	8006a56 <HAL_UART_IRQHandler+0x2d6>
 8006a54:	e15d      	b.n	8006d12 <HAL_UART_IRQHandler+0x592>
      && ((isrflags & USART_ISR_IDLE) != 0U)
 8006a56:	23a4      	movs	r3, #164	; 0xa4
 8006a58:	18fb      	adds	r3, r7, r3
 8006a5a:	681b      	ldr	r3, [r3, #0]
 8006a5c:	2210      	movs	r2, #16
 8006a5e:	4013      	ands	r3, r2
 8006a60:	d100      	bne.n	8006a64 <HAL_UART_IRQHandler+0x2e4>
 8006a62:	e156      	b.n	8006d12 <HAL_UART_IRQHandler+0x592>
      && ((cr1its & USART_ISR_IDLE) != 0U))
 8006a64:	23a0      	movs	r3, #160	; 0xa0
 8006a66:	18fb      	adds	r3, r7, r3
 8006a68:	681b      	ldr	r3, [r3, #0]
 8006a6a:	2210      	movs	r2, #16
 8006a6c:	4013      	ands	r3, r2
 8006a6e:	d100      	bne.n	8006a72 <HAL_UART_IRQHandler+0x2f2>
 8006a70:	e14f      	b.n	8006d12 <HAL_UART_IRQHandler+0x592>
  {
    __HAL_UART_CLEAR_FLAG(huart, UART_CLEAR_IDLEF);
 8006a72:	687b      	ldr	r3, [r7, #4]
 8006a74:	681b      	ldr	r3, [r3, #0]
 8006a76:	2210      	movs	r2, #16
 8006a78:	621a      	str	r2, [r3, #32]

    /* Check if DMA mode is enabled in UART */
    if (HAL_IS_BIT_SET(huart->Instance->CR3, USART_CR3_DMAR))
 8006a7a:	687b      	ldr	r3, [r7, #4]
 8006a7c:	681b      	ldr	r3, [r3, #0]
 8006a7e:	689b      	ldr	r3, [r3, #8]
 8006a80:	2240      	movs	r2, #64	; 0x40
 8006a82:	4013      	ands	r3, r2
 8006a84:	2b40      	cmp	r3, #64	; 0x40
 8006a86:	d000      	beq.n	8006a8a <HAL_UART_IRQHandler+0x30a>
 8006a88:	e0c3      	b.n	8006c12 <HAL_UART_IRQHandler+0x492>
    {
      /* DMA mode enabled */
      /* Check received length : If all expected data are received, do nothing,
         (DMA cplt callback will be called).
         Otherwise, if at least one data has already been received, IDLE event is to be notified to user */
      uint16_t nb_remaining_rx_data = (uint16_t) __HAL_DMA_GET_COUNTER(huart->hdmarx);
 8006a8a:	687b      	ldr	r3, [r7, #4]
 8006a8c:	2280      	movs	r2, #128	; 0x80
 8006a8e:	589b      	ldr	r3, [r3, r2]
 8006a90:	681b      	ldr	r3, [r3, #0]
 8006a92:	685a      	ldr	r2, [r3, #4]
 8006a94:	217e      	movs	r1, #126	; 0x7e
 8006a96:	187b      	adds	r3, r7, r1
 8006a98:	801a      	strh	r2, [r3, #0]
      if ((nb_remaining_rx_data > 0U)
 8006a9a:	187b      	adds	r3, r7, r1
 8006a9c:	881b      	ldrh	r3, [r3, #0]
 8006a9e:	2b00      	cmp	r3, #0
 8006aa0:	d100      	bne.n	8006aa4 <HAL_UART_IRQHandler+0x324>
 8006aa2:	e097      	b.n	8006bd4 <HAL_UART_IRQHandler+0x454>
          && (nb_remaining_rx_data < huart->RxXferSize))
 8006aa4:	687b      	ldr	r3, [r7, #4]
 8006aa6:	225c      	movs	r2, #92	; 0x5c
 8006aa8:	5a9b      	ldrh	r3, [r3, r2]
 8006aaa:	187a      	adds	r2, r7, r1
 8006aac:	8812      	ldrh	r2, [r2, #0]
 8006aae:	429a      	cmp	r2, r3
 8006ab0:	d300      	bcc.n	8006ab4 <HAL_UART_IRQHandler+0x334>
 8006ab2:	e08f      	b.n	8006bd4 <HAL_UART_IRQHandler+0x454>
      {
        /* Reception is not complete */
        huart->RxXferCount = nb_remaining_rx_data;
 8006ab4:	687b      	ldr	r3, [r7, #4]
 8006ab6:	187a      	adds	r2, r7, r1
 8006ab8:	215e      	movs	r1, #94	; 0x5e
 8006aba:	8812      	ldrh	r2, [r2, #0]
 8006abc:	525a      	strh	r2, [r3, r1]

        /* In Normal mode, end DMA xfer and HAL UART Rx process*/
        if (HAL_IS_BIT_CLR(huart->hdmarx->Instance->CCR, DMA_CCR_CIRC))
 8006abe:	687b      	ldr	r3, [r7, #4]
 8006ac0:	2280      	movs	r2, #128	; 0x80
 8006ac2:	589b      	ldr	r3, [r3, r2]
 8006ac4:	681b      	ldr	r3, [r3, #0]
 8006ac6:	681b      	ldr	r3, [r3, #0]
 8006ac8:	2220      	movs	r2, #32
 8006aca:	4013      	ands	r3, r2
 8006acc:	d170      	bne.n	8006bb0 <HAL_UART_IRQHandler+0x430>
  __ASM volatile ("MRS %0, primask" : "=r" (result) :: "memory");
 8006ace:	f3ef 8310 	mrs	r3, PRIMASK
 8006ad2:	633b      	str	r3, [r7, #48]	; 0x30
  return(result);
 8006ad4:	6b3b      	ldr	r3, [r7, #48]	; 0x30
        {
          /* Disable PE and ERR (Frame error, noise error, overrun error) interrupts */
          ATOMIC_CLEAR_BIT(huart->Instance->CR1, USART_CR1_PEIE);
 8006ad6:	67bb      	str	r3, [r7, #120]	; 0x78
 8006ad8:	2301      	movs	r3, #1
 8006ada:	637b      	str	r3, [r7, #52]	; 0x34
  __ASM volatile ("MSR primask, %0" : : "r" (priMask) : "memory");
 8006adc:	6b7b      	ldr	r3, [r7, #52]	; 0x34
 8006ade:	f383 8810 	msr	PRIMASK, r3
}
 8006ae2:	46c0      	nop			; (mov r8, r8)
 8006ae4:	687b      	ldr	r3, [r7, #4]
 8006ae6:	681b      	ldr	r3, [r3, #0]
 8006ae8:	681a      	ldr	r2, [r3, #0]
 8006aea:	687b      	ldr	r3, [r7, #4]
 8006aec:	681b      	ldr	r3, [r3, #0]
 8006aee:	49c4      	ldr	r1, [pc, #784]	; (8006e00 <HAL_UART_IRQHandler+0x680>)
 8006af0:	400a      	ands	r2, r1
 8006af2:	601a      	str	r2, [r3, #0]
 8006af4:	6fbb      	ldr	r3, [r7, #120]	; 0x78
 8006af6:	63bb      	str	r3, [r7, #56]	; 0x38
  __ASM volatile ("MSR primask, %0" : : "r" (priMask) : "memory");
 8006af8:	6bbb      	ldr	r3, [r7, #56]	; 0x38
 8006afa:	f383 8810 	msr	PRIMASK, r3
}
 8006afe:	46c0      	nop			; (mov r8, r8)
  __ASM volatile ("MRS %0, primask" : "=r" (result) :: "memory");
 8006b00:	f3ef 8310 	mrs	r3, PRIMASK
 8006b04:	63fb      	str	r3, [r7, #60]	; 0x3c
  return(result);
 8006b06:	6bfb      	ldr	r3, [r7, #60]	; 0x3c
          ATOMIC_CLEAR_BIT(huart->Instance->CR3, USART_CR3_EIE);
 8006b08:	677b      	str	r3, [r7, #116]	; 0x74
 8006b0a:	2301      	movs	r3, #1
 8006b0c:	643b      	str	r3, [r7, #64]	; 0x40
  __ASM volatile ("MSR primask, %0" : : "r" (priMask) : "memory");
 8006b0e:	6c3b      	ldr	r3, [r7, #64]	; 0x40
 8006b10:	f383 8810 	msr	PRIMASK, r3
}
 8006b14:	46c0      	nop			; (mov r8, r8)
 8006b16:	687b      	ldr	r3, [r7, #4]
 8006b18:	681b      	ldr	r3, [r3, #0]
 8006b1a:	689a      	ldr	r2, [r3, #8]
 8006b1c:	687b      	ldr	r3, [r7, #4]
 8006b1e:	681b      	ldr	r3, [r3, #0]
 8006b20:	2101      	movs	r1, #1
 8006b22:	438a      	bics	r2, r1
 8006b24:	609a      	str	r2, [r3, #8]
 8006b26:	6f7b      	ldr	r3, [r7, #116]	; 0x74
 8006b28:	647b      	str	r3, [r7, #68]	; 0x44
  __ASM volatile ("MSR primask, %0" : : "r" (priMask) : "memory");
 8006b2a:	6c7b      	ldr	r3, [r7, #68]	; 0x44
 8006b2c:	f383 8810 	msr	PRIMASK, r3
}
 8006b30:	46c0      	nop			; (mov r8, r8)
  __ASM volatile ("MRS %0, primask" : "=r" (result) :: "memory");
 8006b32:	f3ef 8310 	mrs	r3, PRIMASK
 8006b36:	64bb      	str	r3, [r7, #72]	; 0x48
  return(result);
 8006b38:	6cbb      	ldr	r3, [r7, #72]	; 0x48

          /* Disable the DMA transfer for the receiver request by resetting the DMAR bit
             in the UART CR3 register */
          ATOMIC_CLEAR_BIT(huart->Instance->CR3, USART_CR3_DMAR);
 8006b3a:	673b      	str	r3, [r7, #112]	; 0x70
 8006b3c:	2301      	movs	r3, #1
 8006b3e:	64fb      	str	r3, [r7, #76]	; 0x4c
  __ASM volatile ("MSR primask, %0" : : "r" (priMask) : "memory");
 8006b40:	6cfb      	ldr	r3, [r7, #76]	; 0x4c
 8006b42:	f383 8810 	msr	PRIMASK, r3
}
 8006b46:	46c0      	nop			; (mov r8, r8)
 8006b48:	687b      	ldr	r3, [r7, #4]
 8006b4a:	681b      	ldr	r3, [r3, #0]
 8006b4c:	689a      	ldr	r2, [r3, #8]
 8006b4e:	687b      	ldr	r3, [r7, #4]
 8006b50:	681b      	ldr	r3, [r3, #0]
 8006b52:	2140      	movs	r1, #64	; 0x40
 8006b54:	438a      	bics	r2, r1
 8006b56:	609a      	str	r2, [r3, #8]
 8006b58:	6f3b      	ldr	r3, [r7, #112]	; 0x70
 8006b5a:	653b      	str	r3, [r7, #80]	; 0x50
  __ASM volatile ("MSR primask, %0" : : "r" (priMask) : "memory");
 8006b5c:	6d3b      	ldr	r3, [r7, #80]	; 0x50
 8006b5e:	f383 8810 	msr	PRIMASK, r3
}
 8006b62:	46c0      	nop			; (mov r8, r8)

          /* At end of Rx process, restore huart->RxState to Ready */
          huart->RxState = HAL_UART_STATE_READY;
 8006b64:	687b      	ldr	r3, [r7, #4]
 8006b66:	228c      	movs	r2, #140	; 0x8c
 8006b68:	2120      	movs	r1, #32
 8006b6a:	5099      	str	r1, [r3, r2]
          huart->ReceptionType = HAL_UART_RECEPTION_STANDARD;
 8006b6c:	687b      	ldr	r3, [r7, #4]
 8006b6e:	2200      	movs	r2, #0
 8006b70:	66da      	str	r2, [r3, #108]	; 0x6c
  __ASM volatile ("MRS %0, primask" : "=r" (result) :: "memory");
 8006b72:	f3ef 8310 	mrs	r3, PRIMASK
 8006b76:	657b      	str	r3, [r7, #84]	; 0x54
  return(result);
 8006b78:	6d7b      	ldr	r3, [r7, #84]	; 0x54

          ATOMIC_CLEAR_BIT(huart->Instance->CR1, USART_CR1_IDLEIE);
 8006b7a:	66fb      	str	r3, [r7, #108]	; 0x6c
 8006b7c:	2301      	movs	r3, #1
 8006b7e:	65bb      	str	r3, [r7, #88]	; 0x58
  __ASM volatile ("MSR primask, %0" : : "r" (priMask) : "memory");
 8006b80:	6dbb      	ldr	r3, [r7, #88]	; 0x58
 8006b82:	f383 8810 	msr	PRIMASK, r3
}
 8006b86:	46c0      	nop			; (mov r8, r8)
 8006b88:	687b      	ldr	r3, [r7, #4]
 8006b8a:	681b      	ldr	r3, [r3, #0]
 8006b8c:	681a      	ldr	r2, [r3, #0]
 8006b8e:	687b      	ldr	r3, [r7, #4]
 8006b90:	681b      	ldr	r3, [r3, #0]
 8006b92:	2110      	movs	r1, #16
 8006b94:	438a      	bics	r2, r1
 8006b96:	601a      	str	r2, [r3, #0]
 8006b98:	6efb      	ldr	r3, [r7, #108]	; 0x6c
 8006b9a:	65fb      	str	r3, [r7, #92]	; 0x5c
  __ASM volatile ("MSR primask, %0" : : "r" (priMask) : "memory");
 8006b9c:	6dfb      	ldr	r3, [r7, #92]	; 0x5c
 8006b9e:	f383 8810 	msr	PRIMASK, r3
}
 8006ba2:	46c0      	nop			; (mov r8, r8)

          /* Last bytes received, so no need as the abort is immediate */
          (void)HAL_DMA_Abort(huart->hdmarx);
 8006ba4:	687b      	ldr	r3, [r7, #4]
 8006ba6:	2280      	movs	r2, #128	; 0x80
 8006ba8:	589b      	ldr	r3, [r3, r2]
 8006baa:	0018      	movs	r0, r3
 8006bac:	f7fe f9ac 	bl	8004f08 <HAL_DMA_Abort>
        }

        /* Initialize type of RxEvent that correspond to RxEvent callback execution;
           In this case, Rx Event type is Idle Event */
        huart->RxEventType = HAL_UART_RXEVENT_IDLE;
 8006bb0:	687b      	ldr	r3, [r7, #4]
 8006bb2:	2202      	movs	r2, #2
 8006bb4:	671a      	str	r2, [r3, #112]	; 0x70
#if (USE_HAL_UART_REGISTER_CALLBACKS == 1)
        /*Call registered Rx Event callback*/
        huart->RxEventCallback(huart, (huart->RxXferSize - huart->RxXferCount));
#else
        /*Call legacy weak Rx Event callback*/
        HAL_UARTEx_RxEventCallback(huart, (huart->RxXferSize - huart->RxXferCount));
 8006bb6:	687b      	ldr	r3, [r7, #4]
 8006bb8:	225c      	movs	r2, #92	; 0x5c
 8006bba:	5a9a      	ldrh	r2, [r3, r2]
 8006bbc:	687b      	ldr	r3, [r7, #4]
 8006bbe:	215e      	movs	r1, #94	; 0x5e
 8006bc0:	5a5b      	ldrh	r3, [r3, r1]
 8006bc2:	b29b      	uxth	r3, r3
 8006bc4:	1ad3      	subs	r3, r2, r3
 8006bc6:	b29a      	uxth	r2, r3
 8006bc8:	687b      	ldr	r3, [r7, #4]
 8006bca:	0011      	movs	r1, r2
 8006bcc:	0018      	movs	r0, r3
 8006bce:	f000 f92d 	bl	8006e2c <HAL_UARTEx_RxEventCallback>
            HAL_UARTEx_RxEventCallback(huart, huart->RxXferSize);
#endif /* (USE_HAL_UART_REGISTER_CALLBACKS) */
          }
        }
      }
      return;
 8006bd2:	e10c      	b.n	8006dee <HAL_UART_IRQHandler+0x66e>
        if (nb_remaining_rx_data == huart->RxXferSize)
 8006bd4:	687b      	ldr	r3, [r7, #4]
 8006bd6:	225c      	movs	r2, #92	; 0x5c
 8006bd8:	5a9b      	ldrh	r3, [r3, r2]
 8006bda:	227e      	movs	r2, #126	; 0x7e
 8006bdc:	18ba      	adds	r2, r7, r2
 8006bde:	8812      	ldrh	r2, [r2, #0]
 8006be0:	429a      	cmp	r2, r3
 8006be2:	d000      	beq.n	8006be6 <HAL_UART_IRQHandler+0x466>
 8006be4:	e103      	b.n	8006dee <HAL_UART_IRQHandler+0x66e>
          if (HAL_IS_BIT_SET(huart->hdmarx->Instance->CCR, DMA_CCR_CIRC))
 8006be6:	687b      	ldr	r3, [r7, #4]
 8006be8:	2280      	movs	r2, #128	; 0x80
 8006bea:	589b      	ldr	r3, [r3, r2]
 8006bec:	681b      	ldr	r3, [r3, #0]
 8006bee:	681b      	ldr	r3, [r3, #0]
 8006bf0:	2220      	movs	r2, #32
 8006bf2:	4013      	ands	r3, r2
 8006bf4:	2b20      	cmp	r3, #32
 8006bf6:	d000      	beq.n	8006bfa <HAL_UART_IRQHandler+0x47a>
 8006bf8:	e0f9      	b.n	8006dee <HAL_UART_IRQHandler+0x66e>
            huart->RxEventType = HAL_UART_RXEVENT_IDLE;
 8006bfa:	687b      	ldr	r3, [r7, #4]
 8006bfc:	2202      	movs	r2, #2
 8006bfe:	671a      	str	r2, [r3, #112]	; 0x70
            HAL_UARTEx_RxEventCallback(huart, huart->RxXferSize);
 8006c00:	687b      	ldr	r3, [r7, #4]
 8006c02:	225c      	movs	r2, #92	; 0x5c
 8006c04:	5a9a      	ldrh	r2, [r3, r2]
 8006c06:	687b      	ldr	r3, [r7, #4]
 8006c08:	0011      	movs	r1, r2
 8006c0a:	0018      	movs	r0, r3
 8006c0c:	f000 f90e 	bl	8006e2c <HAL_UARTEx_RxEventCallback>
      return;
 8006c10:	e0ed      	b.n	8006dee <HAL_UART_IRQHandler+0x66e>
    else
    {
      /* DMA mode not enabled */
      /* Check received length : If all expected data are received, do nothing.
         Otherwise, if at least one data has already been received, IDLE event is to be notified to user */
      uint16_t nb_rx_data = huart->RxXferSize - huart->RxXferCount;
 8006c12:	687b      	ldr	r3, [r7, #4]
 8006c14:	225c      	movs	r2, #92	; 0x5c
 8006c16:	5a99      	ldrh	r1, [r3, r2]
 8006c18:	687b      	ldr	r3, [r7, #4]
 8006c1a:	225e      	movs	r2, #94	; 0x5e
 8006c1c:	5a9b      	ldrh	r3, [r3, r2]
 8006c1e:	b29a      	uxth	r2, r3
 8006c20:	208e      	movs	r0, #142	; 0x8e
 8006c22:	183b      	adds	r3, r7, r0
 8006c24:	1a8a      	subs	r2, r1, r2
 8006c26:	801a      	strh	r2, [r3, #0]
      if ((huart->RxXferCount > 0U)
 8006c28:	687b      	ldr	r3, [r7, #4]
 8006c2a:	225e      	movs	r2, #94	; 0x5e
 8006c2c:	5a9b      	ldrh	r3, [r3, r2]
 8006c2e:	b29b      	uxth	r3, r3
 8006c30:	2b00      	cmp	r3, #0
 8006c32:	d100      	bne.n	8006c36 <HAL_UART_IRQHandler+0x4b6>
 8006c34:	e0dd      	b.n	8006df2 <HAL_UART_IRQHandler+0x672>
          && (nb_rx_data > 0U))
 8006c36:	183b      	adds	r3, r7, r0
 8006c38:	881b      	ldrh	r3, [r3, #0]
 8006c3a:	2b00      	cmp	r3, #0
 8006c3c:	d100      	bne.n	8006c40 <HAL_UART_IRQHandler+0x4c0>
 8006c3e:	e0d8      	b.n	8006df2 <HAL_UART_IRQHandler+0x672>
  __ASM volatile ("MRS %0, primask" : "=r" (result) :: "memory");
 8006c40:	f3ef 8310 	mrs	r3, PRIMASK
 8006c44:	60fb      	str	r3, [r7, #12]
  return(result);
 8006c46:	68fb      	ldr	r3, [r7, #12]
      {
        /* Disable the UART Parity Error Interrupt and RXNE interrupts */
        ATOMIC_CLEAR_BIT(huart->Instance->CR1, (USART_CR1_RXNEIE_RXFNEIE | USART_CR1_PEIE));
 8006c48:	2488      	movs	r4, #136	; 0x88
 8006c4a:	193a      	adds	r2, r7, r4
 8006c4c:	6013      	str	r3, [r2, #0]
 8006c4e:	2301      	movs	r3, #1
 8006c50:	613b      	str	r3, [r7, #16]
  __ASM volatile ("MSR primask, %0" : : "r" (priMask) : "memory");
 8006c52:	693b      	ldr	r3, [r7, #16]
 8006c54:	f383 8810 	msr	PRIMASK, r3
}
 8006c58:	46c0      	nop			; (mov r8, r8)
 8006c5a:	687b      	ldr	r3, [r7, #4]
 8006c5c:	681b      	ldr	r3, [r3, #0]
 8006c5e:	681a      	ldr	r2, [r3, #0]
 8006c60:	687b      	ldr	r3, [r7, #4]
 8006c62:	681b      	ldr	r3, [r3, #0]
 8006c64:	4967      	ldr	r1, [pc, #412]	; (8006e04 <HAL_UART_IRQHandler+0x684>)
 8006c66:	400a      	ands	r2, r1
 8006c68:	601a      	str	r2, [r3, #0]
 8006c6a:	193b      	adds	r3, r7, r4
 8006c6c:	681b      	ldr	r3, [r3, #0]
 8006c6e:	617b      	str	r3, [r7, #20]
  __ASM volatile ("MSR primask, %0" : : "r" (priMask) : "memory");
 8006c70:	697b      	ldr	r3, [r7, #20]
 8006c72:	f383 8810 	msr	PRIMASK, r3
}
 8006c76:	46c0      	nop			; (mov r8, r8)
  __ASM volatile ("MRS %0, primask" : "=r" (result) :: "memory");
 8006c78:	f3ef 8310 	mrs	r3, PRIMASK
 8006c7c:	61bb      	str	r3, [r7, #24]
  return(result);
 8006c7e:	69bb      	ldr	r3, [r7, #24]

        /* Disable the UART Error Interrupt:(Frame error, noise error, overrun error) and RX FIFO Threshold interrupt */
        ATOMIC_CLEAR_BIT(huart->Instance->CR3, (USART_CR3_EIE | USART_CR3_RXFTIE));
 8006c80:	2484      	movs	r4, #132	; 0x84
 8006c82:	193a      	adds	r2, r7, r4
 8006c84:	6013      	str	r3, [r2, #0]
 8006c86:	2301      	movs	r3, #1
 8006c88:	61fb      	str	r3, [r7, #28]
  __ASM volatile ("MSR primask, %0" : : "r" (priMask) : "memory");
 8006c8a:	69fb      	ldr	r3, [r7, #28]
 8006c8c:	f383 8810 	msr	PRIMASK, r3
}
 8006c90:	46c0      	nop			; (mov r8, r8)
 8006c92:	687b      	ldr	r3, [r7, #4]
 8006c94:	681b      	ldr	r3, [r3, #0]
 8006c96:	689a      	ldr	r2, [r3, #8]
 8006c98:	687b      	ldr	r3, [r7, #4]
 8006c9a:	681b      	ldr	r3, [r3, #0]
 8006c9c:	495a      	ldr	r1, [pc, #360]	; (8006e08 <HAL_UART_IRQHandler+0x688>)
 8006c9e:	400a      	ands	r2, r1
 8006ca0:	609a      	str	r2, [r3, #8]
 8006ca2:	193b      	adds	r3, r7, r4
 8006ca4:	681b      	ldr	r3, [r3, #0]
 8006ca6:	623b      	str	r3, [r7, #32]
  __ASM volatile ("MSR primask, %0" : : "r" (priMask) : "memory");
 8006ca8:	6a3b      	ldr	r3, [r7, #32]
 8006caa:	f383 8810 	msr	PRIMASK, r3
}
 8006cae:	46c0      	nop			; (mov r8, r8)

        /* Rx process is completed, restore huart->RxState to Ready */
        huart->RxState = HAL_UART_STATE_READY;
 8006cb0:	687b      	ldr	r3, [r7, #4]
 8006cb2:	228c      	movs	r2, #140	; 0x8c
 8006cb4:	2120      	movs	r1, #32
 8006cb6:	5099      	str	r1, [r3, r2]
        huart->ReceptionType = HAL_UART_RECEPTION_STANDARD;
 8006cb8:	687b      	ldr	r3, [r7, #4]
 8006cba:	2200      	movs	r2, #0
 8006cbc:	66da      	str	r2, [r3, #108]	; 0x6c

        /* Clear RxISR function pointer */
        huart->RxISR = NULL;
 8006cbe:	687b      	ldr	r3, [r7, #4]
 8006cc0:	2200      	movs	r2, #0
 8006cc2:	675a      	str	r2, [r3, #116]	; 0x74
  __ASM volatile ("MRS %0, primask" : "=r" (result) :: "memory");
 8006cc4:	f3ef 8310 	mrs	r3, PRIMASK
 8006cc8:	627b      	str	r3, [r7, #36]	; 0x24
  return(result);
 8006cca:	6a7b      	ldr	r3, [r7, #36]	; 0x24

        ATOMIC_CLEAR_BIT(huart->Instance->CR1, USART_CR1_IDLEIE);
 8006ccc:	2480      	movs	r4, #128	; 0x80
 8006cce:	193a      	adds	r2, r7, r4
 8006cd0:	6013      	str	r3, [r2, #0]
 8006cd2:	2301      	movs	r3, #1
 8006cd4:	62bb      	str	r3, [r7, #40]	; 0x28
  __ASM volatile ("MSR primask, %0" : : "r" (priMask) : "memory");
 8006cd6:	6abb      	ldr	r3, [r7, #40]	; 0x28
 8006cd8:	f383 8810 	msr	PRIMASK, r3
}
 8006cdc:	46c0      	nop			; (mov r8, r8)
 8006cde:	687b      	ldr	r3, [r7, #4]
 8006ce0:	681b      	ldr	r3, [r3, #0]
 8006ce2:	681a      	ldr	r2, [r3, #0]
 8006ce4:	687b      	ldr	r3, [r7, #4]
 8006ce6:	681b      	ldr	r3, [r3, #0]
 8006ce8:	2110      	movs	r1, #16
 8006cea:	438a      	bics	r2, r1
 8006cec:	601a      	str	r2, [r3, #0]
 8006cee:	193b      	adds	r3, r7, r4
 8006cf0:	681b      	ldr	r3, [r3, #0]
 8006cf2:	62fb      	str	r3, [r7, #44]	; 0x2c
  __ASM volatile ("MSR primask, %0" : : "r" (priMask) : "memory");
 8006cf4:	6afb      	ldr	r3, [r7, #44]	; 0x2c
 8006cf6:	f383 8810 	msr	PRIMASK, r3
}
 8006cfa:	46c0      	nop			; (mov r8, r8)

        /* Initialize type of RxEvent that correspond to RxEvent callback execution;
           In this case, Rx Event type is Idle Event */
        huart->RxEventType = HAL_UART_RXEVENT_IDLE;
 8006cfc:	687b      	ldr	r3, [r7, #4]
 8006cfe:	2202      	movs	r2, #2
 8006d00:	671a      	str	r2, [r3, #112]	; 0x70
#if (USE_HAL_UART_REGISTER_CALLBACKS == 1)
        /*Call registered Rx complete callback*/
        huart->RxEventCallback(huart, nb_rx_data);
#else
        /*Call legacy weak Rx Event callback*/
        HAL_UARTEx_RxEventCallback(huart, nb_rx_data);
 8006d02:	183b      	adds	r3, r7, r0
 8006d04:	881a      	ldrh	r2, [r3, #0]
 8006d06:	687b      	ldr	r3, [r7, #4]
 8006d08:	0011      	movs	r1, r2
 8006d0a:	0018      	movs	r0, r3
 8006d0c:	f000 f88e 	bl	8006e2c <HAL_UARTEx_RxEventCallback>
#endif /* (USE_HAL_UART_REGISTER_CALLBACKS) */
      }
      return;
 8006d10:	e06f      	b.n	8006df2 <HAL_UART_IRQHandler+0x672>
    }
  }

  /* UART wakeup from Stop mode interrupt occurred ---------------------------*/
  if (((isrflags & USART_ISR_WUF) != 0U) && ((cr3its & USART_CR3_WUFIE) != 0U))
 8006d12:	23a4      	movs	r3, #164	; 0xa4
 8006d14:	18fb      	adds	r3, r7, r3
 8006d16:	681a      	ldr	r2, [r3, #0]
 8006d18:	2380      	movs	r3, #128	; 0x80
 8006d1a:	035b      	lsls	r3, r3, #13
 8006d1c:	4013      	ands	r3, r2
 8006d1e:	d010      	beq.n	8006d42 <HAL_UART_IRQHandler+0x5c2>
 8006d20:	239c      	movs	r3, #156	; 0x9c
 8006d22:	18fb      	adds	r3, r7, r3
 8006d24:	681a      	ldr	r2, [r3, #0]
 8006d26:	2380      	movs	r3, #128	; 0x80
 8006d28:	03db      	lsls	r3, r3, #15
 8006d2a:	4013      	ands	r3, r2
 8006d2c:	d009      	beq.n	8006d42 <HAL_UART_IRQHandler+0x5c2>
  {
    __HAL_UART_CLEAR_FLAG(huart, UART_CLEAR_WUF);
 8006d2e:	687b      	ldr	r3, [r7, #4]
 8006d30:	681b      	ldr	r3, [r3, #0]
 8006d32:	2280      	movs	r2, #128	; 0x80
 8006d34:	0352      	lsls	r2, r2, #13
 8006d36:	621a      	str	r2, [r3, #32]
#if (USE_HAL_UART_REGISTER_CALLBACKS == 1)
    /* Call registered Wakeup Callback */
    huart->WakeupCallback(huart);
#else
    /* Call legacy weak Wakeup Callback */
    HAL_UARTEx_WakeupCallback(huart);
 8006d38:	687b      	ldr	r3, [r7, #4]
 8006d3a:	0018      	movs	r0, r3
 8006d3c:	f000 fcce 	bl	80076dc <HAL_UARTEx_WakeupCallback>
#endif /* USE_HAL_UART_REGISTER_CALLBACKS */
    return;
 8006d40:	e05a      	b.n	8006df8 <HAL_UART_IRQHandler+0x678>
  }

  /* UART in mode Transmitter ------------------------------------------------*/
  if (((isrflags & USART_ISR_TXE_TXFNF) != 0U)
 8006d42:	23a4      	movs	r3, #164	; 0xa4
 8006d44:	18fb      	adds	r3, r7, r3
 8006d46:	681b      	ldr	r3, [r3, #0]
 8006d48:	2280      	movs	r2, #128	; 0x80
 8006d4a:	4013      	ands	r3, r2
 8006d4c:	d016      	beq.n	8006d7c <HAL_UART_IRQHandler+0x5fc>
      && (((cr1its & USART_CR1_TXEIE_TXFNFIE) != 0U)
 8006d4e:	23a0      	movs	r3, #160	; 0xa0
 8006d50:	18fb      	adds	r3, r7, r3
 8006d52:	681b      	ldr	r3, [r3, #0]
 8006d54:	2280      	movs	r2, #128	; 0x80
 8006d56:	4013      	ands	r3, r2
 8006d58:	d106      	bne.n	8006d68 <HAL_UART_IRQHandler+0x5e8>
          || ((cr3its & USART_CR3_TXFTIE) != 0U)))
 8006d5a:	239c      	movs	r3, #156	; 0x9c
 8006d5c:	18fb      	adds	r3, r7, r3
 8006d5e:	681a      	ldr	r2, [r3, #0]
 8006d60:	2380      	movs	r3, #128	; 0x80
 8006d62:	041b      	lsls	r3, r3, #16
 8006d64:	4013      	ands	r3, r2
 8006d66:	d009      	beq.n	8006d7c <HAL_UART_IRQHandler+0x5fc>
  {
    if (huart->TxISR != NULL)
 8006d68:	687b      	ldr	r3, [r7, #4]
 8006d6a:	6f9b      	ldr	r3, [r3, #120]	; 0x78
 8006d6c:	2b00      	cmp	r3, #0
 8006d6e:	d042      	beq.n	8006df6 <HAL_UART_IRQHandler+0x676>
    {
      huart->TxISR(huart);
 8006d70:	687b      	ldr	r3, [r7, #4]
 8006d72:	6f9b      	ldr	r3, [r3, #120]	; 0x78
 8006d74:	687a      	ldr	r2, [r7, #4]
 8006d76:	0010      	movs	r0, r2
 8006d78:	4798      	blx	r3
    }
    return;
 8006d7a:	e03c      	b.n	8006df6 <HAL_UART_IRQHandler+0x676>
  }

  /* UART in mode Transmitter (transmission end) -----------------------------*/
  if (((isrflags & USART_ISR_TC) != 0U) && ((cr1its & USART_CR1_TCIE) != 0U))
 8006d7c:	23a4      	movs	r3, #164	; 0xa4
 8006d7e:	18fb      	adds	r3, r7, r3
 8006d80:	681b      	ldr	r3, [r3, #0]
 8006d82:	2240      	movs	r2, #64	; 0x40
 8006d84:	4013      	ands	r3, r2
 8006d86:	d00a      	beq.n	8006d9e <HAL_UART_IRQHandler+0x61e>
 8006d88:	23a0      	movs	r3, #160	; 0xa0
 8006d8a:	18fb      	adds	r3, r7, r3
 8006d8c:	681b      	ldr	r3, [r3, #0]
 8006d8e:	2240      	movs	r2, #64	; 0x40
 8006d90:	4013      	ands	r3, r2
 8006d92:	d004      	beq.n	8006d9e <HAL_UART_IRQHandler+0x61e>
  {
    UART_EndTransmit_IT(huart);
 8006d94:	687b      	ldr	r3, [r7, #4]
 8006d96:	0018      	movs	r0, r3
 8006d98:	f000 fc01 	bl	800759e <UART_EndTransmit_IT>
    return;
 8006d9c:	e02c      	b.n	8006df8 <HAL_UART_IRQHandler+0x678>
  }

  /* UART TX Fifo Empty occurred ----------------------------------------------*/
  if (((isrflags & USART_ISR_TXFE) != 0U) && ((cr1its & USART_CR1_TXFEIE) != 0U))
 8006d9e:	23a4      	movs	r3, #164	; 0xa4
 8006da0:	18fb      	adds	r3, r7, r3
 8006da2:	681a      	ldr	r2, [r3, #0]
 8006da4:	2380      	movs	r3, #128	; 0x80
 8006da6:	041b      	lsls	r3, r3, #16
 8006da8:	4013      	ands	r3, r2
 8006daa:	d00b      	beq.n	8006dc4 <HAL_UART_IRQHandler+0x644>
 8006dac:	23a0      	movs	r3, #160	; 0xa0
 8006dae:	18fb      	adds	r3, r7, r3
 8006db0:	681a      	ldr	r2, [r3, #0]
 8006db2:	2380      	movs	r3, #128	; 0x80
 8006db4:	05db      	lsls	r3, r3, #23
 8006db6:	4013      	ands	r3, r2
 8006db8:	d004      	beq.n	8006dc4 <HAL_UART_IRQHandler+0x644>
#if (USE_HAL_UART_REGISTER_CALLBACKS == 1)
    /* Call registered Tx Fifo Empty Callback */
    huart->TxFifoEmptyCallback(huart);
#else
    /* Call legacy weak Tx Fifo Empty Callback */
    HAL_UARTEx_TxFifoEmptyCallback(huart);
 8006dba:	687b      	ldr	r3, [r7, #4]
 8006dbc:	0018      	movs	r0, r3
 8006dbe:	f000 fc9d 	bl	80076fc <HAL_UARTEx_TxFifoEmptyCallback>
#endif /* USE_HAL_UART_REGISTER_CALLBACKS */
    return;
 8006dc2:	e019      	b.n	8006df8 <HAL_UART_IRQHandler+0x678>
  }

  /* UART RX Fifo Full occurred ----------------------------------------------*/
  if (((isrflags & USART_ISR_RXFF) != 0U) && ((cr1its & USART_CR1_RXFFIE) != 0U))
 8006dc4:	23a4      	movs	r3, #164	; 0xa4
 8006dc6:	18fb      	adds	r3, r7, r3
 8006dc8:	681a      	ldr	r2, [r3, #0]
 8006dca:	2380      	movs	r3, #128	; 0x80
 8006dcc:	045b      	lsls	r3, r3, #17
 8006dce:	4013      	ands	r3, r2
 8006dd0:	d012      	beq.n	8006df8 <HAL_UART_IRQHandler+0x678>
 8006dd2:	23a0      	movs	r3, #160	; 0xa0
 8006dd4:	18fb      	adds	r3, r7, r3
 8006dd6:	681b      	ldr	r3, [r3, #0]
 8006dd8:	2b00      	cmp	r3, #0
 8006dda:	da0d      	bge.n	8006df8 <HAL_UART_IRQHandler+0x678>
#if (USE_HAL_UART_REGISTER_CALLBACKS == 1)
    /* Call registered Rx Fifo Full Callback */
    huart->RxFifoFullCallback(huart);
#else
    /* Call legacy weak Rx Fifo Full Callback */
    HAL_UARTEx_RxFifoFullCallback(huart);
 8006ddc:	687b      	ldr	r3, [r7, #4]
 8006dde:	0018      	movs	r0, r3
 8006de0:	f000 fc84 	bl	80076ec <HAL_UARTEx_RxFifoFullCallback>
#endif /* USE_HAL_UART_REGISTER_CALLBACKS */
    return;
 8006de4:	e008      	b.n	8006df8 <HAL_UART_IRQHandler+0x678>
      return;
 8006de6:	46c0      	nop			; (mov r8, r8)
 8006de8:	e006      	b.n	8006df8 <HAL_UART_IRQHandler+0x678>
    return;
 8006dea:	46c0      	nop			; (mov r8, r8)
 8006dec:	e004      	b.n	8006df8 <HAL_UART_IRQHandler+0x678>
      return;
 8006dee:	46c0      	nop			; (mov r8, r8)
 8006df0:	e002      	b.n	8006df8 <HAL_UART_IRQHandler+0x678>
      return;
 8006df2:	46c0      	nop			; (mov r8, r8)
 8006df4:	e000      	b.n	8006df8 <HAL_UART_IRQHandler+0x678>
    return;
 8006df6:	46c0      	nop			; (mov r8, r8)
  }
}
 8006df8:	46bd      	mov	sp, r7
 8006dfa:	b02a      	add	sp, #168	; 0xa8
 8006dfc:	bdb0      	pop	{r4, r5, r7, pc}
 8006dfe:	46c0      	nop			; (mov r8, r8)
 8006e00:	fffffeff 	.word	0xfffffeff
 8006e04:	fffffedf 	.word	0xfffffedf
 8006e08:	effffffe 	.word	0xeffffffe

08006e0c <HAL_UART_TxCpltCallback>:
  * @brief Tx Transfer completed callback.
  * @param huart UART handle.
  * @retval None
  */
__weak void HAL_UART_TxCpltCallback(UART_HandleTypeDef *huart)
{
 8006e0c:	b580      	push	{r7, lr}
 8006e0e:	b082      	sub	sp, #8
 8006e10:	af00      	add	r7, sp, #0
 8006e12:	6078      	str	r0, [r7, #4]
  UNUSED(huart);

  /* NOTE : This function should not be modified, when the callback is needed,
            the HAL_UART_TxCpltCallback can be implemented in the user file.
   */
}
 8006e14:	46c0      	nop			; (mov r8, r8)
 8006e16:	46bd      	mov	sp, r7
 8006e18:	b002      	add	sp, #8
 8006e1a:	bd80      	pop	{r7, pc}

08006e1c <HAL_UART_ErrorCallback>:
  * @brief  UART error callback.
  * @param  huart UART handle.
  * @retval None
  */
__weak void HAL_UART_ErrorCallback(UART_HandleTypeDef *huart)
{
 8006e1c:	b580      	push	{r7, lr}
 8006e1e:	b082      	sub	sp, #8
 8006e20:	af00      	add	r7, sp, #0
 8006e22:	6078      	str	r0, [r7, #4]
  UNUSED(huart);

  /* NOTE : This function should not be modified, when the callback is needed,
            the HAL_UART_ErrorCallback can be implemented in the user file.
   */
}
 8006e24:	46c0      	nop			; (mov r8, r8)
 8006e26:	46bd      	mov	sp, r7
 8006e28:	b002      	add	sp, #8
 8006e2a:	bd80      	pop	{r7, pc}

08006e2c <HAL_UARTEx_RxEventCallback>:
  * @param  Size  Number of data available in application reception buffer (indicates a position in
  *               reception buffer until which, data are available)
  * @retval None
  */
__weak void HAL_UARTEx_RxEventCallback(UART_HandleTypeDef *huart, uint16_t Size)
{
 8006e2c:	b580      	push	{r7, lr}
 8006e2e:	b082      	sub	sp, #8
 8006e30:	af00      	add	r7, sp, #0
 8006e32:	6078      	str	r0, [r7, #4]
 8006e34:	000a      	movs	r2, r1
 8006e36:	1cbb      	adds	r3, r7, #2
 8006e38:	801a      	strh	r2, [r3, #0]
  UNUSED(Size);

  /* NOTE : This function should not be modified, when the callback is needed,
            the HAL_UARTEx_RxEventCallback can be implemented in the user file.
   */
}
 8006e3a:	46c0      	nop			; (mov r8, r8)
 8006e3c:	46bd      	mov	sp, r7
 8006e3e:	b002      	add	sp, #8
 8006e40:	bd80      	pop	{r7, pc}
	...

08006e44 <UART_SetConfig>:
  * @brief Configure the UART peripheral.
  * @param huart UART handle.
  * @retval HAL status
  */
HAL_StatusTypeDef UART_SetConfig(UART_HandleTypeDef *huart)
{
 8006e44:	b580      	push	{r7, lr}
 8006e46:	b088      	sub	sp, #32
 8006e48:	af00      	add	r7, sp, #0
 8006e4a:	6078      	str	r0, [r7, #4]
  uint32_t tmpreg;
  uint16_t brrtemp;
  UART_ClockSourceTypeDef clocksource;
  uint32_t usartdiv;
  HAL_StatusTypeDef ret               = HAL_OK;
 8006e4c:	231a      	movs	r3, #26
 8006e4e:	18fb      	adds	r3, r7, r3
 8006e50:	2200      	movs	r2, #0
 8006e52:	701a      	strb	r2, [r3, #0]
  *  the UART Word Length, Parity, Mode and oversampling:
  *  set the M bits according to huart->Init.WordLength value
  *  set PCE and PS bits according to huart->Init.Parity value
  *  set TE and RE bits according to huart->Init.Mode value
  *  set OVER8 bit according to huart->Init.OverSampling value */
  tmpreg = (uint32_t)huart->Init.WordLength | huart->Init.Parity | huart->Init.Mode | huart->Init.OverSampling ;
 8006e54:	687b      	ldr	r3, [r7, #4]
 8006e56:	689a      	ldr	r2, [r3, #8]
 8006e58:	687b      	ldr	r3, [r7, #4]
 8006e5a:	691b      	ldr	r3, [r3, #16]
 8006e5c:	431a      	orrs	r2, r3
 8006e5e:	687b      	ldr	r3, [r7, #4]
 8006e60:	695b      	ldr	r3, [r3, #20]
 8006e62:	431a      	orrs	r2, r3
 8006e64:	687b      	ldr	r3, [r7, #4]
 8006e66:	69db      	ldr	r3, [r3, #28]
 8006e68:	4313      	orrs	r3, r2
 8006e6a:	61fb      	str	r3, [r7, #28]
  MODIFY_REG(huart->Instance->CR1, USART_CR1_FIELDS, tmpreg);
 8006e6c:	687b      	ldr	r3, [r7, #4]
 8006e6e:	681b      	ldr	r3, [r3, #0]
 8006e70:	681b      	ldr	r3, [r3, #0]
 8006e72:	4aa1      	ldr	r2, [pc, #644]	; (80070f8 <UART_SetConfig+0x2b4>)
 8006e74:	4013      	ands	r3, r2
 8006e76:	0019      	movs	r1, r3
 8006e78:	687b      	ldr	r3, [r7, #4]
 8006e7a:	681b      	ldr	r3, [r3, #0]
 8006e7c:	69fa      	ldr	r2, [r7, #28]
 8006e7e:	430a      	orrs	r2, r1
 8006e80:	601a      	str	r2, [r3, #0]

  /*-------------------------- USART CR2 Configuration -----------------------*/
  /* Configure the UART Stop Bits: Set STOP[13:12] bits according
  * to huart->Init.StopBits value */
  MODIFY_REG(huart->Instance->CR2, USART_CR2_STOP, huart->Init.StopBits);
 8006e82:	687b      	ldr	r3, [r7, #4]
 8006e84:	681b      	ldr	r3, [r3, #0]
 8006e86:	685b      	ldr	r3, [r3, #4]
 8006e88:	4a9c      	ldr	r2, [pc, #624]	; (80070fc <UART_SetConfig+0x2b8>)
 8006e8a:	4013      	ands	r3, r2
 8006e8c:	0019      	movs	r1, r3
 8006e8e:	687b      	ldr	r3, [r7, #4]
 8006e90:	68da      	ldr	r2, [r3, #12]
 8006e92:	687b      	ldr	r3, [r7, #4]
 8006e94:	681b      	ldr	r3, [r3, #0]
 8006e96:	430a      	orrs	r2, r1
 8006e98:	605a      	str	r2, [r3, #4]
  /* Configure
  * - UART HardWare Flow Control: set CTSE and RTSE bits according
  *   to huart->Init.HwFlowCtl value
  * - one-bit sampling method versus three samples' majority rule according
  *   to huart->Init.OneBitSampling (not applicable to LPUART) */
  tmpreg = (uint32_t)huart->Init.HwFlowCtl;
 8006e9a:	687b      	ldr	r3, [r7, #4]
 8006e9c:	699b      	ldr	r3, [r3, #24]
 8006e9e:	61fb      	str	r3, [r7, #28]

  if (!(UART_INSTANCE_LOWPOWER(huart)))
  {
    tmpreg |= huart->Init.OneBitSampling;
 8006ea0:	687b      	ldr	r3, [r7, #4]
 8006ea2:	6a1b      	ldr	r3, [r3, #32]
 8006ea4:	69fa      	ldr	r2, [r7, #28]
 8006ea6:	4313      	orrs	r3, r2
 8006ea8:	61fb      	str	r3, [r7, #28]
  }
  MODIFY_REG(huart->Instance->CR3, USART_CR3_FIELDS, tmpreg);
 8006eaa:	687b      	ldr	r3, [r7, #4]
 8006eac:	681b      	ldr	r3, [r3, #0]
 8006eae:	689b      	ldr	r3, [r3, #8]
 8006eb0:	4a93      	ldr	r2, [pc, #588]	; (8007100 <UART_SetConfig+0x2bc>)
 8006eb2:	4013      	ands	r3, r2
 8006eb4:	0019      	movs	r1, r3
 8006eb6:	687b      	ldr	r3, [r7, #4]
 8006eb8:	681b      	ldr	r3, [r3, #0]
 8006eba:	69fa      	ldr	r2, [r7, #28]
 8006ebc:	430a      	orrs	r2, r1
 8006ebe:	609a      	str	r2, [r3, #8]

  /*-------------------------- USART PRESC Configuration -----------------------*/
  /* Configure
  * - UART Clock Prescaler : set PRESCALER according to huart->Init.ClockPrescaler value */
  MODIFY_REG(huart->Instance->PRESC, USART_PRESC_PRESCALER, huart->Init.ClockPrescaler);
 8006ec0:	687b      	ldr	r3, [r7, #4]
 8006ec2:	681b      	ldr	r3, [r3, #0]
 8006ec4:	6adb      	ldr	r3, [r3, #44]	; 0x2c
 8006ec6:	220f      	movs	r2, #15
 8006ec8:	4393      	bics	r3, r2
 8006eca:	0019      	movs	r1, r3
 8006ecc:	687b      	ldr	r3, [r7, #4]
 8006ece:	6a5a      	ldr	r2, [r3, #36]	; 0x24
 8006ed0:	687b      	ldr	r3, [r7, #4]
 8006ed2:	681b      	ldr	r3, [r3, #0]
 8006ed4:	430a      	orrs	r2, r1
 8006ed6:	62da      	str	r2, [r3, #44]	; 0x2c

  /*-------------------------- USART BRR Configuration -----------------------*/
  UART_GETCLOCKSOURCE(huart, clocksource);
 8006ed8:	687b      	ldr	r3, [r7, #4]
 8006eda:	681b      	ldr	r3, [r3, #0]
 8006edc:	4a89      	ldr	r2, [pc, #548]	; (8007104 <UART_SetConfig+0x2c0>)
 8006ede:	4293      	cmp	r3, r2
 8006ee0:	d127      	bne.n	8006f32 <UART_SetConfig+0xee>
 8006ee2:	4b89      	ldr	r3, [pc, #548]	; (8007108 <UART_SetConfig+0x2c4>)
 8006ee4:	6d5b      	ldr	r3, [r3, #84]	; 0x54
 8006ee6:	2203      	movs	r2, #3
 8006ee8:	4013      	ands	r3, r2
 8006eea:	2b03      	cmp	r3, #3
 8006eec:	d017      	beq.n	8006f1e <UART_SetConfig+0xda>
 8006eee:	d81b      	bhi.n	8006f28 <UART_SetConfig+0xe4>
 8006ef0:	2b02      	cmp	r3, #2
 8006ef2:	d00a      	beq.n	8006f0a <UART_SetConfig+0xc6>
 8006ef4:	d818      	bhi.n	8006f28 <UART_SetConfig+0xe4>
 8006ef6:	2b00      	cmp	r3, #0
 8006ef8:	d002      	beq.n	8006f00 <UART_SetConfig+0xbc>
 8006efa:	2b01      	cmp	r3, #1
 8006efc:	d00a      	beq.n	8006f14 <UART_SetConfig+0xd0>
 8006efe:	e013      	b.n	8006f28 <UART_SetConfig+0xe4>
 8006f00:	231b      	movs	r3, #27
 8006f02:	18fb      	adds	r3, r7, r3
 8006f04:	2200      	movs	r2, #0
 8006f06:	701a      	strb	r2, [r3, #0]
 8006f08:	e021      	b.n	8006f4e <UART_SetConfig+0x10a>
 8006f0a:	231b      	movs	r3, #27
 8006f0c:	18fb      	adds	r3, r7, r3
 8006f0e:	2202      	movs	r2, #2
 8006f10:	701a      	strb	r2, [r3, #0]
 8006f12:	e01c      	b.n	8006f4e <UART_SetConfig+0x10a>
 8006f14:	231b      	movs	r3, #27
 8006f16:	18fb      	adds	r3, r7, r3
 8006f18:	2204      	movs	r2, #4
 8006f1a:	701a      	strb	r2, [r3, #0]
 8006f1c:	e017      	b.n	8006f4e <UART_SetConfig+0x10a>
 8006f1e:	231b      	movs	r3, #27
 8006f20:	18fb      	adds	r3, r7, r3
 8006f22:	2208      	movs	r2, #8
 8006f24:	701a      	strb	r2, [r3, #0]
 8006f26:	e012      	b.n	8006f4e <UART_SetConfig+0x10a>
 8006f28:	231b      	movs	r3, #27
 8006f2a:	18fb      	adds	r3, r7, r3
 8006f2c:	2210      	movs	r2, #16
 8006f2e:	701a      	strb	r2, [r3, #0]
 8006f30:	e00d      	b.n	8006f4e <UART_SetConfig+0x10a>
 8006f32:	687b      	ldr	r3, [r7, #4]
 8006f34:	681b      	ldr	r3, [r3, #0]
 8006f36:	4a75      	ldr	r2, [pc, #468]	; (800710c <UART_SetConfig+0x2c8>)
 8006f38:	4293      	cmp	r3, r2
 8006f3a:	d104      	bne.n	8006f46 <UART_SetConfig+0x102>
 8006f3c:	231b      	movs	r3, #27
 8006f3e:	18fb      	adds	r3, r7, r3
 8006f40:	2200      	movs	r2, #0
 8006f42:	701a      	strb	r2, [r3, #0]
 8006f44:	e003      	b.n	8006f4e <UART_SetConfig+0x10a>
 8006f46:	231b      	movs	r3, #27
 8006f48:	18fb      	adds	r3, r7, r3
 8006f4a:	2210      	movs	r2, #16
 8006f4c:	701a      	strb	r2, [r3, #0]
      } /* if ( (lpuart_ker_ck_pres < (3 * huart->Init.BaudRate) ) ||
                (lpuart_ker_ck_pres > (4096 * huart->Init.BaudRate) )) */
    } /* if (pclk != 0) */
  }
  /* Check UART Over Sampling to set Baud Rate Register */
  else if (huart->Init.OverSampling == UART_OVERSAMPLING_8)
 8006f4e:	687b      	ldr	r3, [r7, #4]
 8006f50:	69da      	ldr	r2, [r3, #28]
 8006f52:	2380      	movs	r3, #128	; 0x80
 8006f54:	021b      	lsls	r3, r3, #8
 8006f56:	429a      	cmp	r2, r3
 8006f58:	d000      	beq.n	8006f5c <UART_SetConfig+0x118>
 8006f5a:	e065      	b.n	8007028 <UART_SetConfig+0x1e4>
  {
    switch (clocksource)
 8006f5c:	231b      	movs	r3, #27
 8006f5e:	18fb      	adds	r3, r7, r3
 8006f60:	781b      	ldrb	r3, [r3, #0]
 8006f62:	2b08      	cmp	r3, #8
 8006f64:	d015      	beq.n	8006f92 <UART_SetConfig+0x14e>
 8006f66:	dc18      	bgt.n	8006f9a <UART_SetConfig+0x156>
 8006f68:	2b04      	cmp	r3, #4
 8006f6a:	d00d      	beq.n	8006f88 <UART_SetConfig+0x144>
 8006f6c:	dc15      	bgt.n	8006f9a <UART_SetConfig+0x156>
 8006f6e:	2b00      	cmp	r3, #0
 8006f70:	d002      	beq.n	8006f78 <UART_SetConfig+0x134>
 8006f72:	2b02      	cmp	r3, #2
 8006f74:	d005      	beq.n	8006f82 <UART_SetConfig+0x13e>
 8006f76:	e010      	b.n	8006f9a <UART_SetConfig+0x156>
    {
      case UART_CLOCKSOURCE_PCLK1:
        pclk = HAL_RCC_GetPCLK1Freq();
 8006f78:	f7fe ff12 	bl	8005da0 <HAL_RCC_GetPCLK1Freq>
 8006f7c:	0003      	movs	r3, r0
 8006f7e:	617b      	str	r3, [r7, #20]
        break;
 8006f80:	e012      	b.n	8006fa8 <UART_SetConfig+0x164>
      case UART_CLOCKSOURCE_HSI:
        pclk = (uint32_t) HSI_VALUE;
 8006f82:	4b63      	ldr	r3, [pc, #396]	; (8007110 <UART_SetConfig+0x2cc>)
 8006f84:	617b      	str	r3, [r7, #20]
        break;
 8006f86:	e00f      	b.n	8006fa8 <UART_SetConfig+0x164>
      case UART_CLOCKSOURCE_SYSCLK:
        pclk = HAL_RCC_GetSysClockFreq();
 8006f88:	f7fe fe7e 	bl	8005c88 <HAL_RCC_GetSysClockFreq>
 8006f8c:	0003      	movs	r3, r0
 8006f8e:	617b      	str	r3, [r7, #20]
        break;
 8006f90:	e00a      	b.n	8006fa8 <UART_SetConfig+0x164>
      case UART_CLOCKSOURCE_LSE:
        pclk = (uint32_t) LSE_VALUE;
 8006f92:	2380      	movs	r3, #128	; 0x80
 8006f94:	021b      	lsls	r3, r3, #8
 8006f96:	617b      	str	r3, [r7, #20]
        break;
 8006f98:	e006      	b.n	8006fa8 <UART_SetConfig+0x164>
      default:
        pclk = 0U;
 8006f9a:	2300      	movs	r3, #0
 8006f9c:	617b      	str	r3, [r7, #20]
        ret = HAL_ERROR;
 8006f9e:	231a      	movs	r3, #26
 8006fa0:	18fb      	adds	r3, r7, r3
 8006fa2:	2201      	movs	r2, #1
 8006fa4:	701a      	strb	r2, [r3, #0]
        break;
 8006fa6:	46c0      	nop			; (mov r8, r8)
    }

    /* USARTDIV must be greater than or equal to 0d16 */
    if (pclk != 0U)
 8006fa8:	697b      	ldr	r3, [r7, #20]
 8006faa:	2b00      	cmp	r3, #0
 8006fac:	d100      	bne.n	8006fb0 <UART_SetConfig+0x16c>
 8006fae:	e08d      	b.n	80070cc <UART_SetConfig+0x288>
    {
      usartdiv = (uint32_t)(UART_DIV_SAMPLING8(pclk, huart->Init.BaudRate, huart->Init.ClockPrescaler));
 8006fb0:	687b      	ldr	r3, [r7, #4]
 8006fb2:	6a5a      	ldr	r2, [r3, #36]	; 0x24
 8006fb4:	4b57      	ldr	r3, [pc, #348]	; (8007114 <UART_SetConfig+0x2d0>)
 8006fb6:	0052      	lsls	r2, r2, #1
 8006fb8:	5ad3      	ldrh	r3, [r2, r3]
 8006fba:	0019      	movs	r1, r3
 8006fbc:	6978      	ldr	r0, [r7, #20]
 8006fbe:	f7f9 f8a7 	bl	8000110 <__udivsi3>
 8006fc2:	0003      	movs	r3, r0
 8006fc4:	005a      	lsls	r2, r3, #1
 8006fc6:	687b      	ldr	r3, [r7, #4]
 8006fc8:	685b      	ldr	r3, [r3, #4]
 8006fca:	085b      	lsrs	r3, r3, #1
 8006fcc:	18d2      	adds	r2, r2, r3
 8006fce:	687b      	ldr	r3, [r7, #4]
 8006fd0:	685b      	ldr	r3, [r3, #4]
 8006fd2:	0019      	movs	r1, r3
 8006fd4:	0010      	movs	r0, r2
 8006fd6:	f7f9 f89b 	bl	8000110 <__udivsi3>
 8006fda:	0003      	movs	r3, r0
 8006fdc:	613b      	str	r3, [r7, #16]
      if ((usartdiv >= UART_BRR_MIN) && (usartdiv <= UART_BRR_MAX))
 8006fde:	693b      	ldr	r3, [r7, #16]
 8006fe0:	2b0f      	cmp	r3, #15
 8006fe2:	d91c      	bls.n	800701e <UART_SetConfig+0x1da>
 8006fe4:	693a      	ldr	r2, [r7, #16]
 8006fe6:	2380      	movs	r3, #128	; 0x80
 8006fe8:	025b      	lsls	r3, r3, #9
 8006fea:	429a      	cmp	r2, r3
 8006fec:	d217      	bcs.n	800701e <UART_SetConfig+0x1da>
      {
        brrtemp = (uint16_t)(usartdiv & 0xFFF0U);
 8006fee:	693b      	ldr	r3, [r7, #16]
 8006ff0:	b29a      	uxth	r2, r3
 8006ff2:	200e      	movs	r0, #14
 8006ff4:	183b      	adds	r3, r7, r0
 8006ff6:	210f      	movs	r1, #15
 8006ff8:	438a      	bics	r2, r1
 8006ffa:	801a      	strh	r2, [r3, #0]
        brrtemp |= (uint16_t)((usartdiv & (uint16_t)0x000FU) >> 1U);
 8006ffc:	693b      	ldr	r3, [r7, #16]
 8006ffe:	085b      	lsrs	r3, r3, #1
 8007000:	b29b      	uxth	r3, r3
 8007002:	2207      	movs	r2, #7
 8007004:	4013      	ands	r3, r2
 8007006:	b299      	uxth	r1, r3
 8007008:	183b      	adds	r3, r7, r0
 800700a:	183a      	adds	r2, r7, r0
 800700c:	8812      	ldrh	r2, [r2, #0]
 800700e:	430a      	orrs	r2, r1
 8007010:	801a      	strh	r2, [r3, #0]
        huart->Instance->BRR = brrtemp;
 8007012:	687b      	ldr	r3, [r7, #4]
 8007014:	681b      	ldr	r3, [r3, #0]
 8007016:	183a      	adds	r2, r7, r0
 8007018:	8812      	ldrh	r2, [r2, #0]
 800701a:	60da      	str	r2, [r3, #12]
 800701c:	e056      	b.n	80070cc <UART_SetConfig+0x288>
      }
      else
      {
        ret = HAL_ERROR;
 800701e:	231a      	movs	r3, #26
 8007020:	18fb      	adds	r3, r7, r3
 8007022:	2201      	movs	r2, #1
 8007024:	701a      	strb	r2, [r3, #0]
 8007026:	e051      	b.n	80070cc <UART_SetConfig+0x288>
      }
    }
  }
  else
  {
    switch (clocksource)
 8007028:	231b      	movs	r3, #27
 800702a:	18fb      	adds	r3, r7, r3
 800702c:	781b      	ldrb	r3, [r3, #0]
 800702e:	2b08      	cmp	r3, #8
 8007030:	d015      	beq.n	800705e <UART_SetConfig+0x21a>
 8007032:	dc18      	bgt.n	8007066 <UART_SetConfig+0x222>
 8007034:	2b04      	cmp	r3, #4
 8007036:	d00d      	beq.n	8007054 <UART_SetConfig+0x210>
 8007038:	dc15      	bgt.n	8007066 <UART_SetConfig+0x222>
 800703a:	2b00      	cmp	r3, #0
 800703c:	d002      	beq.n	8007044 <UART_SetConfig+0x200>
 800703e:	2b02      	cmp	r3, #2
 8007040:	d005      	beq.n	800704e <UART_SetConfig+0x20a>
 8007042:	e010      	b.n	8007066 <UART_SetConfig+0x222>
    {
      case UART_CLOCKSOURCE_PCLK1:
        pclk = HAL_RCC_GetPCLK1Freq();
 8007044:	f7fe feac 	bl	8005da0 <HAL_RCC_GetPCLK1Freq>
 8007048:	0003      	movs	r3, r0
 800704a:	617b      	str	r3, [r7, #20]
        break;
 800704c:	e012      	b.n	8007074 <UART_SetConfig+0x230>
      case UART_CLOCKSOURCE_HSI:
        pclk = (uint32_t) HSI_VALUE;
 800704e:	4b30      	ldr	r3, [pc, #192]	; (8007110 <UART_SetConfig+0x2cc>)
 8007050:	617b      	str	r3, [r7, #20]
        break;
 8007052:	e00f      	b.n	8007074 <UART_SetConfig+0x230>
      case UART_CLOCKSOURCE_SYSCLK:
        pclk = HAL_RCC_GetSysClockFreq();
 8007054:	f7fe fe18 	bl	8005c88 <HAL_RCC_GetSysClockFreq>
 8007058:	0003      	movs	r3, r0
 800705a:	617b      	str	r3, [r7, #20]
        break;
 800705c:	e00a      	b.n	8007074 <UART_SetConfig+0x230>
      case UART_CLOCKSOURCE_LSE:
        pclk = (uint32_t) LSE_VALUE;
 800705e:	2380      	movs	r3, #128	; 0x80
 8007060:	021b      	lsls	r3, r3, #8
 8007062:	617b      	str	r3, [r7, #20]
        break;
 8007064:	e006      	b.n	8007074 <UART_SetConfig+0x230>
      default:
        pclk = 0U;
 8007066:	2300      	movs	r3, #0
 8007068:	617b      	str	r3, [r7, #20]
        ret = HAL_ERROR;
 800706a:	231a      	movs	r3, #26
 800706c:	18fb      	adds	r3, r7, r3
 800706e:	2201      	movs	r2, #1
 8007070:	701a      	strb	r2, [r3, #0]
        break;
 8007072:	46c0      	nop			; (mov r8, r8)
    }

    if (pclk != 0U)
 8007074:	697b      	ldr	r3, [r7, #20]
 8007076:	2b00      	cmp	r3, #0
 8007078:	d028      	beq.n	80070cc <UART_SetConfig+0x288>
    {
      /* USARTDIV must be greater than or equal to 0d16 */
      usartdiv = (uint32_t)(UART_DIV_SAMPLING16(pclk, huart->Init.BaudRate, huart->Init.ClockPrescaler));
 800707a:	687b      	ldr	r3, [r7, #4]
 800707c:	6a5a      	ldr	r2, [r3, #36]	; 0x24
 800707e:	4b25      	ldr	r3, [pc, #148]	; (8007114 <UART_SetConfig+0x2d0>)
 8007080:	0052      	lsls	r2, r2, #1
 8007082:	5ad3      	ldrh	r3, [r2, r3]
 8007084:	0019      	movs	r1, r3
 8007086:	6978      	ldr	r0, [r7, #20]
 8007088:	f7f9 f842 	bl	8000110 <__udivsi3>
 800708c:	0003      	movs	r3, r0
 800708e:	001a      	movs	r2, r3
 8007090:	687b      	ldr	r3, [r7, #4]
 8007092:	685b      	ldr	r3, [r3, #4]
 8007094:	085b      	lsrs	r3, r3, #1
 8007096:	18d2      	adds	r2, r2, r3
 8007098:	687b      	ldr	r3, [r7, #4]
 800709a:	685b      	ldr	r3, [r3, #4]
 800709c:	0019      	movs	r1, r3
 800709e:	0010      	movs	r0, r2
 80070a0:	f7f9 f836 	bl	8000110 <__udivsi3>
 80070a4:	0003      	movs	r3, r0
 80070a6:	613b      	str	r3, [r7, #16]
      if ((usartdiv >= UART_BRR_MIN) && (usartdiv <= UART_BRR_MAX))
 80070a8:	693b      	ldr	r3, [r7, #16]
 80070aa:	2b0f      	cmp	r3, #15
 80070ac:	d90a      	bls.n	80070c4 <UART_SetConfig+0x280>
 80070ae:	693a      	ldr	r2, [r7, #16]
 80070b0:	2380      	movs	r3, #128	; 0x80
 80070b2:	025b      	lsls	r3, r3, #9
 80070b4:	429a      	cmp	r2, r3
 80070b6:	d205      	bcs.n	80070c4 <UART_SetConfig+0x280>
      {
        huart->Instance->BRR = (uint16_t)usartdiv;
 80070b8:	693b      	ldr	r3, [r7, #16]
 80070ba:	b29a      	uxth	r2, r3
 80070bc:	687b      	ldr	r3, [r7, #4]
 80070be:	681b      	ldr	r3, [r3, #0]
 80070c0:	60da      	str	r2, [r3, #12]
 80070c2:	e003      	b.n	80070cc <UART_SetConfig+0x288>
      }
      else
      {
        ret = HAL_ERROR;
 80070c4:	231a      	movs	r3, #26
 80070c6:	18fb      	adds	r3, r7, r3
 80070c8:	2201      	movs	r2, #1
 80070ca:	701a      	strb	r2, [r3, #0]
      }
    }
  }

  /* Initialize the number of data to process during RX/TX ISR execution */
  huart->NbTxDataToProcess = 1;
 80070cc:	687b      	ldr	r3, [r7, #4]
 80070ce:	226a      	movs	r2, #106	; 0x6a
 80070d0:	2101      	movs	r1, #1
 80070d2:	5299      	strh	r1, [r3, r2]
  huart->NbRxDataToProcess = 1;
 80070d4:	687b      	ldr	r3, [r7, #4]
 80070d6:	2268      	movs	r2, #104	; 0x68
 80070d8:	2101      	movs	r1, #1
 80070da:	5299      	strh	r1, [r3, r2]

  /* Clear ISR function pointers */
  huart->RxISR = NULL;
 80070dc:	687b      	ldr	r3, [r7, #4]
 80070de:	2200      	movs	r2, #0
 80070e0:	675a      	str	r2, [r3, #116]	; 0x74
  huart->TxISR = NULL;
 80070e2:	687b      	ldr	r3, [r7, #4]
 80070e4:	2200      	movs	r2, #0
 80070e6:	679a      	str	r2, [r3, #120]	; 0x78

  return ret;
 80070e8:	231a      	movs	r3, #26
 80070ea:	18fb      	adds	r3, r7, r3
 80070ec:	781b      	ldrb	r3, [r3, #0]
}
 80070ee:	0018      	movs	r0, r3
 80070f0:	46bd      	mov	sp, r7
 80070f2:	b008      	add	sp, #32
 80070f4:	bd80      	pop	{r7, pc}
 80070f6:	46c0      	nop			; (mov r8, r8)
 80070f8:	cfff69f3 	.word	0xcfff69f3
 80070fc:	ffffcfff 	.word	0xffffcfff
 8007100:	11fff4ff 	.word	0x11fff4ff
 8007104:	40013800 	.word	0x40013800
 8007108:	40021000 	.word	0x40021000
 800710c:	40004400 	.word	0x40004400
 8007110:	00f42400 	.word	0x00f42400
 8007114:	08007b18 	.word	0x08007b18

08007118 <UART_AdvFeatureConfig>:
  * @brief Configure the UART peripheral advanced features.
  * @param huart UART handle.
  * @retval None
  */
void UART_AdvFeatureConfig(UART_HandleTypeDef *huart)
{
 8007118:	b580      	push	{r7, lr}
 800711a:	b082      	sub	sp, #8
 800711c:	af00      	add	r7, sp, #0
 800711e:	6078      	str	r0, [r7, #4]
  /* Check whether the set of advanced features to configure is properly set */
  assert_param(IS_UART_ADVFEATURE_INIT(huart->AdvancedInit.AdvFeatureInit));

  /* if required, configure RX/TX pins swap */
  if (HAL_IS_BIT_SET(huart->AdvancedInit.AdvFeatureInit, UART_ADVFEATURE_SWAP_INIT))
 8007120:	687b      	ldr	r3, [r7, #4]
 8007122:	6a9b      	ldr	r3, [r3, #40]	; 0x28
 8007124:	2208      	movs	r2, #8
 8007126:	4013      	ands	r3, r2
 8007128:	d00b      	beq.n	8007142 <UART_AdvFeatureConfig+0x2a>
  {
    assert_param(IS_UART_ADVFEATURE_SWAP(huart->AdvancedInit.Swap));
    MODIFY_REG(huart->Instance->CR2, USART_CR2_SWAP, huart->AdvancedInit.Swap);
 800712a:	687b      	ldr	r3, [r7, #4]
 800712c:	681b      	ldr	r3, [r3, #0]
 800712e:	685b      	ldr	r3, [r3, #4]
 8007130:	4a4a      	ldr	r2, [pc, #296]	; (800725c <UART_AdvFeatureConfig+0x144>)
 8007132:	4013      	ands	r3, r2
 8007134:	0019      	movs	r1, r3
 8007136:	687b      	ldr	r3, [r7, #4]
 8007138:	6b9a      	ldr	r2, [r3, #56]	; 0x38
 800713a:	687b      	ldr	r3, [r7, #4]
 800713c:	681b      	ldr	r3, [r3, #0]
 800713e:	430a      	orrs	r2, r1
 8007140:	605a      	str	r2, [r3, #4]
  }

  /* if required, configure TX pin active level inversion */
  if (HAL_IS_BIT_SET(huart->AdvancedInit.AdvFeatureInit, UART_ADVFEATURE_TXINVERT_INIT))
 8007142:	687b      	ldr	r3, [r7, #4]
 8007144:	6a9b      	ldr	r3, [r3, #40]	; 0x28
 8007146:	2201      	movs	r2, #1
 8007148:	4013      	ands	r3, r2
 800714a:	d00b      	beq.n	8007164 <UART_AdvFeatureConfig+0x4c>
  {
    assert_param(IS_UART_ADVFEATURE_TXINV(huart->AdvancedInit.TxPinLevelInvert));
    MODIFY_REG(huart->Instance->CR2, USART_CR2_TXINV, huart->AdvancedInit.TxPinLevelInvert);
 800714c:	687b      	ldr	r3, [r7, #4]
 800714e:	681b      	ldr	r3, [r3, #0]
 8007150:	685b      	ldr	r3, [r3, #4]
 8007152:	4a43      	ldr	r2, [pc, #268]	; (8007260 <UART_AdvFeatureConfig+0x148>)
 8007154:	4013      	ands	r3, r2
 8007156:	0019      	movs	r1, r3
 8007158:	687b      	ldr	r3, [r7, #4]
 800715a:	6ada      	ldr	r2, [r3, #44]	; 0x2c
 800715c:	687b      	ldr	r3, [r7, #4]
 800715e:	681b      	ldr	r3, [r3, #0]
 8007160:	430a      	orrs	r2, r1
 8007162:	605a      	str	r2, [r3, #4]
  }

  /* if required, configure RX pin active level inversion */
  if (HAL_IS_BIT_SET(huart->AdvancedInit.AdvFeatureInit, UART_ADVFEATURE_RXINVERT_INIT))
 8007164:	687b      	ldr	r3, [r7, #4]
 8007166:	6a9b      	ldr	r3, [r3, #40]	; 0x28
 8007168:	2202      	movs	r2, #2
 800716a:	4013      	ands	r3, r2
 800716c:	d00b      	beq.n	8007186 <UART_AdvFeatureConfig+0x6e>
  {
    assert_param(IS_UART_ADVFEATURE_RXINV(huart->AdvancedInit.RxPinLevelInvert));
    MODIFY_REG(huart->Instance->CR2, USART_CR2_RXINV, huart->AdvancedInit.RxPinLevelInvert);
 800716e:	687b      	ldr	r3, [r7, #4]
 8007170:	681b      	ldr	r3, [r3, #0]
 8007172:	685b      	ldr	r3, [r3, #4]
 8007174:	4a3b      	ldr	r2, [pc, #236]	; (8007264 <UART_AdvFeatureConfig+0x14c>)
 8007176:	4013      	ands	r3, r2
 8007178:	0019      	movs	r1, r3
 800717a:	687b      	ldr	r3, [r7, #4]
 800717c:	6b1a      	ldr	r2, [r3, #48]	; 0x30
 800717e:	687b      	ldr	r3, [r7, #4]
 8007180:	681b      	ldr	r3, [r3, #0]
 8007182:	430a      	orrs	r2, r1
 8007184:	605a      	str	r2, [r3, #4]
  }

  /* if required, configure data inversion */
  if (HAL_IS_BIT_SET(huart->AdvancedInit.AdvFeatureInit, UART_ADVFEATURE_DATAINVERT_INIT))
 8007186:	687b      	ldr	r3, [r7, #4]
 8007188:	6a9b      	ldr	r3, [r3, #40]	; 0x28
 800718a:	2204      	movs	r2, #4
 800718c:	4013      	ands	r3, r2
 800718e:	d00b      	beq.n	80071a8 <UART_AdvFeatureConfig+0x90>
  {
    assert_param(IS_UART_ADVFEATURE_DATAINV(huart->AdvancedInit.DataInvert));
    MODIFY_REG(huart->Instance->CR2, USART_CR2_DATAINV, huart->AdvancedInit.DataInvert);
 8007190:	687b      	ldr	r3, [r7, #4]
 8007192:	681b      	ldr	r3, [r3, #0]
 8007194:	685b      	ldr	r3, [r3, #4]
 8007196:	4a34      	ldr	r2, [pc, #208]	; (8007268 <UART_AdvFeatureConfig+0x150>)
 8007198:	4013      	ands	r3, r2
 800719a:	0019      	movs	r1, r3
 800719c:	687b      	ldr	r3, [r7, #4]
 800719e:	6b5a      	ldr	r2, [r3, #52]	; 0x34
 80071a0:	687b      	ldr	r3, [r7, #4]
 80071a2:	681b      	ldr	r3, [r3, #0]
 80071a4:	430a      	orrs	r2, r1
 80071a6:	605a      	str	r2, [r3, #4]
  }

  /* if required, configure RX overrun detection disabling */
  if (HAL_IS_BIT_SET(huart->AdvancedInit.AdvFeatureInit, UART_ADVFEATURE_RXOVERRUNDISABLE_INIT))
 80071a8:	687b      	ldr	r3, [r7, #4]
 80071aa:	6a9b      	ldr	r3, [r3, #40]	; 0x28
 80071ac:	2210      	movs	r2, #16
 80071ae:	4013      	ands	r3, r2
 80071b0:	d00b      	beq.n	80071ca <UART_AdvFeatureConfig+0xb2>
  {
    assert_param(IS_UART_OVERRUN(huart->AdvancedInit.OverrunDisable));
    MODIFY_REG(huart->Instance->CR3, USART_CR3_OVRDIS, huart->AdvancedInit.OverrunDisable);
 80071b2:	687b      	ldr	r3, [r7, #4]
 80071b4:	681b      	ldr	r3, [r3, #0]
 80071b6:	689b      	ldr	r3, [r3, #8]
 80071b8:	4a2c      	ldr	r2, [pc, #176]	; (800726c <UART_AdvFeatureConfig+0x154>)
 80071ba:	4013      	ands	r3, r2
 80071bc:	0019      	movs	r1, r3
 80071be:	687b      	ldr	r3, [r7, #4]
 80071c0:	6bda      	ldr	r2, [r3, #60]	; 0x3c
 80071c2:	687b      	ldr	r3, [r7, #4]
 80071c4:	681b      	ldr	r3, [r3, #0]
 80071c6:	430a      	orrs	r2, r1
 80071c8:	609a      	str	r2, [r3, #8]
  }

  /* if required, configure DMA disabling on reception error */
  if (HAL_IS_BIT_SET(huart->AdvancedInit.AdvFeatureInit, UART_ADVFEATURE_DMADISABLEONERROR_INIT))
 80071ca:	687b      	ldr	r3, [r7, #4]
 80071cc:	6a9b      	ldr	r3, [r3, #40]	; 0x28
 80071ce:	2220      	movs	r2, #32
 80071d0:	4013      	ands	r3, r2
 80071d2:	d00b      	beq.n	80071ec <UART_AdvFeatureConfig+0xd4>
  {
    assert_param(IS_UART_ADVFEATURE_DMAONRXERROR(huart->AdvancedInit.DMADisableonRxError));
    MODIFY_REG(huart->Instance->CR3, USART_CR3_DDRE, huart->AdvancedInit.DMADisableonRxError);
 80071d4:	687b      	ldr	r3, [r7, #4]
 80071d6:	681b      	ldr	r3, [r3, #0]
 80071d8:	689b      	ldr	r3, [r3, #8]
 80071da:	4a25      	ldr	r2, [pc, #148]	; (8007270 <UART_AdvFeatureConfig+0x158>)
 80071dc:	4013      	ands	r3, r2
 80071de:	0019      	movs	r1, r3
 80071e0:	687b      	ldr	r3, [r7, #4]
 80071e2:	6c1a      	ldr	r2, [r3, #64]	; 0x40
 80071e4:	687b      	ldr	r3, [r7, #4]
 80071e6:	681b      	ldr	r3, [r3, #0]
 80071e8:	430a      	orrs	r2, r1
 80071ea:	609a      	str	r2, [r3, #8]
  }

  /* if required, configure auto Baud rate detection scheme */
  if (HAL_IS_BIT_SET(huart->AdvancedInit.AdvFeatureInit, UART_ADVFEATURE_AUTOBAUDRATE_INIT))
 80071ec:	687b      	ldr	r3, [r7, #4]
 80071ee:	6a9b      	ldr	r3, [r3, #40]	; 0x28
 80071f0:	2240      	movs	r2, #64	; 0x40
 80071f2:	4013      	ands	r3, r2
 80071f4:	d01d      	beq.n	8007232 <UART_AdvFeatureConfig+0x11a>
  {
    assert_param(IS_USART_AUTOBAUDRATE_DETECTION_INSTANCE(huart->Instance));
    assert_param(IS_UART_ADVFEATURE_AUTOBAUDRATE(huart->AdvancedInit.AutoBaudRateEnable));
    MODIFY_REG(huart->Instance->CR2, USART_CR2_ABREN, huart->AdvancedInit.AutoBaudRateEnable);
 80071f6:	687b      	ldr	r3, [r7, #4]
 80071f8:	681b      	ldr	r3, [r3, #0]
 80071fa:	685b      	ldr	r3, [r3, #4]
 80071fc:	4a1d      	ldr	r2, [pc, #116]	; (8007274 <UART_AdvFeatureConfig+0x15c>)
 80071fe:	4013      	ands	r3, r2
 8007200:	0019      	movs	r1, r3
 8007202:	687b      	ldr	r3, [r7, #4]
 8007204:	6c5a      	ldr	r2, [r3, #68]	; 0x44
 8007206:	687b      	ldr	r3, [r7, #4]
 8007208:	681b      	ldr	r3, [r3, #0]
 800720a:	430a      	orrs	r2, r1
 800720c:	605a      	str	r2, [r3, #4]
    /* set auto Baudrate detection parameters if detection is enabled */
    if (huart->AdvancedInit.AutoBaudRateEnable == UART_ADVFEATURE_AUTOBAUDRATE_ENABLE)
 800720e:	687b      	ldr	r3, [r7, #4]
 8007210:	6c5a      	ldr	r2, [r3, #68]	; 0x44
 8007212:	2380      	movs	r3, #128	; 0x80
 8007214:	035b      	lsls	r3, r3, #13
 8007216:	429a      	cmp	r2, r3
 8007218:	d10b      	bne.n	8007232 <UART_AdvFeatureConfig+0x11a>
    {
      assert_param(IS_UART_ADVFEATURE_AUTOBAUDRATEMODE(huart->AdvancedInit.AutoBaudRateMode));
      MODIFY_REG(huart->Instance->CR2, USART_CR2_ABRMODE, huart->AdvancedInit.AutoBaudRateMode);
 800721a:	687b      	ldr	r3, [r7, #4]
 800721c:	681b      	ldr	r3, [r3, #0]
 800721e:	685b      	ldr	r3, [r3, #4]
 8007220:	4a15      	ldr	r2, [pc, #84]	; (8007278 <UART_AdvFeatureConfig+0x160>)
 8007222:	4013      	ands	r3, r2
 8007224:	0019      	movs	r1, r3
 8007226:	687b      	ldr	r3, [r7, #4]
 8007228:	6c9a      	ldr	r2, [r3, #72]	; 0x48
 800722a:	687b      	ldr	r3, [r7, #4]
 800722c:	681b      	ldr	r3, [r3, #0]
 800722e:	430a      	orrs	r2, r1
 8007230:	605a      	str	r2, [r3, #4]
    }
  }

  /* if required, configure MSB first on communication line */
  if (HAL_IS_BIT_SET(huart->AdvancedInit.AdvFeatureInit, UART_ADVFEATURE_MSBFIRST_INIT))
 8007232:	687b      	ldr	r3, [r7, #4]
 8007234:	6a9b      	ldr	r3, [r3, #40]	; 0x28
 8007236:	2280      	movs	r2, #128	; 0x80
 8007238:	4013      	ands	r3, r2
 800723a:	d00b      	beq.n	8007254 <UART_AdvFeatureConfig+0x13c>
  {
    assert_param(IS_UART_ADVFEATURE_MSBFIRST(huart->AdvancedInit.MSBFirst));
    MODIFY_REG(huart->Instance->CR2, USART_CR2_MSBFIRST, huart->AdvancedInit.MSBFirst);
 800723c:	687b      	ldr	r3, [r7, #4]
 800723e:	681b      	ldr	r3, [r3, #0]
 8007240:	685b      	ldr	r3, [r3, #4]
 8007242:	4a0e      	ldr	r2, [pc, #56]	; (800727c <UART_AdvFeatureConfig+0x164>)
 8007244:	4013      	ands	r3, r2
 8007246:	0019      	movs	r1, r3
 8007248:	687b      	ldr	r3, [r7, #4]
 800724a:	6cda      	ldr	r2, [r3, #76]	; 0x4c
 800724c:	687b      	ldr	r3, [r7, #4]
 800724e:	681b      	ldr	r3, [r3, #0]
 8007250:	430a      	orrs	r2, r1
 8007252:	605a      	str	r2, [r3, #4]
  }
}
 8007254:	46c0      	nop			; (mov r8, r8)
 8007256:	46bd      	mov	sp, r7
 8007258:	b002      	add	sp, #8
 800725a:	bd80      	pop	{r7, pc}
 800725c:	ffff7fff 	.word	0xffff7fff
 8007260:	fffdffff 	.word	0xfffdffff
 8007264:	fffeffff 	.word	0xfffeffff
 8007268:	fffbffff 	.word	0xfffbffff
 800726c:	ffffefff 	.word	0xffffefff
 8007270:	ffffdfff 	.word	0xffffdfff
 8007274:	ffefffff 	.word	0xffefffff
 8007278:	ff9fffff 	.word	0xff9fffff
 800727c:	fff7ffff 	.word	0xfff7ffff

08007280 <UART_CheckIdleState>:
  * @brief Check the UART Idle State.
  * @param huart UART handle.
  * @retval HAL status
  */
HAL_StatusTypeDef UART_CheckIdleState(UART_HandleTypeDef *huart)
{
 8007280:	b580      	push	{r7, lr}
 8007282:	b092      	sub	sp, #72	; 0x48
 8007284:	af02      	add	r7, sp, #8
 8007286:	6078      	str	r0, [r7, #4]
  uint32_t tickstart;

  /* Initialize the UART ErrorCode */
  huart->ErrorCode = HAL_UART_ERROR_NONE;
 8007288:	687b      	ldr	r3, [r7, #4]
 800728a:	2290      	movs	r2, #144	; 0x90
 800728c:	2100      	movs	r1, #0
 800728e:	5099      	str	r1, [r3, r2]

  /* Init tickstart for timeout management */
  tickstart = HAL_GetTick();
 8007290:	f7fd fd24 	bl	8004cdc <HAL_GetTick>
 8007294:	0003      	movs	r3, r0
 8007296:	63fb      	str	r3, [r7, #60]	; 0x3c

  /* Check if the Transmitter is enabled */
  if ((huart->Instance->CR1 & USART_CR1_TE) == USART_CR1_TE)
 8007298:	687b      	ldr	r3, [r7, #4]
 800729a:	681b      	ldr	r3, [r3, #0]
 800729c:	681b      	ldr	r3, [r3, #0]
 800729e:	2208      	movs	r2, #8
 80072a0:	4013      	ands	r3, r2
 80072a2:	2b08      	cmp	r3, #8
 80072a4:	d12d      	bne.n	8007302 <UART_CheckIdleState+0x82>
  {
    /* Wait until TEACK flag is set */
    if (UART_WaitOnFlagUntilTimeout(huart, USART_ISR_TEACK, RESET, tickstart, HAL_UART_TIMEOUT_VALUE) != HAL_OK)
 80072a6:	6bfb      	ldr	r3, [r7, #60]	; 0x3c
 80072a8:	2280      	movs	r2, #128	; 0x80
 80072aa:	0391      	lsls	r1, r2, #14
 80072ac:	6878      	ldr	r0, [r7, #4]
 80072ae:	4a47      	ldr	r2, [pc, #284]	; (80073cc <UART_CheckIdleState+0x14c>)
 80072b0:	9200      	str	r2, [sp, #0]
 80072b2:	2200      	movs	r2, #0
 80072b4:	f000 f88e 	bl	80073d4 <UART_WaitOnFlagUntilTimeout>
 80072b8:	1e03      	subs	r3, r0, #0
 80072ba:	d022      	beq.n	8007302 <UART_CheckIdleState+0x82>
  __ASM volatile ("MRS %0, primask" : "=r" (result) :: "memory");
 80072bc:	f3ef 8310 	mrs	r3, PRIMASK
 80072c0:	627b      	str	r3, [r7, #36]	; 0x24
  return(result);
 80072c2:	6a7b      	ldr	r3, [r7, #36]	; 0x24
    {
      /* Disable TXE interrupt for the interrupt process */
      ATOMIC_CLEAR_BIT(huart->Instance->CR1, (USART_CR1_TXEIE_TXFNFIE));
 80072c4:	63bb      	str	r3, [r7, #56]	; 0x38
 80072c6:	2301      	movs	r3, #1
 80072c8:	62bb      	str	r3, [r7, #40]	; 0x28
  __ASM volatile ("MSR primask, %0" : : "r" (priMask) : "memory");
 80072ca:	6abb      	ldr	r3, [r7, #40]	; 0x28
 80072cc:	f383 8810 	msr	PRIMASK, r3
}
 80072d0:	46c0      	nop			; (mov r8, r8)
 80072d2:	687b      	ldr	r3, [r7, #4]
 80072d4:	681b      	ldr	r3, [r3, #0]
 80072d6:	681a      	ldr	r2, [r3, #0]
 80072d8:	687b      	ldr	r3, [r7, #4]
 80072da:	681b      	ldr	r3, [r3, #0]
 80072dc:	2180      	movs	r1, #128	; 0x80
 80072de:	438a      	bics	r2, r1
 80072e0:	601a      	str	r2, [r3, #0]
 80072e2:	6bbb      	ldr	r3, [r7, #56]	; 0x38
 80072e4:	62fb      	str	r3, [r7, #44]	; 0x2c
  __ASM volatile ("MSR primask, %0" : : "r" (priMask) : "memory");
 80072e6:	6afb      	ldr	r3, [r7, #44]	; 0x2c
 80072e8:	f383 8810 	msr	PRIMASK, r3
}
 80072ec:	46c0      	nop			; (mov r8, r8)

      huart->gState = HAL_UART_STATE_READY;
 80072ee:	687b      	ldr	r3, [r7, #4]
 80072f0:	2288      	movs	r2, #136	; 0x88
 80072f2:	2120      	movs	r1, #32
 80072f4:	5099      	str	r1, [r3, r2]

      __HAL_UNLOCK(huart);
 80072f6:	687b      	ldr	r3, [r7, #4]
 80072f8:	2284      	movs	r2, #132	; 0x84
 80072fa:	2100      	movs	r1, #0
 80072fc:	5499      	strb	r1, [r3, r2]

      /* Timeout occurred */
      return HAL_TIMEOUT;
 80072fe:	2303      	movs	r3, #3
 8007300:	e060      	b.n	80073c4 <UART_CheckIdleState+0x144>
    }
  }

  /* Check if the Receiver is enabled */
  if ((huart->Instance->CR1 & USART_CR1_RE) == USART_CR1_RE)
 8007302:	687b      	ldr	r3, [r7, #4]
 8007304:	681b      	ldr	r3, [r3, #0]
 8007306:	681b      	ldr	r3, [r3, #0]
 8007308:	2204      	movs	r2, #4
 800730a:	4013      	ands	r3, r2
 800730c:	2b04      	cmp	r3, #4
 800730e:	d146      	bne.n	800739e <UART_CheckIdleState+0x11e>
  {
    /* Wait until REACK flag is set */
    if (UART_WaitOnFlagUntilTimeout(huart, USART_ISR_REACK, RESET, tickstart, HAL_UART_TIMEOUT_VALUE) != HAL_OK)
 8007310:	6bfb      	ldr	r3, [r7, #60]	; 0x3c
 8007312:	2280      	movs	r2, #128	; 0x80
 8007314:	03d1      	lsls	r1, r2, #15
 8007316:	6878      	ldr	r0, [r7, #4]
 8007318:	4a2c      	ldr	r2, [pc, #176]	; (80073cc <UART_CheckIdleState+0x14c>)
 800731a:	9200      	str	r2, [sp, #0]
 800731c:	2200      	movs	r2, #0
 800731e:	f000 f859 	bl	80073d4 <UART_WaitOnFlagUntilTimeout>
 8007322:	1e03      	subs	r3, r0, #0
 8007324:	d03b      	beq.n	800739e <UART_CheckIdleState+0x11e>
  __ASM volatile ("MRS %0, primask" : "=r" (result) :: "memory");
 8007326:	f3ef 8310 	mrs	r3, PRIMASK
 800732a:	60fb      	str	r3, [r7, #12]
  return(result);
 800732c:	68fb      	ldr	r3, [r7, #12]
    {
      /* Disable RXNE, PE and ERR (Frame error, noise error, overrun error)
      interrupts for the interrupt process */
      ATOMIC_CLEAR_BIT(huart->Instance->CR1, (USART_CR1_RXNEIE_RXFNEIE | USART_CR1_PEIE));
 800732e:	637b      	str	r3, [r7, #52]	; 0x34
 8007330:	2301      	movs	r3, #1
 8007332:	613b      	str	r3, [r7, #16]
  __ASM volatile ("MSR primask, %0" : : "r" (priMask) : "memory");
 8007334:	693b      	ldr	r3, [r7, #16]
 8007336:	f383 8810 	msr	PRIMASK, r3
}
 800733a:	46c0      	nop			; (mov r8, r8)
 800733c:	687b      	ldr	r3, [r7, #4]
 800733e:	681b      	ldr	r3, [r3, #0]
 8007340:	681a      	ldr	r2, [r3, #0]
 8007342:	687b      	ldr	r3, [r7, #4]
 8007344:	681b      	ldr	r3, [r3, #0]
 8007346:	4922      	ldr	r1, [pc, #136]	; (80073d0 <UART_CheckIdleState+0x150>)
 8007348:	400a      	ands	r2, r1
 800734a:	601a      	str	r2, [r3, #0]
 800734c:	6b7b      	ldr	r3, [r7, #52]	; 0x34
 800734e:	617b      	str	r3, [r7, #20]
  __ASM volatile ("MSR primask, %0" : : "r" (priMask) : "memory");
 8007350:	697b      	ldr	r3, [r7, #20]
 8007352:	f383 8810 	msr	PRIMASK, r3
}
 8007356:	46c0      	nop			; (mov r8, r8)
  __ASM volatile ("MRS %0, primask" : "=r" (result) :: "memory");
 8007358:	f3ef 8310 	mrs	r3, PRIMASK
 800735c:	61bb      	str	r3, [r7, #24]
  return(result);
 800735e:	69bb      	ldr	r3, [r7, #24]
      ATOMIC_CLEAR_BIT(huart->Instance->CR3, USART_CR3_EIE);
 8007360:	633b      	str	r3, [r7, #48]	; 0x30
 8007362:	2301      	movs	r3, #1
 8007364:	61fb      	str	r3, [r7, #28]
  __ASM volatile ("MSR primask, %0" : : "r" (priMask) : "memory");
 8007366:	69fb      	ldr	r3, [r7, #28]
 8007368:	f383 8810 	msr	PRIMASK, r3
}
 800736c:	46c0      	nop			; (mov r8, r8)
 800736e:	687b      	ldr	r3, [r7, #4]
 8007370:	681b      	ldr	r3, [r3, #0]
 8007372:	689a      	ldr	r2, [r3, #8]
 8007374:	687b      	ldr	r3, [r7, #4]
 8007376:	681b      	ldr	r3, [r3, #0]
 8007378:	2101      	movs	r1, #1
 800737a:	438a      	bics	r2, r1
 800737c:	609a      	str	r2, [r3, #8]
 800737e:	6b3b      	ldr	r3, [r7, #48]	; 0x30
 8007380:	623b      	str	r3, [r7, #32]
  __ASM volatile ("MSR primask, %0" : : "r" (priMask) : "memory");
 8007382:	6a3b      	ldr	r3, [r7, #32]
 8007384:	f383 8810 	msr	PRIMASK, r3
}
 8007388:	46c0      	nop			; (mov r8, r8)

      huart->RxState = HAL_UART_STATE_READY;
 800738a:	687b      	ldr	r3, [r7, #4]
 800738c:	228c      	movs	r2, #140	; 0x8c
 800738e:	2120      	movs	r1, #32
 8007390:	5099      	str	r1, [r3, r2]

      __HAL_UNLOCK(huart);
 8007392:	687b      	ldr	r3, [r7, #4]
 8007394:	2284      	movs	r2, #132	; 0x84
 8007396:	2100      	movs	r1, #0
 8007398:	5499      	strb	r1, [r3, r2]

      /* Timeout occurred */
      return HAL_TIMEOUT;
 800739a:	2303      	movs	r3, #3
 800739c:	e012      	b.n	80073c4 <UART_CheckIdleState+0x144>
    }
  }

  /* Initialize the UART State */
  huart->gState = HAL_UART_STATE_READY;
 800739e:	687b      	ldr	r3, [r7, #4]
 80073a0:	2288      	movs	r2, #136	; 0x88
 80073a2:	2120      	movs	r1, #32
 80073a4:	5099      	str	r1, [r3, r2]
  huart->RxState = HAL_UART_STATE_READY;
 80073a6:	687b      	ldr	r3, [r7, #4]
 80073a8:	228c      	movs	r2, #140	; 0x8c
 80073aa:	2120      	movs	r1, #32
 80073ac:	5099      	str	r1, [r3, r2]
  huart->ReceptionType = HAL_UART_RECEPTION_STANDARD;
 80073ae:	687b      	ldr	r3, [r7, #4]
 80073b0:	2200      	movs	r2, #0
 80073b2:	66da      	str	r2, [r3, #108]	; 0x6c
  huart->RxEventType = HAL_UART_RXEVENT_TC;
 80073b4:	687b      	ldr	r3, [r7, #4]
 80073b6:	2200      	movs	r2, #0
 80073b8:	671a      	str	r2, [r3, #112]	; 0x70

  __HAL_UNLOCK(huart);
 80073ba:	687b      	ldr	r3, [r7, #4]
 80073bc:	2284      	movs	r2, #132	; 0x84
 80073be:	2100      	movs	r1, #0
 80073c0:	5499      	strb	r1, [r3, r2]

  return HAL_OK;
 80073c2:	2300      	movs	r3, #0
}
 80073c4:	0018      	movs	r0, r3
 80073c6:	46bd      	mov	sp, r7
 80073c8:	b010      	add	sp, #64	; 0x40
 80073ca:	bd80      	pop	{r7, pc}
 80073cc:	01ffffff 	.word	0x01ffffff
 80073d0:	fffffedf 	.word	0xfffffedf

080073d4 <UART_WaitOnFlagUntilTimeout>:
  * @param Timeout   Timeout duration
  * @retval HAL status
  */
HAL_StatusTypeDef UART_WaitOnFlagUntilTimeout(UART_HandleTypeDef *huart, uint32_t Flag, FlagStatus Status,
                                              uint32_t Tickstart, uint32_t Timeout)
{
 80073d4:	b580      	push	{r7, lr}
 80073d6:	b084      	sub	sp, #16
 80073d8:	af00      	add	r7, sp, #0
 80073da:	60f8      	str	r0, [r7, #12]
 80073dc:	60b9      	str	r1, [r7, #8]
 80073de:	603b      	str	r3, [r7, #0]
 80073e0:	1dfb      	adds	r3, r7, #7
 80073e2:	701a      	strb	r2, [r3, #0]
  /* Wait until flag is set */
  while ((__HAL_UART_GET_FLAG(huart, Flag) ? SET : RESET) == Status)
 80073e4:	e051      	b.n	800748a <UART_WaitOnFlagUntilTimeout+0xb6>
  {
    /* Check for the Timeout */
    if (Timeout != HAL_MAX_DELAY)
 80073e6:	69bb      	ldr	r3, [r7, #24]
 80073e8:	3301      	adds	r3, #1
 80073ea:	d04e      	beq.n	800748a <UART_WaitOnFlagUntilTimeout+0xb6>
    {
      if (((HAL_GetTick() - Tickstart) > Timeout) || (Timeout == 0U))
 80073ec:	f7fd fc76 	bl	8004cdc <HAL_GetTick>
 80073f0:	0002      	movs	r2, r0
 80073f2:	683b      	ldr	r3, [r7, #0]
 80073f4:	1ad3      	subs	r3, r2, r3
 80073f6:	69ba      	ldr	r2, [r7, #24]
 80073f8:	429a      	cmp	r2, r3
 80073fa:	d302      	bcc.n	8007402 <UART_WaitOnFlagUntilTimeout+0x2e>
 80073fc:	69bb      	ldr	r3, [r7, #24]
 80073fe:	2b00      	cmp	r3, #0
 8007400:	d101      	bne.n	8007406 <UART_WaitOnFlagUntilTimeout+0x32>
      {

        return HAL_TIMEOUT;
 8007402:	2303      	movs	r3, #3
 8007404:	e051      	b.n	80074aa <UART_WaitOnFlagUntilTimeout+0xd6>
      }

      if ((READ_BIT(huart->Instance->CR1, USART_CR1_RE) != 0U) && (Flag != UART_FLAG_TXE) && (Flag != UART_FLAG_TC))
 8007406:	68fb      	ldr	r3, [r7, #12]
 8007408:	681b      	ldr	r3, [r3, #0]
 800740a:	681b      	ldr	r3, [r3, #0]
 800740c:	2204      	movs	r2, #4
 800740e:	4013      	ands	r3, r2
 8007410:	d03b      	beq.n	800748a <UART_WaitOnFlagUntilTimeout+0xb6>
 8007412:	68bb      	ldr	r3, [r7, #8]
 8007414:	2b80      	cmp	r3, #128	; 0x80
 8007416:	d038      	beq.n	800748a <UART_WaitOnFlagUntilTimeout+0xb6>
 8007418:	68bb      	ldr	r3, [r7, #8]
 800741a:	2b40      	cmp	r3, #64	; 0x40
 800741c:	d035      	beq.n	800748a <UART_WaitOnFlagUntilTimeout+0xb6>
      {
        if (__HAL_UART_GET_FLAG(huart, UART_FLAG_ORE) == SET)
 800741e:	68fb      	ldr	r3, [r7, #12]
 8007420:	681b      	ldr	r3, [r3, #0]
 8007422:	69db      	ldr	r3, [r3, #28]
 8007424:	2208      	movs	r2, #8
 8007426:	4013      	ands	r3, r2
 8007428:	2b08      	cmp	r3, #8
 800742a:	d111      	bne.n	8007450 <UART_WaitOnFlagUntilTimeout+0x7c>
        {
          /* Clear Overrun Error flag*/
          __HAL_UART_CLEAR_FLAG(huart, UART_CLEAR_OREF);
 800742c:	68fb      	ldr	r3, [r7, #12]
 800742e:	681b      	ldr	r3, [r3, #0]
 8007430:	2208      	movs	r2, #8
 8007432:	621a      	str	r2, [r3, #32]

          /* Blocking error : transfer is aborted
          Set the UART state ready to be able to start again the process,
          Disable Rx Interrupts if ongoing */
          UART_EndRxTransfer(huart);
 8007434:	68fb      	ldr	r3, [r7, #12]
 8007436:	0018      	movs	r0, r3
 8007438:	f000 f83c 	bl	80074b4 <UART_EndRxTransfer>

          huart->ErrorCode = HAL_UART_ERROR_ORE;
 800743c:	68fb      	ldr	r3, [r7, #12]
 800743e:	2290      	movs	r2, #144	; 0x90
 8007440:	2108      	movs	r1, #8
 8007442:	5099      	str	r1, [r3, r2]

          /* Process Unlocked */
          __HAL_UNLOCK(huart);
 8007444:	68fb      	ldr	r3, [r7, #12]
 8007446:	2284      	movs	r2, #132	; 0x84
 8007448:	2100      	movs	r1, #0
 800744a:	5499      	strb	r1, [r3, r2]

          return HAL_ERROR;
 800744c:	2301      	movs	r3, #1
 800744e:	e02c      	b.n	80074aa <UART_WaitOnFlagUntilTimeout+0xd6>
        }
        if (__HAL_UART_GET_FLAG(huart, UART_FLAG_RTOF) == SET)
 8007450:	68fb      	ldr	r3, [r7, #12]
 8007452:	681b      	ldr	r3, [r3, #0]
 8007454:	69da      	ldr	r2, [r3, #28]
 8007456:	2380      	movs	r3, #128	; 0x80
 8007458:	011b      	lsls	r3, r3, #4
 800745a:	401a      	ands	r2, r3
 800745c:	2380      	movs	r3, #128	; 0x80
 800745e:	011b      	lsls	r3, r3, #4
 8007460:	429a      	cmp	r2, r3
 8007462:	d112      	bne.n	800748a <UART_WaitOnFlagUntilTimeout+0xb6>
        {
          /* Clear Receiver Timeout flag*/
          __HAL_UART_CLEAR_FLAG(huart, UART_CLEAR_RTOF);
 8007464:	68fb      	ldr	r3, [r7, #12]
 8007466:	681b      	ldr	r3, [r3, #0]
 8007468:	2280      	movs	r2, #128	; 0x80
 800746a:	0112      	lsls	r2, r2, #4
 800746c:	621a      	str	r2, [r3, #32]

          /* Blocking error : transfer is aborted
          Set the UART state ready to be able to start again the process,
          Disable Rx Interrupts if ongoing */
          UART_EndRxTransfer(huart);
 800746e:	68fb      	ldr	r3, [r7, #12]
 8007470:	0018      	movs	r0, r3
 8007472:	f000 f81f 	bl	80074b4 <UART_EndRxTransfer>

          huart->ErrorCode = HAL_UART_ERROR_RTO;
 8007476:	68fb      	ldr	r3, [r7, #12]
 8007478:	2290      	movs	r2, #144	; 0x90
 800747a:	2120      	movs	r1, #32
 800747c:	5099      	str	r1, [r3, r2]

          /* Process Unlocked */
          __HAL_UNLOCK(huart);
 800747e:	68fb      	ldr	r3, [r7, #12]
 8007480:	2284      	movs	r2, #132	; 0x84
 8007482:	2100      	movs	r1, #0
 8007484:	5499      	strb	r1, [r3, r2]

          return HAL_TIMEOUT;
 8007486:	2303      	movs	r3, #3
 8007488:	e00f      	b.n	80074aa <UART_WaitOnFlagUntilTimeout+0xd6>
  while ((__HAL_UART_GET_FLAG(huart, Flag) ? SET : RESET) == Status)
 800748a:	68fb      	ldr	r3, [r7, #12]
 800748c:	681b      	ldr	r3, [r3, #0]
 800748e:	69db      	ldr	r3, [r3, #28]
 8007490:	68ba      	ldr	r2, [r7, #8]
 8007492:	4013      	ands	r3, r2
 8007494:	68ba      	ldr	r2, [r7, #8]
 8007496:	1ad3      	subs	r3, r2, r3
 8007498:	425a      	negs	r2, r3
 800749a:	4153      	adcs	r3, r2
 800749c:	b2db      	uxtb	r3, r3
 800749e:	001a      	movs	r2, r3
 80074a0:	1dfb      	adds	r3, r7, #7
 80074a2:	781b      	ldrb	r3, [r3, #0]
 80074a4:	429a      	cmp	r2, r3
 80074a6:	d09e      	beq.n	80073e6 <UART_WaitOnFlagUntilTimeout+0x12>
        }
      }
    }
  }
  return HAL_OK;
 80074a8:	2300      	movs	r3, #0
}
 80074aa:	0018      	movs	r0, r3
 80074ac:	46bd      	mov	sp, r7
 80074ae:	b004      	add	sp, #16
 80074b0:	bd80      	pop	{r7, pc}
	...

080074b4 <UART_EndRxTransfer>:
  * @brief  End ongoing Rx transfer on UART peripheral (following error detection or Reception completion).
  * @param  huart UART handle.
  * @retval None
  */
static void UART_EndRxTransfer(UART_HandleTypeDef *huart)
{
 80074b4:	b580      	push	{r7, lr}
 80074b6:	b08e      	sub	sp, #56	; 0x38
 80074b8:	af00      	add	r7, sp, #0
 80074ba:	6078      	str	r0, [r7, #4]
  __ASM volatile ("MRS %0, primask" : "=r" (result) :: "memory");
 80074bc:	f3ef 8310 	mrs	r3, PRIMASK
 80074c0:	617b      	str	r3, [r7, #20]
  return(result);
 80074c2:	697b      	ldr	r3, [r7, #20]
  /* Disable RXNE, PE and ERR (Frame error, noise error, overrun error) interrupts */
  ATOMIC_CLEAR_BIT(huart->Instance->CR1, (USART_CR1_RXNEIE_RXFNEIE | USART_CR1_PEIE));
 80074c4:	637b      	str	r3, [r7, #52]	; 0x34
 80074c6:	2301      	movs	r3, #1
 80074c8:	61bb      	str	r3, [r7, #24]
  __ASM volatile ("MSR primask, %0" : : "r" (priMask) : "memory");
 80074ca:	69bb      	ldr	r3, [r7, #24]
 80074cc:	f383 8810 	msr	PRIMASK, r3
}
 80074d0:	46c0      	nop			; (mov r8, r8)
 80074d2:	687b      	ldr	r3, [r7, #4]
 80074d4:	681b      	ldr	r3, [r3, #0]
 80074d6:	681a      	ldr	r2, [r3, #0]
 80074d8:	687b      	ldr	r3, [r7, #4]
 80074da:	681b      	ldr	r3, [r3, #0]
 80074dc:	4926      	ldr	r1, [pc, #152]	; (8007578 <UART_EndRxTransfer+0xc4>)
 80074de:	400a      	ands	r2, r1
 80074e0:	601a      	str	r2, [r3, #0]
 80074e2:	6b7b      	ldr	r3, [r7, #52]	; 0x34
 80074e4:	61fb      	str	r3, [r7, #28]
  __ASM volatile ("MSR primask, %0" : : "r" (priMask) : "memory");
 80074e6:	69fb      	ldr	r3, [r7, #28]
 80074e8:	f383 8810 	msr	PRIMASK, r3
}
 80074ec:	46c0      	nop			; (mov r8, r8)
  __ASM volatile ("MRS %0, primask" : "=r" (result) :: "memory");
 80074ee:	f3ef 8310 	mrs	r3, PRIMASK
 80074f2:	623b      	str	r3, [r7, #32]
  return(result);
 80074f4:	6a3b      	ldr	r3, [r7, #32]
  ATOMIC_CLEAR_BIT(huart->Instance->CR3, (USART_CR3_EIE | USART_CR3_RXFTIE));
 80074f6:	633b      	str	r3, [r7, #48]	; 0x30
 80074f8:	2301      	movs	r3, #1
 80074fa:	627b      	str	r3, [r7, #36]	; 0x24
  __ASM volatile ("MSR primask, %0" : : "r" (priMask) : "memory");
 80074fc:	6a7b      	ldr	r3, [r7, #36]	; 0x24
 80074fe:	f383 8810 	msr	PRIMASK, r3
}
 8007502:	46c0      	nop			; (mov r8, r8)
 8007504:	687b      	ldr	r3, [r7, #4]
 8007506:	681b      	ldr	r3, [r3, #0]
 8007508:	689a      	ldr	r2, [r3, #8]
 800750a:	687b      	ldr	r3, [r7, #4]
 800750c:	681b      	ldr	r3, [r3, #0]
 800750e:	491b      	ldr	r1, [pc, #108]	; (800757c <UART_EndRxTransfer+0xc8>)
 8007510:	400a      	ands	r2, r1
 8007512:	609a      	str	r2, [r3, #8]
 8007514:	6b3b      	ldr	r3, [r7, #48]	; 0x30
 8007516:	62bb      	str	r3, [r7, #40]	; 0x28
  __ASM volatile ("MSR primask, %0" : : "r" (priMask) : "memory");
 8007518:	6abb      	ldr	r3, [r7, #40]	; 0x28
 800751a:	f383 8810 	msr	PRIMASK, r3
}
 800751e:	46c0      	nop			; (mov r8, r8)

  /* In case of reception waiting for IDLE event, disable also the IDLE IE interrupt source */
  if (huart->ReceptionType == HAL_UART_RECEPTION_TOIDLE)
 8007520:	687b      	ldr	r3, [r7, #4]
 8007522:	6edb      	ldr	r3, [r3, #108]	; 0x6c
 8007524:	2b01      	cmp	r3, #1
 8007526:	d118      	bne.n	800755a <UART_EndRxTransfer+0xa6>
  __ASM volatile ("MRS %0, primask" : "=r" (result) :: "memory");
 8007528:	f3ef 8310 	mrs	r3, PRIMASK
 800752c:	60bb      	str	r3, [r7, #8]
  return(result);
 800752e:	68bb      	ldr	r3, [r7, #8]
  {
    ATOMIC_CLEAR_BIT(huart->Instance->CR1, USART_CR1_IDLEIE);
 8007530:	62fb      	str	r3, [r7, #44]	; 0x2c
 8007532:	2301      	movs	r3, #1
 8007534:	60fb      	str	r3, [r7, #12]
  __ASM volatile ("MSR primask, %0" : : "r" (priMask) : "memory");
 8007536:	68fb      	ldr	r3, [r7, #12]
 8007538:	f383 8810 	msr	PRIMASK, r3
}
 800753c:	46c0      	nop			; (mov r8, r8)
 800753e:	687b      	ldr	r3, [r7, #4]
 8007540:	681b      	ldr	r3, [r3, #0]
 8007542:	681a      	ldr	r2, [r3, #0]
 8007544:	687b      	ldr	r3, [r7, #4]
 8007546:	681b      	ldr	r3, [r3, #0]
 8007548:	2110      	movs	r1, #16
 800754a:	438a      	bics	r2, r1
 800754c:	601a      	str	r2, [r3, #0]
 800754e:	6afb      	ldr	r3, [r7, #44]	; 0x2c
 8007550:	613b      	str	r3, [r7, #16]
  __ASM volatile ("MSR primask, %0" : : "r" (priMask) : "memory");
 8007552:	693b      	ldr	r3, [r7, #16]
 8007554:	f383 8810 	msr	PRIMASK, r3
}
 8007558:	46c0      	nop			; (mov r8, r8)
  }

  /* At end of Rx process, restore huart->RxState to Ready */
  huart->RxState = HAL_UART_STATE_READY;
 800755a:	687b      	ldr	r3, [r7, #4]
 800755c:	228c      	movs	r2, #140	; 0x8c
 800755e:	2120      	movs	r1, #32
 8007560:	5099      	str	r1, [r3, r2]
  huart->ReceptionType = HAL_UART_RECEPTION_STANDARD;
 8007562:	687b      	ldr	r3, [r7, #4]
 8007564:	2200      	movs	r2, #0
 8007566:	66da      	str	r2, [r3, #108]	; 0x6c

  /* Reset RxIsr function pointer */
  huart->RxISR = NULL;
 8007568:	687b      	ldr	r3, [r7, #4]
 800756a:	2200      	movs	r2, #0
 800756c:	675a      	str	r2, [r3, #116]	; 0x74
}
 800756e:	46c0      	nop			; (mov r8, r8)
 8007570:	46bd      	mov	sp, r7
 8007572:	b00e      	add	sp, #56	; 0x38
 8007574:	bd80      	pop	{r7, pc}
 8007576:	46c0      	nop			; (mov r8, r8)
 8007578:	fffffedf 	.word	0xfffffedf
 800757c:	effffffe 	.word	0xeffffffe

08007580 <UART_DMAAbortOnError>:
  *         (To be called at end of DMA Abort procedure following error occurrence).
  * @param  hdma DMA handle.
  * @retval None
  */
static void UART_DMAAbortOnError(DMA_HandleTypeDef *hdma)
{
 8007580:	b580      	push	{r7, lr}
 8007582:	b084      	sub	sp, #16
 8007584:	af00      	add	r7, sp, #0
 8007586:	6078      	str	r0, [r7, #4]
  UART_HandleTypeDef *huart = (UART_HandleTypeDef *)(hdma->Parent);
 8007588:	687b      	ldr	r3, [r7, #4]
 800758a:	6a9b      	ldr	r3, [r3, #40]	; 0x28
 800758c:	60fb      	str	r3, [r7, #12]
#if (USE_HAL_UART_REGISTER_CALLBACKS == 1)
  /*Call registered error callback*/
  huart->ErrorCallback(huart);
#else
  /*Call legacy weak error callback*/
  HAL_UART_ErrorCallback(huart);
 800758e:	68fb      	ldr	r3, [r7, #12]
 8007590:	0018      	movs	r0, r3
 8007592:	f7ff fc43 	bl	8006e1c <HAL_UART_ErrorCallback>
#endif /* USE_HAL_UART_REGISTER_CALLBACKS */
}
 8007596:	46c0      	nop			; (mov r8, r8)
 8007598:	46bd      	mov	sp, r7
 800759a:	b004      	add	sp, #16
 800759c:	bd80      	pop	{r7, pc}

0800759e <UART_EndTransmit_IT>:
  * @param  huart pointer to a UART_HandleTypeDef structure that contains
  *                the configuration information for the specified UART module.
  * @retval None
  */
static void UART_EndTransmit_IT(UART_HandleTypeDef *huart)
{
 800759e:	b580      	push	{r7, lr}
 80075a0:	b086      	sub	sp, #24
 80075a2:	af00      	add	r7, sp, #0
 80075a4:	6078      	str	r0, [r7, #4]
  __ASM volatile ("MRS %0, primask" : "=r" (result) :: "memory");
 80075a6:	f3ef 8310 	mrs	r3, PRIMASK
 80075aa:	60bb      	str	r3, [r7, #8]
  return(result);
 80075ac:	68bb      	ldr	r3, [r7, #8]
  /* Disable the UART Transmit Complete Interrupt */
  ATOMIC_CLEAR_BIT(huart->Instance->CR1, USART_CR1_TCIE);
 80075ae:	617b      	str	r3, [r7, #20]
 80075b0:	2301      	movs	r3, #1
 80075b2:	60fb      	str	r3, [r7, #12]
  __ASM volatile ("MSR primask, %0" : : "r" (priMask) : "memory");
 80075b4:	68fb      	ldr	r3, [r7, #12]
 80075b6:	f383 8810 	msr	PRIMASK, r3
}
 80075ba:	46c0      	nop			; (mov r8, r8)
 80075bc:	687b      	ldr	r3, [r7, #4]
 80075be:	681b      	ldr	r3, [r3, #0]
 80075c0:	681a      	ldr	r2, [r3, #0]
 80075c2:	687b      	ldr	r3, [r7, #4]
 80075c4:	681b      	ldr	r3, [r3, #0]
 80075c6:	2140      	movs	r1, #64	; 0x40
 80075c8:	438a      	bics	r2, r1
 80075ca:	601a      	str	r2, [r3, #0]
 80075cc:	697b      	ldr	r3, [r7, #20]
 80075ce:	613b      	str	r3, [r7, #16]
  __ASM volatile ("MSR primask, %0" : : "r" (priMask) : "memory");
 80075d0:	693b      	ldr	r3, [r7, #16]
 80075d2:	f383 8810 	msr	PRIMASK, r3
}
 80075d6:	46c0      	nop			; (mov r8, r8)

  /* Tx process is ended, restore huart->gState to Ready */
  huart->gState = HAL_UART_STATE_READY;
 80075d8:	687b      	ldr	r3, [r7, #4]
 80075da:	2288      	movs	r2, #136	; 0x88
 80075dc:	2120      	movs	r1, #32
 80075de:	5099      	str	r1, [r3, r2]

  /* Cleat TxISR function pointer */
  huart->TxISR = NULL;
 80075e0:	687b      	ldr	r3, [r7, #4]
 80075e2:	2200      	movs	r2, #0
 80075e4:	679a      	str	r2, [r3, #120]	; 0x78
#if (USE_HAL_UART_REGISTER_CALLBACKS == 1)
  /*Call registered Tx complete callback*/
  huart->TxCpltCallback(huart);
#else
  /*Call legacy weak Tx complete callback*/
  HAL_UART_TxCpltCallback(huart);
 80075e6:	687b      	ldr	r3, [r7, #4]
 80075e8:	0018      	movs	r0, r3
 80075ea:	f7ff fc0f 	bl	8006e0c <HAL_UART_TxCpltCallback>
#endif /* USE_HAL_UART_REGISTER_CALLBACKS */
}
 80075ee:	46c0      	nop			; (mov r8, r8)
 80075f0:	46bd      	mov	sp, r7
 80075f2:	b006      	add	sp, #24
 80075f4:	bd80      	pop	{r7, pc}
	...

080075f8 <HAL_RS485Ex_Init>:
  *       oversampling rate).
  * @retval HAL status
  */
HAL_StatusTypeDef HAL_RS485Ex_Init(UART_HandleTypeDef *huart, uint32_t Polarity, uint32_t AssertionTime,
                                   uint32_t DeassertionTime)
{
 80075f8:	b580      	push	{r7, lr}
 80075fa:	b086      	sub	sp, #24
 80075fc:	af00      	add	r7, sp, #0
 80075fe:	60f8      	str	r0, [r7, #12]
 8007600:	60b9      	str	r1, [r7, #8]
 8007602:	607a      	str	r2, [r7, #4]
 8007604:	603b      	str	r3, [r7, #0]
  uint32_t temp;

  /* Check the UART handle allocation */
  if (huart == NULL)
 8007606:	68fb      	ldr	r3, [r7, #12]
 8007608:	2b00      	cmp	r3, #0
 800760a:	d101      	bne.n	8007610 <HAL_RS485Ex_Init+0x18>
  {
    return HAL_ERROR;
 800760c:	2301      	movs	r3, #1
 800760e:	e05d      	b.n	80076cc <HAL_RS485Ex_Init+0xd4>
  assert_param(IS_UART_ASSERTIONTIME(AssertionTime));

  /* Check the Driver Enable deassertion time */
  assert_param(IS_UART_DEASSERTIONTIME(DeassertionTime));

  if (huart->gState == HAL_UART_STATE_RESET)
 8007610:	68fb      	ldr	r3, [r7, #12]
 8007612:	2288      	movs	r2, #136	; 0x88
 8007614:	589b      	ldr	r3, [r3, r2]
 8007616:	2b00      	cmp	r3, #0
 8007618:	d107      	bne.n	800762a <HAL_RS485Ex_Init+0x32>
  {
    /* Allocate lock resource and initialize it */
    huart->Lock = HAL_UNLOCKED;
 800761a:	68fb      	ldr	r3, [r7, #12]
 800761c:	2284      	movs	r2, #132	; 0x84
 800761e:	2100      	movs	r1, #0
 8007620:	5499      	strb	r1, [r3, r2]

    /* Init the low level hardware */
    huart->MspInitCallback(huart);
#else
    /* Init the low level hardware : GPIO, CLOCK, CORTEX */
    HAL_UART_MspInit(huart);
 8007622:	68fb      	ldr	r3, [r7, #12]
 8007624:	0018      	movs	r0, r3
 8007626:	f7fd fa11 	bl	8004a4c <HAL_UART_MspInit>
#endif /* (USE_HAL_UART_REGISTER_CALLBACKS) */
  }

  huart->gState = HAL_UART_STATE_BUSY;
 800762a:	68fb      	ldr	r3, [r7, #12]
 800762c:	2288      	movs	r2, #136	; 0x88
 800762e:	2124      	movs	r1, #36	; 0x24
 8007630:	5099      	str	r1, [r3, r2]

  /* Disable the Peripheral */
  __HAL_UART_DISABLE(huart);
 8007632:	68fb      	ldr	r3, [r7, #12]
 8007634:	681b      	ldr	r3, [r3, #0]
 8007636:	681a      	ldr	r2, [r3, #0]
 8007638:	68fb      	ldr	r3, [r7, #12]
 800763a:	681b      	ldr	r3, [r3, #0]
 800763c:	2101      	movs	r1, #1
 800763e:	438a      	bics	r2, r1
 8007640:	601a      	str	r2, [r3, #0]

  /* Perform advanced settings configuration */
  /* For some items, configuration requires to be done prior TE and RE bits are set */
  if (huart->AdvancedInit.AdvFeatureInit != UART_ADVFEATURE_NO_INIT)
 8007642:	68fb      	ldr	r3, [r7, #12]
 8007644:	6a9b      	ldr	r3, [r3, #40]	; 0x28
 8007646:	2b00      	cmp	r3, #0
 8007648:	d003      	beq.n	8007652 <HAL_RS485Ex_Init+0x5a>
  {
    UART_AdvFeatureConfig(huart);
 800764a:	68fb      	ldr	r3, [r7, #12]
 800764c:	0018      	movs	r0, r3
 800764e:	f7ff fd63 	bl	8007118 <UART_AdvFeatureConfig>
  }

  /* Set the UART Communication parameters */
  if (UART_SetConfig(huart) == HAL_ERROR)
 8007652:	68fb      	ldr	r3, [r7, #12]
 8007654:	0018      	movs	r0, r3
 8007656:	f7ff fbf5 	bl	8006e44 <UART_SetConfig>
 800765a:	0003      	movs	r3, r0
 800765c:	2b01      	cmp	r3, #1
 800765e:	d101      	bne.n	8007664 <HAL_RS485Ex_Init+0x6c>
  {
    return HAL_ERROR;
 8007660:	2301      	movs	r3, #1
 8007662:	e033      	b.n	80076cc <HAL_RS485Ex_Init+0xd4>
  }

  /* Enable the Driver Enable mode by setting the DEM bit in the CR3 register */
  SET_BIT(huart->Instance->CR3, USART_CR3_DEM);
 8007664:	68fb      	ldr	r3, [r7, #12]
 8007666:	681b      	ldr	r3, [r3, #0]
 8007668:	689a      	ldr	r2, [r3, #8]
 800766a:	68fb      	ldr	r3, [r7, #12]
 800766c:	681b      	ldr	r3, [r3, #0]
 800766e:	2180      	movs	r1, #128	; 0x80
 8007670:	01c9      	lsls	r1, r1, #7
 8007672:	430a      	orrs	r2, r1
 8007674:	609a      	str	r2, [r3, #8]

  /* Set the Driver Enable polarity */
  MODIFY_REG(huart->Instance->CR3, USART_CR3_DEP, Polarity);
 8007676:	68fb      	ldr	r3, [r7, #12]
 8007678:	681b      	ldr	r3, [r3, #0]
 800767a:	689b      	ldr	r3, [r3, #8]
 800767c:	4a15      	ldr	r2, [pc, #84]	; (80076d4 <HAL_RS485Ex_Init+0xdc>)
 800767e:	4013      	ands	r3, r2
 8007680:	0019      	movs	r1, r3
 8007682:	68fb      	ldr	r3, [r7, #12]
 8007684:	681b      	ldr	r3, [r3, #0]
 8007686:	68ba      	ldr	r2, [r7, #8]
 8007688:	430a      	orrs	r2, r1
 800768a:	609a      	str	r2, [r3, #8]

  /* Set the Driver Enable assertion and deassertion times */
  temp = (AssertionTime << UART_CR1_DEAT_ADDRESS_LSB_POS);
 800768c:	687b      	ldr	r3, [r7, #4]
 800768e:	055b      	lsls	r3, r3, #21
 8007690:	617b      	str	r3, [r7, #20]
  temp |= (DeassertionTime << UART_CR1_DEDT_ADDRESS_LSB_POS);
 8007692:	683b      	ldr	r3, [r7, #0]
 8007694:	041b      	lsls	r3, r3, #16
 8007696:	697a      	ldr	r2, [r7, #20]
 8007698:	4313      	orrs	r3, r2
 800769a:	617b      	str	r3, [r7, #20]
  MODIFY_REG(huart->Instance->CR1, (USART_CR1_DEDT | USART_CR1_DEAT), temp);
 800769c:	68fb      	ldr	r3, [r7, #12]
 800769e:	681b      	ldr	r3, [r3, #0]
 80076a0:	681b      	ldr	r3, [r3, #0]
 80076a2:	4a0d      	ldr	r2, [pc, #52]	; (80076d8 <HAL_RS485Ex_Init+0xe0>)
 80076a4:	4013      	ands	r3, r2
 80076a6:	0019      	movs	r1, r3
 80076a8:	68fb      	ldr	r3, [r7, #12]
 80076aa:	681b      	ldr	r3, [r3, #0]
 80076ac:	697a      	ldr	r2, [r7, #20]
 80076ae:	430a      	orrs	r2, r1
 80076b0:	601a      	str	r2, [r3, #0]

  /* Enable the Peripheral */
  __HAL_UART_ENABLE(huart);
 80076b2:	68fb      	ldr	r3, [r7, #12]
 80076b4:	681b      	ldr	r3, [r3, #0]
 80076b6:	681a      	ldr	r2, [r3, #0]
 80076b8:	68fb      	ldr	r3, [r7, #12]
 80076ba:	681b      	ldr	r3, [r3, #0]
 80076bc:	2101      	movs	r1, #1
 80076be:	430a      	orrs	r2, r1
 80076c0:	601a      	str	r2, [r3, #0]

  /* TEACK and/or REACK to check before moving huart->gState and huart->RxState to Ready */
  return (UART_CheckIdleState(huart));
 80076c2:	68fb      	ldr	r3, [r7, #12]
 80076c4:	0018      	movs	r0, r3
 80076c6:	f7ff fddb 	bl	8007280 <UART_CheckIdleState>
 80076ca:	0003      	movs	r3, r0
}
 80076cc:	0018      	movs	r0, r3
 80076ce:	46bd      	mov	sp, r7
 80076d0:	b006      	add	sp, #24
 80076d2:	bd80      	pop	{r7, pc}
 80076d4:	ffff7fff 	.word	0xffff7fff
 80076d8:	fc00ffff 	.word	0xfc00ffff

080076dc <HAL_UARTEx_WakeupCallback>:
  * @brief UART wakeup from Stop mode callback.
  * @param huart UART handle.
  * @retval None
  */
__weak void HAL_UARTEx_WakeupCallback(UART_HandleTypeDef *huart)
{
 80076dc:	b580      	push	{r7, lr}
 80076de:	b082      	sub	sp, #8
 80076e0:	af00      	add	r7, sp, #0
 80076e2:	6078      	str	r0, [r7, #4]
  UNUSED(huart);

  /* NOTE : This function should not be modified, when the callback is needed,
            the HAL_UARTEx_WakeupCallback can be implemented in the user file.
   */
}
 80076e4:	46c0      	nop			; (mov r8, r8)
 80076e6:	46bd      	mov	sp, r7
 80076e8:	b002      	add	sp, #8
 80076ea:	bd80      	pop	{r7, pc}

080076ec <HAL_UARTEx_RxFifoFullCallback>:
  * @brief  UART RX Fifo full callback.
  * @param  huart UART handle.
  * @retval None
  */
__weak void HAL_UARTEx_RxFifoFullCallback(UART_HandleTypeDef *huart)
{
 80076ec:	b580      	push	{r7, lr}
 80076ee:	b082      	sub	sp, #8
 80076f0:	af00      	add	r7, sp, #0
 80076f2:	6078      	str	r0, [r7, #4]
  UNUSED(huart);

  /* NOTE : This function should not be modified, when the callback is needed,
            the HAL_UARTEx_RxFifoFullCallback can be implemented in the user file.
   */
}
 80076f4:	46c0      	nop			; (mov r8, r8)
 80076f6:	46bd      	mov	sp, r7
 80076f8:	b002      	add	sp, #8
 80076fa:	bd80      	pop	{r7, pc}

080076fc <HAL_UARTEx_TxFifoEmptyCallback>:
  * @brief  UART TX Fifo empty callback.
  * @param  huart UART handle.
  * @retval None
  */
__weak void HAL_UARTEx_TxFifoEmptyCallback(UART_HandleTypeDef *huart)
{
 80076fc:	b580      	push	{r7, lr}
 80076fe:	b082      	sub	sp, #8
 8007700:	af00      	add	r7, sp, #0
 8007702:	6078      	str	r0, [r7, #4]
  UNUSED(huart);

  /* NOTE : This function should not be modified, when the callback is needed,
            the HAL_UARTEx_TxFifoEmptyCallback can be implemented in the user file.
   */
}
 8007704:	46c0      	nop			; (mov r8, r8)
 8007706:	46bd      	mov	sp, r7
 8007708:	b002      	add	sp, #8
 800770a:	bd80      	pop	{r7, pc}

0800770c <HAL_UARTEx_DisableFifoMode>:
  * @brief  Disable the FIFO mode.
  * @param huart      UART handle.
  * @retval HAL status
  */
HAL_StatusTypeDef HAL_UARTEx_DisableFifoMode(UART_HandleTypeDef *huart)
{
 800770c:	b580      	push	{r7, lr}
 800770e:	b084      	sub	sp, #16
 8007710:	af00      	add	r7, sp, #0
 8007712:	6078      	str	r0, [r7, #4]

  /* Check parameters */
  assert_param(IS_UART_FIFO_INSTANCE(huart->Instance));

  /* Process Locked */
  __HAL_LOCK(huart);
 8007714:	687b      	ldr	r3, [r7, #4]
 8007716:	2284      	movs	r2, #132	; 0x84
 8007718:	5c9b      	ldrb	r3, [r3, r2]
 800771a:	2b01      	cmp	r3, #1
 800771c:	d101      	bne.n	8007722 <HAL_UARTEx_DisableFifoMode+0x16>
 800771e:	2302      	movs	r3, #2
 8007720:	e027      	b.n	8007772 <HAL_UARTEx_DisableFifoMode+0x66>
 8007722:	687b      	ldr	r3, [r7, #4]
 8007724:	2284      	movs	r2, #132	; 0x84
 8007726:	2101      	movs	r1, #1
 8007728:	5499      	strb	r1, [r3, r2]

  huart->gState = HAL_UART_STATE_BUSY;
 800772a:	687b      	ldr	r3, [r7, #4]
 800772c:	2288      	movs	r2, #136	; 0x88
 800772e:	2124      	movs	r1, #36	; 0x24
 8007730:	5099      	str	r1, [r3, r2]

  /* Save actual UART configuration */
  tmpcr1 = READ_REG(huart->Instance->CR1);
 8007732:	687b      	ldr	r3, [r7, #4]
 8007734:	681b      	ldr	r3, [r3, #0]
 8007736:	681b      	ldr	r3, [r3, #0]
 8007738:	60fb      	str	r3, [r7, #12]

  /* Disable UART */
  __HAL_UART_DISABLE(huart);
 800773a:	687b      	ldr	r3, [r7, #4]
 800773c:	681b      	ldr	r3, [r3, #0]
 800773e:	681a      	ldr	r2, [r3, #0]
 8007740:	687b      	ldr	r3, [r7, #4]
 8007742:	681b      	ldr	r3, [r3, #0]
 8007744:	2101      	movs	r1, #1
 8007746:	438a      	bics	r2, r1
 8007748:	601a      	str	r2, [r3, #0]

  /* Disable FIFO mode */
  CLEAR_BIT(tmpcr1, USART_CR1_FIFOEN);
 800774a:	68fb      	ldr	r3, [r7, #12]
 800774c:	4a0b      	ldr	r2, [pc, #44]	; (800777c <HAL_UARTEx_DisableFifoMode+0x70>)
 800774e:	4013      	ands	r3, r2
 8007750:	60fb      	str	r3, [r7, #12]
  huart->FifoMode = UART_FIFOMODE_DISABLE;
 8007752:	687b      	ldr	r3, [r7, #4]
 8007754:	2200      	movs	r2, #0
 8007756:	665a      	str	r2, [r3, #100]	; 0x64

  /* Restore UART configuration */
  WRITE_REG(huart->Instance->CR1, tmpcr1);
 8007758:	687b      	ldr	r3, [r7, #4]
 800775a:	681b      	ldr	r3, [r3, #0]
 800775c:	68fa      	ldr	r2, [r7, #12]
 800775e:	601a      	str	r2, [r3, #0]

  huart->gState = HAL_UART_STATE_READY;
 8007760:	687b      	ldr	r3, [r7, #4]
 8007762:	2288      	movs	r2, #136	; 0x88
 8007764:	2120      	movs	r1, #32
 8007766:	5099      	str	r1, [r3, r2]

  /* Process Unlocked */
  __HAL_UNLOCK(huart);
 8007768:	687b      	ldr	r3, [r7, #4]
 800776a:	2284      	movs	r2, #132	; 0x84
 800776c:	2100      	movs	r1, #0
 800776e:	5499      	strb	r1, [r3, r2]

  return HAL_OK;
 8007770:	2300      	movs	r3, #0
}
 8007772:	0018      	movs	r0, r3
 8007774:	46bd      	mov	sp, r7
 8007776:	b004      	add	sp, #16
 8007778:	bd80      	pop	{r7, pc}
 800777a:	46c0      	nop			; (mov r8, r8)
 800777c:	dfffffff 	.word	0xdfffffff

08007780 <HAL_UARTEx_SetTxFifoThreshold>:
  *            @arg @ref UART_TXFIFO_THRESHOLD_7_8
  *            @arg @ref UART_TXFIFO_THRESHOLD_8_8
  * @retval HAL status
  */
HAL_StatusTypeDef HAL_UARTEx_SetTxFifoThreshold(UART_HandleTypeDef *huart, uint32_t Threshold)
{
 8007780:	b580      	push	{r7, lr}
 8007782:	b084      	sub	sp, #16
 8007784:	af00      	add	r7, sp, #0
 8007786:	6078      	str	r0, [r7, #4]
 8007788:	6039      	str	r1, [r7, #0]
  /* Check parameters */
  assert_param(IS_UART_FIFO_INSTANCE(huart->Instance));
  assert_param(IS_UART_TXFIFO_THRESHOLD(Threshold));

  /* Process Locked */
  __HAL_LOCK(huart);
 800778a:	687b      	ldr	r3, [r7, #4]
 800778c:	2284      	movs	r2, #132	; 0x84
 800778e:	5c9b      	ldrb	r3, [r3, r2]
 8007790:	2b01      	cmp	r3, #1
 8007792:	d101      	bne.n	8007798 <HAL_UARTEx_SetTxFifoThreshold+0x18>
 8007794:	2302      	movs	r3, #2
 8007796:	e02e      	b.n	80077f6 <HAL_UARTEx_SetTxFifoThreshold+0x76>
 8007798:	687b      	ldr	r3, [r7, #4]
 800779a:	2284      	movs	r2, #132	; 0x84
 800779c:	2101      	movs	r1, #1
 800779e:	5499      	strb	r1, [r3, r2]

  huart->gState = HAL_UART_STATE_BUSY;
 80077a0:	687b      	ldr	r3, [r7, #4]
 80077a2:	2288      	movs	r2, #136	; 0x88
 80077a4:	2124      	movs	r1, #36	; 0x24
 80077a6:	5099      	str	r1, [r3, r2]

  /* Save actual UART configuration */
  tmpcr1 = READ_REG(huart->Instance->CR1);
 80077a8:	687b      	ldr	r3, [r7, #4]
 80077aa:	681b      	ldr	r3, [r3, #0]
 80077ac:	681b      	ldr	r3, [r3, #0]
 80077ae:	60fb      	str	r3, [r7, #12]

  /* Disable UART */
  __HAL_UART_DISABLE(huart);
 80077b0:	687b      	ldr	r3, [r7, #4]
 80077b2:	681b      	ldr	r3, [r3, #0]
 80077b4:	681a      	ldr	r2, [r3, #0]
 80077b6:	687b      	ldr	r3, [r7, #4]
 80077b8:	681b      	ldr	r3, [r3, #0]
 80077ba:	2101      	movs	r1, #1
 80077bc:	438a      	bics	r2, r1
 80077be:	601a      	str	r2, [r3, #0]

  /* Update TX threshold configuration */
  MODIFY_REG(huart->Instance->CR3, USART_CR3_TXFTCFG, Threshold);
 80077c0:	687b      	ldr	r3, [r7, #4]
 80077c2:	681b      	ldr	r3, [r3, #0]
 80077c4:	689b      	ldr	r3, [r3, #8]
 80077c6:	00db      	lsls	r3, r3, #3
 80077c8:	08d9      	lsrs	r1, r3, #3
 80077ca:	687b      	ldr	r3, [r7, #4]
 80077cc:	681b      	ldr	r3, [r3, #0]
 80077ce:	683a      	ldr	r2, [r7, #0]
 80077d0:	430a      	orrs	r2, r1
 80077d2:	609a      	str	r2, [r3, #8]

  /* Determine the number of data to process during RX/TX ISR execution */
  UARTEx_SetNbDataToProcess(huart);
 80077d4:	687b      	ldr	r3, [r7, #4]
 80077d6:	0018      	movs	r0, r3
 80077d8:	f000 f854 	bl	8007884 <UARTEx_SetNbDataToProcess>

  /* Restore UART configuration */
  WRITE_REG(huart->Instance->CR1, tmpcr1);
 80077dc:	687b      	ldr	r3, [r7, #4]
 80077de:	681b      	ldr	r3, [r3, #0]
 80077e0:	68fa      	ldr	r2, [r7, #12]
 80077e2:	601a      	str	r2, [r3, #0]

  huart->gState = HAL_UART_STATE_READY;
 80077e4:	687b      	ldr	r3, [r7, #4]
 80077e6:	2288      	movs	r2, #136	; 0x88
 80077e8:	2120      	movs	r1, #32
 80077ea:	5099      	str	r1, [r3, r2]

  /* Process Unlocked */
  __HAL_UNLOCK(huart);
 80077ec:	687b      	ldr	r3, [r7, #4]
 80077ee:	2284      	movs	r2, #132	; 0x84
 80077f0:	2100      	movs	r1, #0
 80077f2:	5499      	strb	r1, [r3, r2]

  return HAL_OK;
 80077f4:	2300      	movs	r3, #0
}
 80077f6:	0018      	movs	r0, r3
 80077f8:	46bd      	mov	sp, r7
 80077fa:	b004      	add	sp, #16
 80077fc:	bd80      	pop	{r7, pc}
	...

08007800 <HAL_UARTEx_SetRxFifoThreshold>:
  *            @arg @ref UART_RXFIFO_THRESHOLD_7_8
  *            @arg @ref UART_RXFIFO_THRESHOLD_8_8
  * @retval HAL status
  */
HAL_StatusTypeDef HAL_UARTEx_SetRxFifoThreshold(UART_HandleTypeDef *huart, uint32_t Threshold)
{
 8007800:	b580      	push	{r7, lr}
 8007802:	b084      	sub	sp, #16
 8007804:	af00      	add	r7, sp, #0
 8007806:	6078      	str	r0, [r7, #4]
 8007808:	6039      	str	r1, [r7, #0]
  /* Check the parameters */
  assert_param(IS_UART_FIFO_INSTANCE(huart->Instance));
  assert_param(IS_UART_RXFIFO_THRESHOLD(Threshold));

  /* Process Locked */
  __HAL_LOCK(huart);
 800780a:	687b      	ldr	r3, [r7, #4]
 800780c:	2284      	movs	r2, #132	; 0x84
 800780e:	5c9b      	ldrb	r3, [r3, r2]
 8007810:	2b01      	cmp	r3, #1
 8007812:	d101      	bne.n	8007818 <HAL_UARTEx_SetRxFifoThreshold+0x18>
 8007814:	2302      	movs	r3, #2
 8007816:	e02f      	b.n	8007878 <HAL_UARTEx_SetRxFifoThreshold+0x78>
 8007818:	687b      	ldr	r3, [r7, #4]
 800781a:	2284      	movs	r2, #132	; 0x84
 800781c:	2101      	movs	r1, #1
 800781e:	5499      	strb	r1, [r3, r2]

  huart->gState = HAL_UART_STATE_BUSY;
 8007820:	687b      	ldr	r3, [r7, #4]
 8007822:	2288      	movs	r2, #136	; 0x88
 8007824:	2124      	movs	r1, #36	; 0x24
 8007826:	5099      	str	r1, [r3, r2]

  /* Save actual UART configuration */
  tmpcr1 = READ_REG(huart->Instance->CR1);
 8007828:	687b      	ldr	r3, [r7, #4]
 800782a:	681b      	ldr	r3, [r3, #0]
 800782c:	681b      	ldr	r3, [r3, #0]
 800782e:	60fb      	str	r3, [r7, #12]

  /* Disable UART */
  __HAL_UART_DISABLE(huart);
 8007830:	687b      	ldr	r3, [r7, #4]
 8007832:	681b      	ldr	r3, [r3, #0]
 8007834:	681a      	ldr	r2, [r3, #0]
 8007836:	687b      	ldr	r3, [r7, #4]
 8007838:	681b      	ldr	r3, [r3, #0]
 800783a:	2101      	movs	r1, #1
 800783c:	438a      	bics	r2, r1
 800783e:	601a      	str	r2, [r3, #0]

  /* Update RX threshold configuration */
  MODIFY_REG(huart->Instance->CR3, USART_CR3_RXFTCFG, Threshold);
 8007840:	687b      	ldr	r3, [r7, #4]
 8007842:	681b      	ldr	r3, [r3, #0]
 8007844:	689b      	ldr	r3, [r3, #8]
 8007846:	4a0e      	ldr	r2, [pc, #56]	; (8007880 <HAL_UARTEx_SetRxFifoThreshold+0x80>)
 8007848:	4013      	ands	r3, r2
 800784a:	0019      	movs	r1, r3
 800784c:	687b      	ldr	r3, [r7, #4]
 800784e:	681b      	ldr	r3, [r3, #0]
 8007850:	683a      	ldr	r2, [r7, #0]
 8007852:	430a      	orrs	r2, r1
 8007854:	609a      	str	r2, [r3, #8]

  /* Determine the number of data to process during RX/TX ISR execution */
  UARTEx_SetNbDataToProcess(huart);
 8007856:	687b      	ldr	r3, [r7, #4]
 8007858:	0018      	movs	r0, r3
 800785a:	f000 f813 	bl	8007884 <UARTEx_SetNbDataToProcess>

  /* Restore UART configuration */
  WRITE_REG(huart->Instance->CR1, tmpcr1);
 800785e:	687b      	ldr	r3, [r7, #4]
 8007860:	681b      	ldr	r3, [r3, #0]
 8007862:	68fa      	ldr	r2, [r7, #12]
 8007864:	601a      	str	r2, [r3, #0]

  huart->gState = HAL_UART_STATE_READY;
 8007866:	687b      	ldr	r3, [r7, #4]
 8007868:	2288      	movs	r2, #136	; 0x88
 800786a:	2120      	movs	r1, #32
 800786c:	5099      	str	r1, [r3, r2]

  /* Process Unlocked */
  __HAL_UNLOCK(huart);
 800786e:	687b      	ldr	r3, [r7, #4]
 8007870:	2284      	movs	r2, #132	; 0x84
 8007872:	2100      	movs	r1, #0
 8007874:	5499      	strb	r1, [r3, r2]

  return HAL_OK;
 8007876:	2300      	movs	r3, #0
}
 8007878:	0018      	movs	r0, r3
 800787a:	46bd      	mov	sp, r7
 800787c:	b004      	add	sp, #16
 800787e:	bd80      	pop	{r7, pc}
 8007880:	f1ffffff 	.word	0xf1ffffff

08007884 <UARTEx_SetNbDataToProcess>:
  *       the UART configuration registers.
  * @param huart UART handle.
  * @retval None
  */
static void UARTEx_SetNbDataToProcess(UART_HandleTypeDef *huart)
{
 8007884:	b5f0      	push	{r4, r5, r6, r7, lr}
 8007886:	b085      	sub	sp, #20
 8007888:	af00      	add	r7, sp, #0
 800788a:	6078      	str	r0, [r7, #4]
  uint8_t rx_fifo_threshold;
  uint8_t tx_fifo_threshold;
  static const uint8_t numerator[] = {1U, 1U, 1U, 3U, 7U, 1U, 0U, 0U};
  static const uint8_t denominator[] = {8U, 4U, 2U, 4U, 8U, 1U, 1U, 1U};

  if (huart->FifoMode == UART_FIFOMODE_DISABLE)
 800788c:	687b      	ldr	r3, [r7, #4]
 800788e:	6e5b      	ldr	r3, [r3, #100]	; 0x64
 8007890:	2b00      	cmp	r3, #0
 8007892:	d108      	bne.n	80078a6 <UARTEx_SetNbDataToProcess+0x22>
  {
    huart->NbTxDataToProcess = 1U;
 8007894:	687b      	ldr	r3, [r7, #4]
 8007896:	226a      	movs	r2, #106	; 0x6a
 8007898:	2101      	movs	r1, #1
 800789a:	5299      	strh	r1, [r3, r2]
    huart->NbRxDataToProcess = 1U;
 800789c:	687b      	ldr	r3, [r7, #4]
 800789e:	2268      	movs	r2, #104	; 0x68
 80078a0:	2101      	movs	r1, #1
 80078a2:	5299      	strh	r1, [r3, r2]
    huart->NbTxDataToProcess = ((uint16_t)tx_fifo_depth * numerator[tx_fifo_threshold]) /
                               (uint16_t)denominator[tx_fifo_threshold];
    huart->NbRxDataToProcess = ((uint16_t)rx_fifo_depth * numerator[rx_fifo_threshold]) /
                               (uint16_t)denominator[rx_fifo_threshold];
  }
}
 80078a4:	e043      	b.n	800792e <UARTEx_SetNbDataToProcess+0xaa>
    rx_fifo_depth = RX_FIFO_DEPTH;
 80078a6:	260f      	movs	r6, #15
 80078a8:	19bb      	adds	r3, r7, r6
 80078aa:	2208      	movs	r2, #8
 80078ac:	701a      	strb	r2, [r3, #0]
    tx_fifo_depth = TX_FIFO_DEPTH;
 80078ae:	200e      	movs	r0, #14
 80078b0:	183b      	adds	r3, r7, r0
 80078b2:	2208      	movs	r2, #8
 80078b4:	701a      	strb	r2, [r3, #0]
    rx_fifo_threshold = (uint8_t)(READ_BIT(huart->Instance->CR3, USART_CR3_RXFTCFG) >> USART_CR3_RXFTCFG_Pos);
 80078b6:	687b      	ldr	r3, [r7, #4]
 80078b8:	681b      	ldr	r3, [r3, #0]
 80078ba:	689b      	ldr	r3, [r3, #8]
 80078bc:	0e5b      	lsrs	r3, r3, #25
 80078be:	b2da      	uxtb	r2, r3
 80078c0:	240d      	movs	r4, #13
 80078c2:	193b      	adds	r3, r7, r4
 80078c4:	2107      	movs	r1, #7
 80078c6:	400a      	ands	r2, r1
 80078c8:	701a      	strb	r2, [r3, #0]
    tx_fifo_threshold = (uint8_t)(READ_BIT(huart->Instance->CR3, USART_CR3_TXFTCFG) >> USART_CR3_TXFTCFG_Pos);
 80078ca:	687b      	ldr	r3, [r7, #4]
 80078cc:	681b      	ldr	r3, [r3, #0]
 80078ce:	689b      	ldr	r3, [r3, #8]
 80078d0:	0f5b      	lsrs	r3, r3, #29
 80078d2:	b2da      	uxtb	r2, r3
 80078d4:	250c      	movs	r5, #12
 80078d6:	197b      	adds	r3, r7, r5
 80078d8:	2107      	movs	r1, #7
 80078da:	400a      	ands	r2, r1
 80078dc:	701a      	strb	r2, [r3, #0]
    huart->NbTxDataToProcess = ((uint16_t)tx_fifo_depth * numerator[tx_fifo_threshold]) /
 80078de:	183b      	adds	r3, r7, r0
 80078e0:	781b      	ldrb	r3, [r3, #0]
 80078e2:	197a      	adds	r2, r7, r5
 80078e4:	7812      	ldrb	r2, [r2, #0]
 80078e6:	4914      	ldr	r1, [pc, #80]	; (8007938 <UARTEx_SetNbDataToProcess+0xb4>)
 80078e8:	5c8a      	ldrb	r2, [r1, r2]
 80078ea:	435a      	muls	r2, r3
 80078ec:	0010      	movs	r0, r2
                               (uint16_t)denominator[tx_fifo_threshold];
 80078ee:	197b      	adds	r3, r7, r5
 80078f0:	781b      	ldrb	r3, [r3, #0]
 80078f2:	4a12      	ldr	r2, [pc, #72]	; (800793c <UARTEx_SetNbDataToProcess+0xb8>)
 80078f4:	5cd3      	ldrb	r3, [r2, r3]
    huart->NbTxDataToProcess = ((uint16_t)tx_fifo_depth * numerator[tx_fifo_threshold]) /
 80078f6:	0019      	movs	r1, r3
 80078f8:	f7f8 fc94 	bl	8000224 <__divsi3>
 80078fc:	0003      	movs	r3, r0
 80078fe:	b299      	uxth	r1, r3
 8007900:	687b      	ldr	r3, [r7, #4]
 8007902:	226a      	movs	r2, #106	; 0x6a
 8007904:	5299      	strh	r1, [r3, r2]
    huart->NbRxDataToProcess = ((uint16_t)rx_fifo_depth * numerator[rx_fifo_threshold]) /
 8007906:	19bb      	adds	r3, r7, r6
 8007908:	781b      	ldrb	r3, [r3, #0]
 800790a:	193a      	adds	r2, r7, r4
 800790c:	7812      	ldrb	r2, [r2, #0]
 800790e:	490a      	ldr	r1, [pc, #40]	; (8007938 <UARTEx_SetNbDataToProcess+0xb4>)
 8007910:	5c8a      	ldrb	r2, [r1, r2]
 8007912:	435a      	muls	r2, r3
 8007914:	0010      	movs	r0, r2
                               (uint16_t)denominator[rx_fifo_threshold];
 8007916:	193b      	adds	r3, r7, r4
 8007918:	781b      	ldrb	r3, [r3, #0]
 800791a:	4a08      	ldr	r2, [pc, #32]	; (800793c <UARTEx_SetNbDataToProcess+0xb8>)
 800791c:	5cd3      	ldrb	r3, [r2, r3]
    huart->NbRxDataToProcess = ((uint16_t)rx_fifo_depth * numerator[rx_fifo_threshold]) /
 800791e:	0019      	movs	r1, r3
 8007920:	f7f8 fc80 	bl	8000224 <__divsi3>
 8007924:	0003      	movs	r3, r0
 8007926:	b299      	uxth	r1, r3
 8007928:	687b      	ldr	r3, [r7, #4]
 800792a:	2268      	movs	r2, #104	; 0x68
 800792c:	5299      	strh	r1, [r3, r2]
}
 800792e:	46c0      	nop			; (mov r8, r8)
 8007930:	46bd      	mov	sp, r7
 8007932:	b005      	add	sp, #20
 8007934:	bdf0      	pop	{r4, r5, r6, r7, pc}
 8007936:	46c0      	nop			; (mov r8, r8)
 8007938:	08007b30 	.word	0x08007b30
 800793c:	08007b38 	.word	0x08007b38

08007940 <memcmp>:
 8007940:	b530      	push	{r4, r5, lr}
 8007942:	2400      	movs	r4, #0
 8007944:	3901      	subs	r1, #1
 8007946:	42a2      	cmp	r2, r4
 8007948:	d101      	bne.n	800794e <memcmp+0xe>
 800794a:	2000      	movs	r0, #0
 800794c:	e005      	b.n	800795a <memcmp+0x1a>
 800794e:	5d03      	ldrb	r3, [r0, r4]
 8007950:	3401      	adds	r4, #1
 8007952:	5d0d      	ldrb	r5, [r1, r4]
 8007954:	42ab      	cmp	r3, r5
 8007956:	d0f6      	beq.n	8007946 <memcmp+0x6>
 8007958:	1b58      	subs	r0, r3, r5
 800795a:	bd30      	pop	{r4, r5, pc}

0800795c <memset>:
 800795c:	0003      	movs	r3, r0
 800795e:	1882      	adds	r2, r0, r2
 8007960:	4293      	cmp	r3, r2
 8007962:	d100      	bne.n	8007966 <memset+0xa>
 8007964:	4770      	bx	lr
 8007966:	7019      	strb	r1, [r3, #0]
 8007968:	3301      	adds	r3, #1
 800796a:	e7f9      	b.n	8007960 <memset+0x4>

0800796c <strncpy>:
 800796c:	0003      	movs	r3, r0
 800796e:	b530      	push	{r4, r5, lr}
 8007970:	001d      	movs	r5, r3
 8007972:	2a00      	cmp	r2, #0
 8007974:	d006      	beq.n	8007984 <strncpy+0x18>
 8007976:	780c      	ldrb	r4, [r1, #0]
 8007978:	3a01      	subs	r2, #1
 800797a:	3301      	adds	r3, #1
 800797c:	702c      	strb	r4, [r5, #0]
 800797e:	3101      	adds	r1, #1
 8007980:	2c00      	cmp	r4, #0
 8007982:	d1f5      	bne.n	8007970 <strncpy+0x4>
 8007984:	2100      	movs	r1, #0
 8007986:	189a      	adds	r2, r3, r2
 8007988:	4293      	cmp	r3, r2
 800798a:	d100      	bne.n	800798e <strncpy+0x22>
 800798c:	bd30      	pop	{r4, r5, pc}
 800798e:	7019      	strb	r1, [r3, #0]
 8007990:	3301      	adds	r3, #1
 8007992:	e7f9      	b.n	8007988 <strncpy+0x1c>

08007994 <__libc_init_array>:
 8007994:	b570      	push	{r4, r5, r6, lr}
 8007996:	2600      	movs	r6, #0
 8007998:	4c0c      	ldr	r4, [pc, #48]	; (80079cc <__libc_init_array+0x38>)
 800799a:	4d0d      	ldr	r5, [pc, #52]	; (80079d0 <__libc_init_array+0x3c>)
 800799c:	1b64      	subs	r4, r4, r5
 800799e:	10a4      	asrs	r4, r4, #2
 80079a0:	42a6      	cmp	r6, r4
 80079a2:	d109      	bne.n	80079b8 <__libc_init_array+0x24>
 80079a4:	2600      	movs	r6, #0
 80079a6:	f000 f823 	bl	80079f0 <_init>
 80079aa:	4c0a      	ldr	r4, [pc, #40]	; (80079d4 <__libc_init_array+0x40>)
 80079ac:	4d0a      	ldr	r5, [pc, #40]	; (80079d8 <__libc_init_array+0x44>)
 80079ae:	1b64      	subs	r4, r4, r5
 80079b0:	10a4      	asrs	r4, r4, #2
 80079b2:	42a6      	cmp	r6, r4
 80079b4:	d105      	bne.n	80079c2 <__libc_init_array+0x2e>
 80079b6:	bd70      	pop	{r4, r5, r6, pc}
 80079b8:	00b3      	lsls	r3, r6, #2
 80079ba:	58eb      	ldr	r3, [r5, r3]
 80079bc:	4798      	blx	r3
 80079be:	3601      	adds	r6, #1
 80079c0:	e7ee      	b.n	80079a0 <__libc_init_array+0xc>
 80079c2:	00b3      	lsls	r3, r6, #2
 80079c4:	58eb      	ldr	r3, [r5, r3]
 80079c6:	4798      	blx	r3
 80079c8:	3601      	adds	r6, #1
 80079ca:	e7f2      	b.n	80079b2 <__libc_init_array+0x1e>
 80079cc:	08007b40 	.word	0x08007b40
 80079d0:	08007b40 	.word	0x08007b40
 80079d4:	08007b44 	.word	0x08007b44
 80079d8:	08007b40 	.word	0x08007b40

080079dc <memcpy>:
 80079dc:	2300      	movs	r3, #0
 80079de:	b510      	push	{r4, lr}
 80079e0:	429a      	cmp	r2, r3
 80079e2:	d100      	bne.n	80079e6 <memcpy+0xa>
 80079e4:	bd10      	pop	{r4, pc}
 80079e6:	5ccc      	ldrb	r4, [r1, r3]
 80079e8:	54c4      	strb	r4, [r0, r3]
 80079ea:	3301      	adds	r3, #1
 80079ec:	e7f8      	b.n	80079e0 <memcpy+0x4>
	...

080079f0 <_init>:
 80079f0:	b5f8      	push	{r3, r4, r5, r6, r7, lr}
 80079f2:	46c0      	nop			; (mov r8, r8)
 80079f4:	bcf8      	pop	{r3, r4, r5, r6, r7}
 80079f6:	bc08      	pop	{r3}
 80079f8:	469e      	mov	lr, r3
 80079fa:	4770      	bx	lr

080079fc <_fini>:
 80079fc:	b5f8      	push	{r3, r4, r5, r6, r7, lr}
 80079fe:	46c0      	nop			; (mov r8, r8)
 8007a00:	bcf8      	pop	{r3, r4, r5, r6, r7}
 8007a02:	bc08      	pop	{r3}
 8007a04:	469e      	mov	lr, r3
 8007a06:	4770      	bx	lr
